

Microchip Technology PIC18 LITE Macro Assembler V1.33 build 59893 
                                                                                               Thu Oct 26 18:28:39 2017

Microchip Technology Omniscient Code Generator (Lite mode) build 59893
     1                           	processor	18F4550
     2                           	fnconf	rparam,??,?,0
     3                           	opt	pw 120
     4                           	opt	lm
     5                           	psect	idataBANK0,global,class=CODE,delta=1
     6                           	psect	cinit,global,reloc=2,class=CODE,delta=1
     7                           	psect	bssCOMRAM,global,class=COMRAM,space=1,delta=1
     8                           	psect	bssBANK0,global,class=BANK0,space=1,delta=1
     9                           	psect	dataBANK0,global,class=BANK0,space=1,delta=1
    10                           	psect	cstackBANK6,global,class=BANK6,space=1,delta=1
    11                           	psect	cstackBANK5,global,class=BANK5,space=1,delta=1
    12                           	psect	cstackBANK4,global,class=BANK4,space=1,delta=1
    13                           	psect	cstackBANK3,global,class=BANK3,space=1,delta=1
    14                           	psect	cstackBANK2,global,class=BANK2,space=1,delta=1
    15                           	psect	cstackBANK1,global,class=BANK1,space=1,delta=1
    16                           	psect	cstackBANK0,global,class=BANK0,space=1,delta=1
    17                           	psect	cstackCOMRAM,global,class=COMRAM,space=1,delta=1
    18                           	psect	text0,global,reloc=2,class=CODE,delta=1
    19                           	psect	text1,global,reloc=2,class=CODE,delta=1
    20                           	psect	text2,global,reloc=2,class=CODE,delta=1
    21                           	psect	text3,global,reloc=2,class=CODE,delta=1
    22                           	psect	text4,global,reloc=2,class=CODE,delta=1
    23                           	psect	text5,global,reloc=2,class=CODE,delta=1
    24                           	psect	text6,global,reloc=2,class=CODE,delta=1
    25                           	psect	text7,global,reloc=2,class=CODE,delta=1
    26                           	psect	text8,global,reloc=2,class=CODE,delta=1
    27                           	psect	text9,global,reloc=2,class=CODE,delta=1
    28                           	psect	text10,global,reloc=2,class=CODE,delta=1
    29                           	psect	text11,global,reloc=2,class=CODE,delta=1
    30                           	psect	text12,global,reloc=2,class=CODE,delta=1
    31                           	psect	text13,global,reloc=2,class=CODE,delta=1
    32                           	psect	text14,global,reloc=2,class=CODE,delta=1
    33                           	psect	text15,global,reloc=2,class=CODE,delta=1
    34                           	psect	text16,global,reloc=2,class=CODE,delta=1
    35                           	psect	text17,global,reloc=2,class=CODE,delta=1
    36                           	psect	text18,global,reloc=2,class=CODE,delta=1
    37                           	psect	text19,global,reloc=2,class=CODE,delta=1
    38                           	psect	text20,global,reloc=2,class=CODE,delta=1
    39                           	psect	text21,global,reloc=2,class=CODE,delta=1
    40                           	psect	text22,global,reloc=2,class=CODE,delta=1
    41                           	psect	text23,global,reloc=2,class=CODE,delta=1
    42                           	psect	text24,global,reloc=2,class=CODE,delta=1
    43                           	psect	text25,global,reloc=2,class=CODE,delta=1
    44                           	psect	text26,global,reloc=2,class=CODE,delta=1
    45                           	psect	text27,global,reloc=2,class=CODE,delta=1
    46                           	psect	text28,global,reloc=2,class=CODE,delta=1
    47                           	psect	text29,global,reloc=2,class=CODE,delta=1
    48                           	psect	text30,global,reloc=2,class=CODE,delta=1
    49                           	psect	text31,global,reloc=2,class=CODE,delta=1
    50                           	psect	intsave_regs,global,class=BIGRAM,space=1,delta=1
    51                           	psect	rparam,global,class=COMRAM,space=1,delta=1
    52  0000                     
    53                           	psect	idataBANK0
    54  0065B6                     __pidataBANK0:
    55                           	opt stack 0
    56                           
    57                           ;initializer for _countup
    58  0065B6  0001               	dw	1
    59  0000                     _ADCON1bits	set	4033
    60  0000                     _CCP1CON	set	4029
    61  0000                     _CCP2CON	set	4026
    62  0000                     _CCPR1L	set	4030
    63  0000                     _CCPR2L	set	4027
    64  0000                     _OSCCONbits	set	4051
    65  0000                     _PIE1bits	set	3997
    66  0000                     _PIR1bits	set	3998
    67  0000                     _PORTA	set	3968
    68  0000                     _PORTAbits	set	3968
    69  0000                     _PORTB	set	3969
    70  0000                     _PORTBbits	set	3969
    71  0000                     _PORTC	set	3970
    72  0000                     _PORTD	set	3971
    73  0000                     _PORTDbits	set	3971
    74  0000                     _PORTE	set	3972
    75  0000                     _PR2	set	4043
    76  0000                     _T2CON	set	4042
    77  0000                     _T2CONbits	set	4042
    78  0000                     _TMR2	set	4044
    79  0000                     _TRISA	set	3986
    80  0000                     _TRISB	set	3987
    81  0000                     _TRISBbits	set	3987
    82  0000                     _TRISC	set	3988
    83  0000                     _TRISCbits	set	3988
    84  0000                     _TRISD	set	3989
    85  0000                     _TRISE	set	3990
    86                           
    87                           ; #config settings
    88  0000                     
    89                           	psect	cinit
    90  00669E                     __pcinit:
    91                           	opt stack 0
    92  00669E                     start_initialization:
    93                           	opt stack 0
    94  00669E                     __initialization:
    95                           	opt stack 0
    96                           
    97                           ; Clear objects allocated to BANK0 (4 bytes)
    98  00669E  0100               	movlb	0
    99  0066A0  6BF2               	clrf	(__pbssBANK0+3)& (0+255),b
   100  0066A2  6BF1               	clrf	(__pbssBANK0+2)& (0+255),b
   101  0066A4  6BF0               	clrf	(__pbssBANK0+1)& (0+255),b
   102  0066A6  6BEF               	clrf	__pbssBANK0& (0+255),b
   103                           
   104                           ; Clear objects allocated to COMRAM (1 bytes)
   105  0066A8  6A5F               	clrf	__pbssCOMRAM& (0+255),c
   106                           
   107                           ; Initialize objects allocated to BANK0 (2 bytes)
   108                           ; load TBLPTR registers with __pidataBANK0
   109  0066AA  0EB6               	movlw	low __pidataBANK0
   110  0066AC  6EF6               	movwf	tblptrl,c
   111  0066AE  0E65               	movlw	high __pidataBANK0
   112  0066B0  6EF7               	movwf	tblptrh,c
   113  0066B2  0E00               	movlw	low (__pidataBANK0 shr (0+16))
   114  0066B4  6EF8               	movwf	tblptru,c
   115  0066B6  0009               	tblrd		*+	;fetch initializer
   116  0066B8  CFF5 F0F3          	movff	tablat,__pdataBANK0
   117  0066BC  0009               	tblrd		*+	;fetch initializer
   118  0066BE  CFF5 F0F4          	movff	tablat,__pdataBANK0+1
   119  0066C2                     end_of_initialization:
   120                           	opt stack 0
   121  0066C2                     __end_of__initialization:
   122                           	opt stack 0
   123  0066C2  0100               	movlb	0
   124  0066C4  EF4B  F037         	goto	_main	;jump to C main() function
   125                           tblptru	equ	0xFF8
   126                           tblptrh	equ	0xFF7
   127                           tblptrl	equ	0xFF6
   128                           tablat	equ	0xFF5
   129                           
   130                           	psect	bssCOMRAM
   131  00005F                     __pbssCOMRAM:
   132                           	opt stack 0
   133  00005F                     _Timer2Config:
   134                           	opt stack 0
   135  00005F                     	ds	1
   136                           tblptru	equ	0xFF8
   137                           tblptrh	equ	0xFF7
   138                           tblptrl	equ	0xFF6
   139                           tablat	equ	0xFF5
   140                           
   141                           	psect	bssBANK0
   142  0000EF                     __pbssBANK0:
   143                           	opt stack 0
   144  0000EF                     _DutyCycle:
   145                           	opt stack 0
   146  0000EF                     	ds	2
   147  0000F1                     _i:
   148                           	opt stack 0
   149  0000F1                     	ds	2
   150                           tblptru	equ	0xFF8
   151                           tblptrh	equ	0xFF7
   152                           tblptrl	equ	0xFF6
   153                           tablat	equ	0xFF5
   154                           
   155                           	psect	dataBANK0
   156  0000F3                     __pdataBANK0:
   157                           	opt stack 0
   158  0000F3                     _countup:
   159                           	opt stack 0
   160  0000F3                     	ds	2
   161                           tblptru	equ	0xFF8
   162                           tblptrh	equ	0xFF7
   163                           tblptrl	equ	0xFF6
   164                           tablat	equ	0xFF5
   165                           
   166                           	psect	cstackBANK6
   167  000600                     __pcstackBANK6:
   168                           	opt stack 0
   169  000600                     fuzzy_system_single2@x:
   170                           	opt stack 0
   171  000600                     fuzzy_system_single1@x:
   172                           	opt stack 0
   173                           
   174                           ; 120 bytes @ 0x0
   175  000600                     	ds	120
   176  000678                     fuzzy_system_single2@y:
   177                           	opt stack 0
   178  000678                     fuzzy_system_single1@y:
   179                           	opt stack 0
   180                           
   181                           ; 120 bytes @ 0x78
   182  000678                     	ds	120
   183                           tblptru	equ	0xFF8
   184                           tblptrh	equ	0xFF7
   185                           tblptrl	equ	0xFF6
   186                           tablat	equ	0xFF5
   187                           
   188                           	psect	cstackBANK5
   189  000500                     __pcstackBANK5:
   190                           	opt stack 0
   191  000500                     fuzzy_system_single2@cons_mf3:
   192                           	opt stack 0
   193  000500                     fuzzy_system_single1@cons_mf3:
   194                           	opt stack 0
   195                           
   196                           ; 120 bytes @ 0x0
   197  000500                     	ds	120
   198  000578                     fuzzy_system_single2@overall_out_mf:
   199                           	opt stack 0
   200  000578                     fuzzy_system_single1@overall_out_mf:
   201                           	opt stack 0
   202                           
   203                           ; 120 bytes @ 0x78
   204  000578                     	ds	120
   205                           tblptru	equ	0xFF8
   206                           tblptrh	equ	0xFF7
   207                           tblptrl	equ	0xFF6
   208                           tablat	equ	0xFF5
   209                           
   210                           	psect	cstackBANK4
   211  000400                     __pcstackBANK4:
   212                           	opt stack 0
   213  000400                     fuzzy_system_single2@qualified_cons_mf3:
   214                           	opt stack 0
   215  000400                     fuzzy_system_single1@qualified_cons_mf3:
   216                           	opt stack 0
   217                           
   218                           ; 120 bytes @ 0x0
   219  000400                     	ds	120
   220  000478                     fuzzy_system_single2@qualified_cons_mf2:
   221                           	opt stack 0
   222  000478                     fuzzy_system_single1@qualified_cons_mf2:
   223                           	opt stack 0
   224                           
   225                           ; 120 bytes @ 0x78
   226  000478                     	ds	120
   227                           tblptru	equ	0xFF8
   228                           tblptrh	equ	0xFF7
   229                           tblptrl	equ	0xFF6
   230                           tablat	equ	0xFF5
   231                           
   232                           	psect	cstackBANK3
   233  000300                     __pcstackBANK3:
   234                           	opt stack 0
   235  000300                     fuzzy_system_single2@cons_mf1:
   236                           	opt stack 0
   237  000300                     fuzzy_system_single1@cons_mf1:
   238                           	opt stack 0
   239                           
   240                           ; 120 bytes @ 0x0
   241  000300                     	ds	120
   242  000378                     fuzzy_system_single2@qualified_cons_mf1:
   243                           	opt stack 0
   244  000378                     fuzzy_system_single1@qualified_cons_mf1:
   245                           	opt stack 0
   246                           
   247                           ; 120 bytes @ 0x78
   248  000378                     	ds	120
   249                           tblptru	equ	0xFF8
   250                           tblptrh	equ	0xFF7
   251                           tblptrl	equ	0xFF6
   252                           tablat	equ	0xFF5
   253                           
   254                           	psect	cstackBANK2
   255  000200                     __pcstackBANK2:
   256                           	opt stack 0
   257  000200                     fuzzy_system_single2@cons_mf2:
   258                           	opt stack 0
   259  000200                     fuzzy_system_single1@cons_mf2:
   260                           	opt stack 0
   261                           
   262                           ; 120 bytes @ 0x0
   263  000200                     	ds	120
   264  000278                     fuzzy_system_single2@ante_mf3:
   265                           	opt stack 0
   266  000278                     fuzzy_system_single1@ante_mf3:
   267                           	opt stack 0
   268                           
   269                           ; 120 bytes @ 0x78
   270  000278                     	ds	120
   271                           tblptru	equ	0xFF8
   272                           tblptrh	equ	0xFF7
   273                           tblptrl	equ	0xFF6
   274                           tablat	equ	0xFF5
   275                           
   276                           	psect	cstackBANK1
   277  000100                     __pcstackBANK1:
   278                           	opt stack 0
   279  000100                     fuzzy_system_single2@ante_mf1:
   280                           	opt stack 0
   281  000100                     fuzzy_system_single1@ante_mf1:
   282                           	opt stack 0
   283                           
   284                           ; 120 bytes @ 0x0
   285  000100                     	ds	120
   286  000178                     fuzzy_system_single2@ante_mf2:
   287                           	opt stack 0
   288  000178                     fuzzy_system_single1@ante_mf2:
   289                           	opt stack 0
   290                           
   291                           ; 120 bytes @ 0x78
   292  000178                     	ds	120
   293                           tblptru	equ	0xFF8
   294                           tblptrh	equ	0xFF7
   295                           tblptrl	equ	0xFF6
   296                           tablat	equ	0xFF5
   297                           
   298                           	psect	cstackBANK0
   299  000060                     __pcstackBANK0:
   300                           	opt stack 0
   301  000060                     tri_mf@temp:
   302                           	opt stack 0
   303                           
   304                           ; 120 bytes @ 0x0
   305  000060                     	ds	120
   306  0000D8                     tri_mf@i:
   307                           	opt stack 0
   308                           
   309                           ; 2 bytes @ 0x78
   310  0000D8                     	ds	2
   311  0000DA                     fuzzy_system_single2@output:
   312                           	opt stack 0
   313  0000DA                     fuzzy_system_single1@output:
   314                           	opt stack 0
   315                           
   316                           ; 3 bytes @ 0x7A
   317  0000DA                     	ds	3
   318  0000DD                     ??_main:
   319                           
   320                           ; 0 bytes @ 0x7D
   321  0000DD                     	ds	4
   322  0000E1                     main@a:
   323                           	opt stack 0
   324                           
   325                           ; 3 bytes @ 0x81
   326  0000E1                     	ds	3
   327  0000E4                     main@b:
   328                           	opt stack 0
   329                           
   330                           ; 3 bytes @ 0x84
   331  0000E4                     	ds	3
   332  0000E7                     _main$1522:
   333                           	opt stack 0
   334                           
   335                           ; 3 bytes @ 0x87
   336  0000E7                     	ds	3
   337  0000EA                     _main$1523:
   338                           	opt stack 0
   339                           
   340                           ; 3 bytes @ 0x8A
   341  0000EA                     	ds	3
   342  0000ED                     main@sensed:
   343                           	opt stack 0
   344                           
   345                           ; 2 bytes @ 0x8D
   346  0000ED                     	ds	2
   347                           tblptru	equ	0xFF8
   348                           tblptrh	equ	0xFF7
   349                           tblptrl	equ	0xFF6
   350                           tablat	equ	0xFF5
   351                           
   352                           	psect	cstackCOMRAM
   353  000001                     __pcstackCOMRAM:
   354                           	opt stack 0
   355  000001                     ??_OpenPWM2:
   356  000001                     ?_getCNY70Value:
   357                           	opt stack 0
   358  000001                     ?___wmul:
   359                           	opt stack 0
   360  000001                     ?___ftpack:
   361                           	opt stack 0
   362  000001                     ?___ftneg:
   363                           	opt stack 0
   364  000001                     OpenPWM1@period:
   365                           	opt stack 0
   366  000001                     SetDCPWM1@dutycycle:
   367                           	opt stack 0
   368  000001                     SetDCPWM2@dutycycle:
   369                           	opt stack 0
   370  000001                     ___wmul@multiplier:
   371                           	opt stack 0
   372  000001                     ___ftpack@arg:
   373                           	opt stack 0
   374  000001                     ___ftneg@f1:
   375                           	opt stack 0
   376                           
   377                           ; 3 bytes @ 0x0
   378  000001                     	ds	1
   379  000002                     PWM_init1@period:
   380                           	opt stack 0
   381  000002                     OpenPWM2@period:
   382                           	opt stack 0
   383                           
   384                           ; 1 bytes @ 0x1
   385  000002                     	ds	1
   386  000003                     ??_SetDCPWM1:
   387  000003                     ??_SetDCPWM2:
   388  000003                     OpenPWM2@ccp2mx:
   389                           	opt stack 0
   390  000003                     ___wmul@multiplicand:
   391                           	opt stack 0
   392                           
   393                           ; 2 bytes @ 0x2
   394  000003                     	ds	1
   395  000004                     PWM_init2@period:
   396                           	opt stack 0
   397  000004                     ___ftpack@exp:
   398                           	opt stack 0
   399                           
   400                           ; 1 bytes @ 0x3
   401  000004                     	ds	1
   402  000005                     ___ftpack@sign:
   403                           	opt stack 0
   404  000005                     SetDCPWM1@DCycle:
   405                           	opt stack 0
   406  000005                     SetDCPWM2@DCycle:
   407                           	opt stack 0
   408  000005                     ___wmul@product:
   409                           	opt stack 0
   410                           
   411                           ; 2 bytes @ 0x4
   412  000005                     	ds	1
   413  000006                     ??___ftpack:
   414                           
   415                           ; 0 bytes @ 0x5
   416  000006                     	ds	1
   417  000007                     ___ftge@ff1:
   418                           	opt stack 0
   419                           
   420                           ; 3 bytes @ 0x6
   421  000007                     	ds	2
   422  000009                     ?___awtoft:
   423                           	opt stack 0
   424  000009                     ?___lbtoft:
   425                           	opt stack 0
   426  000009                     ___awtoft@c:
   427                           	opt stack 0
   428                           
   429                           ; 2 bytes @ 0x8
   430  000009                     	ds	1
   431  00000A                     ___ftge@ff2:
   432                           	opt stack 0
   433                           
   434                           ; 3 bytes @ 0x9
   435  00000A                     	ds	2
   436  00000C                     ___awtoft@sign:
   437                           	opt stack 0
   438  00000C                     ___lbtoft@c:
   439                           	opt stack 0
   440                           
   441                           ; 1 bytes @ 0xB
   442  00000C                     	ds	1
   443  00000D                     ??___ftge:
   444  00000D                     ?___ftmul:
   445                           	opt stack 0
   446  00000D                     ___ftmul@f1:
   447                           	opt stack 0
   448                           
   449                           ; 3 bytes @ 0xC
   450  00000D                     	ds	3
   451  000010                     qualified@y:
   452                           	opt stack 0
   453  000010                     out_mf@result:
   454                           	opt stack 0
   455  000010                     ___ftmul@f2:
   456                           	opt stack 0
   457                           
   458                           ; 3 bytes @ 0xF
   459  000010                     	ds	2
   460  000012                     qualified@x:
   461                           	opt stack 0
   462  000012                     out_mf@x:
   463                           	opt stack 0
   464                           
   465                           ; 2 bytes @ 0x11
   466  000012                     	ds	1
   467  000013                     ??___ftmul:
   468                           
   469                           ; 0 bytes @ 0x12
   470  000013                     	ds	1
   471  000014                     out_mf@y:
   472                           	opt stack 0
   473  000014                     qualified@w:
   474                           	opt stack 0
   475                           
   476                           ; 3 bytes @ 0x13
   477  000014                     	ds	2
   478  000016                     ___ftmul@exp:
   479                           	opt stack 0
   480  000016                     out_mf@z:
   481                           	opt stack 0
   482                           
   483                           ; 2 bytes @ 0x15
   484  000016                     	ds	1
   485  000017                     qualified@min:
   486                           	opt stack 0
   487  000017                     ___ftmul@f3_as_product:
   488                           	opt stack 0
   489                           
   490                           ; 3 bytes @ 0x16
   491  000017                     	ds	1
   492  000018                     out_mf@i:
   493                           	opt stack 0
   494                           
   495                           ; 2 bytes @ 0x17
   496  000018                     	ds	2
   497  00001A                     ___ftmul@cntr:
   498                           	opt stack 0
   499  00001A                     qualified@i:
   500                           	opt stack 0
   501                           
   502                           ; 2 bytes @ 0x19
   503  00001A                     	ds	1
   504  00001B                     ___ftmul@sign:
   505                           	opt stack 0
   506                           
   507                           ; 1 bytes @ 0x1A
   508  00001B                     	ds	1
   509  00001C                     ?___ftadd:
   510                           	opt stack 0
   511  00001C                     ?___fttol:
   512                           	opt stack 0
   513  00001C                     ___ftadd@f1:
   514                           	opt stack 0
   515  00001C                     ___fttol@f1:
   516                           	opt stack 0
   517                           
   518                           ; 3 bytes @ 0x1B
   519  00001C                     	ds	3
   520  00001F                     ___ftadd@f2:
   521                           	opt stack 0
   522                           
   523                           ; 3 bytes @ 0x1E
   524  00001F                     	ds	1
   525  000020                     ??___fttol:
   526                           
   527                           ; 0 bytes @ 0x1F
   528  000020                     	ds	2
   529  000022                     ??___ftadd:
   530                           
   531                           ; 0 bytes @ 0x21
   532  000022                     	ds	3
   533  000025                     ___ftadd@sign:
   534                           	opt stack 0
   535  000025                     ___fttol@sign1:
   536                           	opt stack 0
   537                           
   538                           ; 1 bytes @ 0x24
   539  000025                     	ds	1
   540  000026                     ___ftadd@exp2:
   541                           	opt stack 0
   542  000026                     ___fttol@lval:
   543                           	opt stack 0
   544                           
   545                           ; 4 bytes @ 0x25
   546  000026                     	ds	1
   547  000027                     ___ftadd@exp1:
   548                           	opt stack 0
   549                           
   550                           ; 1 bytes @ 0x26
   551  000027                     	ds	1
   552  000028                     ?___ftdiv:
   553                           	opt stack 0
   554  000028                     ___ftdiv@f1:
   555                           	opt stack 0
   556                           
   557                           ; 3 bytes @ 0x27
   558  000028                     	ds	2
   559  00002A                     ___fttol@exp1:
   560                           	opt stack 0
   561                           
   562                           ; 1 bytes @ 0x29
   563  00002A                     	ds	1
   564  00002B                     ??_PWM_DutyCycle1:
   565  00002B                     ??_PWM_DutyCycle2:
   566  00002B                     ___ftdiv@f2:
   567                           	opt stack 0
   568                           
   569                           ; 3 bytes @ 0x2A
   570  00002B                     	ds	3
   571  00002E                     ??___ftdiv:
   572                           
   573                           ; 0 bytes @ 0x2D
   574  00002E                     	ds	1
   575  00002F                     PWM_DutyCycle1@DutyCycle:
   576                           	opt stack 0
   577  00002F                     PWM_DutyCycle2@DutyCycle:
   578                           	opt stack 0
   579                           
   580                           ; 2 bytes @ 0x2E
   581  00002F                     	ds	2
   582  000031                     PWM_DutyCycle1@percentageDuty:
   583                           	opt stack 0
   584  000031                     PWM_DutyCycle2@percentageDuty:
   585                           	opt stack 0
   586  000031                     ___ftdiv@cntr:
   587                           	opt stack 0
   588                           
   589                           ; 1 bytes @ 0x30
   590  000031                     	ds	1
   591  000032                     PWM_DutyCycle1@DC:
   592                           	opt stack 0
   593  000032                     PWM_DutyCycle2@DC:
   594                           	opt stack 0
   595  000032                     ___ftdiv@f3:
   596                           	opt stack 0
   597                           
   598                           ; 3 bytes @ 0x31
   599  000032                     	ds	2
   600  000034                     ??_mcu_init:
   601  000034                     go_back@m_left:
   602                           	opt stack 0
   603                           
   604                           ; 1 bytes @ 0x33
   605  000034                     	ds	1
   606  000035                     go_back@m_right:
   607                           	opt stack 0
   608  000035                     ___ftdiv@exp:
   609                           	opt stack 0
   610  000035                     mcu_init@i:
   611                           	opt stack 0
   612                           
   613                           ; 2 bytes @ 0x34
   614  000035                     	ds	1
   615  000036                     ___ftdiv@sign:
   616                           	opt stack 0
   617                           
   618                           ; 1 bytes @ 0x35
   619  000036                     	ds	1
   620  000037                     ?_triangular:
   621                           	opt stack 0
   622  000037                     ?_defuzzy:
   623                           	opt stack 0
   624  000037                     linspace@x:
   625                           	opt stack 0
   626  000037                     defuzzy@x:
   627                           	opt stack 0
   628  000037                     triangular@a:
   629                           	opt stack 0
   630                           
   631                           ; 3 bytes @ 0x36
   632  000037                     	ds	2
   633  000039                     defuzzy@mf:
   634                           	opt stack 0
   635  000039                     linspace@start:
   636                           	opt stack 0
   637                           
   638                           ; 3 bytes @ 0x38
   639  000039                     	ds	1
   640  00003A                     triangular@b:
   641                           	opt stack 0
   642                           
   643                           ; 3 bytes @ 0x39
   644  00003A                     	ds	1
   645  00003B                     defuzzy@out:
   646                           	opt stack 0
   647                           
   648                           ; 3 bytes @ 0x3A
   649  00003B                     	ds	1
   650  00003C                     linspace@end:
   651                           	opt stack 0
   652                           
   653                           ; 3 bytes @ 0x3B
   654  00003C                     	ds	1
   655  00003D                     triangular@c:
   656                           	opt stack 0
   657                           
   658                           ; 3 bytes @ 0x3C
   659  00003D                     	ds	1
   660  00003E                     defuzzy@sum1:
   661                           	opt stack 0
   662                           
   663                           ; 3 bytes @ 0x3D
   664  00003E                     	ds	1
   665  00003F                     linspace@size:
   666                           	opt stack 0
   667                           
   668                           ; 2 bytes @ 0x3E
   669  00003F                     	ds	1
   670  000040                     triangular@x:
   671                           	opt stack 0
   672                           
   673                           ; 3 bytes @ 0x3F
   674  000040                     	ds	1
   675  000041                     ??_linspace:
   676  000041                     defuzzy@sum2:
   677                           	opt stack 0
   678                           
   679                           ; 3 bytes @ 0x40
   680  000041                     	ds	2
   681  000043                     linspace@i:
   682                           	opt stack 0
   683  000043                     triangular@ux:
   684                           	opt stack 0
   685                           
   686                           ; 3 bytes @ 0x42
   687  000043                     	ds	1
   688  000044                     defuzzy@i:
   689                           	opt stack 0
   690                           
   691                           ; 2 bytes @ 0x43
   692  000044                     	ds	2
   693  000046                     tri_mf@t_value:
   694                           	opt stack 0
   695                           
   696                           ; 2 bytes @ 0x45
   697  000046                     	ds	2
   698  000048                     tri_mf@x:
   699                           	opt stack 0
   700                           
   701                           ; 2 bytes @ 0x47
   702  000048                     	ds	2
   703  00004A                     tri_mf@a:
   704                           	opt stack 0
   705                           
   706                           ; 3 bytes @ 0x49
   707  00004A                     	ds	3
   708  00004D                     tri_mf@b:
   709                           	opt stack 0
   710                           
   711                           ; 3 bytes @ 0x4C
   712  00004D                     	ds	3
   713  000050                     tri_mf@c:
   714                           	opt stack 0
   715                           
   716                           ; 3 bytes @ 0x4F
   717  000050                     	ds	3
   718  000053                     ?_fuzzy_system_single1:
   719                           	opt stack 0
   720  000053                     ?_fuzzy_system_single2:
   721                           	opt stack 0
   722  000053                     fuzzy_system_single2@input:
   723                           	opt stack 0
   724  000053                     fuzzy_system_single1@input:
   725                           	opt stack 0
   726                           
   727                           ; 3 bytes @ 0x52
   728  000053                     	ds	3
   729  000056                     fuzzy_system_single2@w1:
   730                           	opt stack 0
   731  000056                     fuzzy_system_single1@w1:
   732                           	opt stack 0
   733                           
   734                           ; 3 bytes @ 0x55
   735  000056                     	ds	3
   736  000059                     fuzzy_system_single2@w2:
   737                           	opt stack 0
   738  000059                     fuzzy_system_single1@w2:
   739                           	opt stack 0
   740                           
   741                           ; 3 bytes @ 0x58
   742  000059                     	ds	3
   743  00005C                     fuzzy_system_single2@w3:
   744                           	opt stack 0
   745  00005C                     fuzzy_system_single1@w3:
   746                           	opt stack 0
   747                           
   748                           ; 3 bytes @ 0x5B
   749  00005C                     	ds	3
   750                           tblptru	equ	0xFF8
   751                           tblptrh	equ	0xFF7
   752                           tblptrl	equ	0xFF6
   753                           tablat	equ	0xFF5
   754                           
   755 ;;
   756 ;;Main: autosize = 0, tempsize = 4, incstack = 0, save=0
   757 ;;
   758 ;; *************** function _main *****************
   759 ;; Defined at:
   760 ;;		line 25 in file "main.c"
   761 ;; Parameters:    Size  Location     Type
   762 ;;		None
   763 ;; Auto vars:     Size  Location     Type
   764 ;;  b               3  132[BANK0 ] PTR 
   765 ;;  a               3  129[BANK0 ] PTR 
   766 ;;  sensed          2  141[BANK0 ] int 
   767 ;; Return value:  Size  Location     Type
   768 ;;                  2   22[COMRAM] int 
   769 ;; Registers used:
   770 ;;		wreg, fsr1l, fsr1h, fsr2l, fsr2h, status,2, status,0, tblptrl, tblptrh, tblptru, prodl, prodh, cstack
   771 ;; Tracked objects:
   772 ;;		On entry : 0/0
   773 ;;		On exit  : 0/0
   774 ;;		Unchanged: 0/0
   775 ;; Data sizes:     COMRAM   BANK0   BANK1   BANK2   BANK3   BANK4   BANK5   BANK6   BANK7
   776 ;;      Params:         0       0       0       0       0       0       0       0       0
   777 ;;      Locals:         0      14       0       0       0       0       0       0       0
   778 ;;      Temps:          0       4       0       0       0       0       0       0       0
   779 ;;      Totals:         0      18       0       0       0       0       0       0       0
   780 ;;Total ram usage:       18 bytes
   781 ;; Hardware stack levels required when called:    5
   782 ;; This function calls:
   783 ;;		_PWM_DutyCycle1
   784 ;;		___awtoft
   785 ;;		___fttol
   786 ;;		_fuzzy_system_single1
   787 ;;		_fuzzy_system_single2
   788 ;;		_getCNY70Value
   789 ;;		_go_back
   790 ;;		_mcu_init
   791 ;;		_motor_forward
   792 ;; This function is called by:
   793 ;;		Startup code after reset
   794 ;; This function uses a non-reentrant model
   795 ;;
   796                           
   797                           	psect	text0
   798  006E96                     __ptext0:
   799                           	opt stack 0
   800  006E96                     _main:
   801                           	opt stack 26
   802                           
   803                           ;main.c: 28: mcu_init();
   804                           
   805                           ;incstack = 0
   806  006E96  EC91  F034         	call	_mcu_init	;wreg free
   807                           
   808                           ;main.c: 29: ADCON1bits.PCFG=0b1111;
   809  006E9A  80C1               	bsf	4033,0,c	;volatile
   810  006E9C  82C1               	bsf	4033,1,c	;volatile
   811  006E9E  84C1               	bsf	4033,2,c	;volatile
   812  006EA0  86C1               	bsf	4033,3,c	;volatile
   813                           
   814                           ;main.c: 30: PORTAbits.RA0 = 1;
   815  006EA2  8080               	bsf	3968,0,c	;volatile
   816  006EA4                     l2659:
   817                           
   818                           ;main.c: 34: double a, b;
   819                           ;main.c: 35: int sensed;
   820                           ;main.c: 38: sensed = getCNY70Value();
   821  006EA4  EC34  F035         	call	_getCNY70Value	;wreg free
   822  006EA8  C001  F0ED         	movff	?_getCNY70Value,main@sensed
   823  006EAC  C002  F0EE         	movff	?_getCNY70Value+1,main@sensed+1
   824                           
   825                           ;main.c: 39: a = fuzzy_system_single1(sensed);
   826  006EB0  C0ED  F009         	movff	main@sensed,___awtoft@c
   827  006EB4  C0EE  F00A         	movff	main@sensed+1,___awtoft@c+1
   828  006EB8  ECBB  F033         	call	___awtoft	;wreg free
   829  006EBC  C009  F0E7         	movff	?___awtoft,_main$1522
   830  006EC0  C00A  F0E8         	movff	?___awtoft+1,_main$1522+1
   831  006EC4  C00B  F0E9         	movff	?___awtoft+2,_main$1522+2
   832                           
   833                           ;main.c: 39: a = fuzzy_system_single1(sensed);
   834  006EC8  C0E7  F053         	movff	_main$1522,fuzzy_system_single1@input
   835  006ECC  C0E8  F054         	movff	_main$1522+1,fuzzy_system_single1@input+1
   836  006ED0  C0E9  F055         	movff	_main$1522+2,fuzzy_system_single1@input+2
   837  006ED4  EC7E  F03C         	call	_fuzzy_system_single1	;wreg free
   838  006ED8  C053  F0E1         	movff	?_fuzzy_system_single1,main@a
   839  006EDC  C054  F0E2         	movff	?_fuzzy_system_single1+1,main@a+1
   840  006EE0  C055  F0E3         	movff	?_fuzzy_system_single1+2,main@a+2
   841                           
   842                           ;main.c: 40: b = fuzzy_system_single2(sensed);
   843  006EE4  C0ED  F009         	movff	main@sensed,___awtoft@c
   844  006EE8  C0EE  F00A         	movff	main@sensed+1,___awtoft@c+1
   845  006EEC  ECBB  F033         	call	___awtoft	;wreg free
   846  006EF0  C009  F0EA         	movff	?___awtoft,_main$1523
   847  006EF4  C00A  F0EB         	movff	?___awtoft+1,_main$1523+1
   848  006EF8  C00B  F0EC         	movff	?___awtoft+2,_main$1523+2
   849                           
   850                           ;main.c: 40: b = fuzzy_system_single2(sensed);
   851  006EFC  C0EA  F053         	movff	_main$1523,fuzzy_system_single2@input
   852  006F00  C0EB  F054         	movff	_main$1523+1,fuzzy_system_single2@input+1
   853  006F04  C0EC  F055         	movff	_main$1523+2,fuzzy_system_single2@input+2
   854  006F08  EC3F  F03E         	call	_fuzzy_system_single2	;wreg free
   855  006F0C  C053  F0E4         	movff	?_fuzzy_system_single2,main@b
   856  006F10  C054  F0E5         	movff	?_fuzzy_system_single2+1,main@b+1
   857  006F14  C055  F0E6         	movff	?_fuzzy_system_single2+2,main@b+2
   858                           
   859                           ;main.c: 42: if(PORTBbits.RB2 == 1 && PORTBbits.RB3 == 1 && PORTBbits.RB0 == 1 && PORTBb
      +                          its.RB4 == 1 && PORTBbits.RB1 == 1){
   860  006F18  B481               	btfsc	3969,2,c	;volatile
   861  006F1A  A681               	btfss	3969,3,c	;volatile
   862  006F1C  D00B               	goto	l2681
   863  006F1E  B081               	btfsc	3969,0,c	;volatile
   864  006F20  A881               	btfss	3969,4,c	;volatile
   865  006F22  D008               	goto	l2681
   866  006F24  A281               	btfss	3969,1,c	;volatile
   867  006F26  D006               	goto	l2681
   868                           
   869                           ;main.c: 43: go_back(100,100);
   870  006F28  0E64               	movlw	100
   871  006F2A  6E34               	movwf	go_back@m_left,c
   872  006F2C  0E64               	movlw	100
   873  006F2E  ECEF  F032         	call	_go_back
   874                           
   875                           ;main.c: 44: }
   876  006F32  D7B8               	goto	l2659
   877  006F34                     l2681:
   878                           
   879                           ;main.c: 45: else{
   880                           ;main.c: 46: motor_forward();
   881  006F34  ECE1  F032         	call	_motor_forward	;wreg free
   882                           
   883                           ;main.c: 47: PWM_DutyCycle1(a);
   884  006F38  C0E1  F01C         	movff	main@a,___fttol@f1
   885  006F3C  C0E2  F01D         	movff	main@a+1,___fttol@f1+1
   886  006F40  C0E3  F01E         	movff	main@a+2,___fttol@f1+2
   887  006F44  EC90  F035         	call	___fttol	;wreg free
   888  006F48  C01C  F0DD         	movff	?___fttol,??_main
   889  006F4C  C01D  F0DE         	movff	?___fttol+1,??_main+1
   890  006F50  C01E  F0DF         	movff	?___fttol+2,??_main+2
   891  006F54  C01F  F0E0         	movff	?___fttol+3,??_main+3
   892  006F58  0100               	movlb	0	; () banked
   893  006F5A  51DD               	movf	??_main& (0+255),w,b
   894  006F5C  ECDF  F033         	call	_PWM_DutyCycle1
   895                           
   896                           ;main.c: 48: PWM_DutyCycle1(b);
   897  006F60  C0E4  F01C         	movff	main@b,___fttol@f1
   898  006F64  C0E5  F01D         	movff	main@b+1,___fttol@f1+1
   899  006F68  C0E6  F01E         	movff	main@b+2,___fttol@f1+2
   900  006F6C  EC90  F035         	call	___fttol	;wreg free
   901  006F70  C01C  F0DD         	movff	?___fttol,??_main
   902  006F74  C01D  F0DE         	movff	?___fttol+1,??_main+1
   903  006F78  C01E  F0DF         	movff	?___fttol+2,??_main+2
   904  006F7C  C01F  F0E0         	movff	?___fttol+3,??_main+3
   905  006F80  0100               	movlb	0	; () banked
   906  006F82  51DD               	movf	??_main& (0+255),w,b
   907  006F84  ECDF  F033         	call	_PWM_DutyCycle1
   908  006F88  D78D               	goto	l2659
   909  006F8A                     __end_of_main:
   910                           	opt stack 0
   911                           tblptru	equ	0xFF8
   912                           tblptrh	equ	0xFF7
   913                           tblptrl	equ	0xFF6
   914                           tablat	equ	0xFF5
   915                           
   916 ;; *************** function _motor_forward *****************
   917 ;; Defined at:
   918 ;;		line 47 in file "motor.c"
   919 ;; Parameters:    Size  Location     Type
   920 ;;		None
   921 ;; Auto vars:     Size  Location     Type
   922 ;;		None
   923 ;; Return value:  Size  Location     Type
   924 ;;		None               void
   925 ;; Registers used:
   926 ;;		None
   927 ;; Tracked objects:
   928 ;;		On entry : 0/0
   929 ;;		On exit  : 0/0
   930 ;;		Unchanged: 0/0
   931 ;; Data sizes:     COMRAM   BANK0   BANK1   BANK2   BANK3   BANK4   BANK5   BANK6   BANK7
   932 ;;      Params:         0       0       0       0       0       0       0       0       0
   933 ;;      Locals:         0       0       0       0       0       0       0       0       0
   934 ;;      Temps:          0       0       0       0       0       0       0       0       0
   935 ;;      Totals:         0       0       0       0       0       0       0       0       0
   936 ;;Total ram usage:        0 bytes
   937 ;; Hardware stack levels used:    1
   938 ;; This function calls:
   939 ;;		Nothing
   940 ;; This function is called by:
   941 ;;		_main
   942 ;;		_go_straight
   943 ;; This function uses a non-reentrant model
   944 ;;
   945                           
   946                           	psect	text1
   947  0065C2                     __ptext1:
   948                           	opt stack 0
   949  0065C2                     _motor_forward:
   950                           	opt stack 30
   951                           
   952                           ;motor.c: 49: PORTDbits.RD7 = 1;
   953                           
   954                           ;incstack = 0
   955  0065C2  8E83               	bsf	3971,7,c	;volatile
   956                           
   957                           ;motor.c: 50: PORTDbits.RD4 = 0;
   958  0065C4  9883               	bcf	3971,4,c	;volatile
   959                           
   960                           ;motor.c: 51: PORTDbits.RD2 = 1;
   961  0065C6  8483               	bsf	3971,2,c	;volatile
   962                           
   963                           ;motor.c: 52: PORTDbits.RD3 = 0;
   964  0065C8  9683               	bcf	3971,3,c	;volatile
   965                           
   966                           ;motor.c: 54: return;
   967  0065CA  0012               	return	
   968  0065CC                     __end_of_motor_forward:
   969                           	opt stack 0
   970                           tblptru	equ	0xFF8
   971                           tblptrh	equ	0xFF7
   972                           tblptrl	equ	0xFF6
   973                           tablat	equ	0xFF5
   974                           
   975 ;; *************** function _mcu_init *****************
   976 ;; Defined at:
   977 ;;		line 14 in file "funciones.c"
   978 ;; Parameters:    Size  Location     Type
   979 ;;		None
   980 ;; Auto vars:     Size  Location     Type
   981 ;;  i               2   52[COMRAM] int 
   982 ;; Return value:  Size  Location     Type
   983 ;;                  2    2[COMRAM] int 
   984 ;; Registers used:
   985 ;;		wreg, status,2, status,0, tblptrl, tblptrh, tblptru, cstack
   986 ;; Tracked objects:
   987 ;;		On entry : 0/0
   988 ;;		On exit  : 0/0
   989 ;;		Unchanged: 0/0
   990 ;; Data sizes:     COMRAM   BANK0   BANK1   BANK2   BANK3   BANK4   BANK5   BANK6   BANK7
   991 ;;      Params:         0       0       0       0       0       0       0       0       0
   992 ;;      Locals:         2       0       0       0       0       0       0       0       0
   993 ;;      Temps:          1       0       0       0       0       0       0       0       0
   994 ;;      Totals:         3       0       0       0       0       0       0       0       0
   995 ;;Total ram usage:        3 bytes
   996 ;; Hardware stack levels used:    1
   997 ;; Hardware stack levels required when called:    3
   998 ;; This function calls:
   999 ;;		_PWM_DutyCycle1
  1000 ;;		_PWM_DutyCycle2
  1001 ;;		_PWM_init1
  1002 ;;		_PWM_init2
  1003 ;; This function is called by:
  1004 ;;		_main
  1005 ;; This function uses a non-reentrant model
  1006 ;;
  1007                           
  1008                           	psect	text2
  1009  006922                     __ptext2:
  1010                           	opt stack 0
  1011  006922                     _mcu_init:
  1012                           	opt stack 27
  1013                           
  1014                           ;funciones.c: 16: TRISA=TRISB=TRISC=TRISD=TRISE=0;
  1015                           
  1016                           ;incstack = 0
  1017  006922  0E00               	movlw	0
  1018  006924  6E96               	movwf	3990,c	;volatile
  1019  006926  CF96 FF95          	movff	3990,3989	;volatile
  1020  00692A  CF95 FF94          	movff	3989,3988	;volatile
  1021  00692E  CF94 FF93          	movff	3988,3987	;volatile
  1022  006932  CF93 FF92          	movff	3987,3986	;volatile
  1023                           
  1024                           ;funciones.c: 17: PORTA=PORTB=PORTC=PORTD=PORTE=0;
  1025  006936  0E00               	movlw	0
  1026  006938  6E84               	movwf	3972,c	;volatile
  1027  00693A  CF84 FF83          	movff	3972,3971	;volatile
  1028  00693E  CF83 FF82          	movff	3971,3970	;volatile
  1029  006942  CF82 FF81          	movff	3970,3969	;volatile
  1030  006946  CF81 FF80          	movff	3969,3968	;volatile
  1031                           
  1032                           ;funciones.c: 21: int i = 0;
  1033  00694A  0E00               	movlw	0
  1034  00694C  6E36               	movwf	mcu_init@i+1,c
  1035  00694E  0E00               	movlw	0
  1036  006950  6E35               	movwf	mcu_init@i,c
  1037                           
  1038                           ;funciones.c: 22: _delay((unsigned long)((40)*(8000000/4000.0)));
  1039  006952  0E68               	movlw	104
  1040  006954  6E34               	movwf	??_mcu_init& (0+255),c
  1041  006956  0EE4               	movlw	228
  1042  006958                     u3017:
  1043  006958  2EE8               	decfsz	wreg,f,c
  1044  00695A  D7FE               	goto	u3017
  1045  00695C  2E34               	decfsz	??_mcu_init& (0+255),f,c
  1046  00695E  D7FC               	goto	u3017
  1047  006960  D000               	nop2	
  1048                           
  1049                           ;funciones.c: 23: OSCCONbits.IRCF = 0b111;
  1050  006962  88D3               	bsf	4051,4,c	;volatile
  1051  006964  8AD3               	bsf	4051,5,c	;volatile
  1052  006966  8CD3               	bsf	4051,6,c	;volatile
  1053                           
  1054                           ;funciones.c: 28: TRISA = TRISB = TRISC = TRISD = TRISE = 0;
  1055  006968  0E00               	movlw	0
  1056  00696A  6E96               	movwf	3990,c	;volatile
  1057  00696C  CF96 FF95          	movff	3990,3989	;volatile
  1058  006970  CF95 FF94          	movff	3989,3988	;volatile
  1059  006974  CF94 FF93          	movff	3988,3987	;volatile
  1060  006978  CF93 FF92          	movff	3987,3986	;volatile
  1061                           
  1062                           ;funciones.c: 29: PORTA = PORTB = PORTC = PORTD = PORTE = 0;
  1063  00697C  0E00               	movlw	0
  1064  00697E  6E84               	movwf	3972,c	;volatile
  1065  006980  CF84 FF83          	movff	3972,3971	;volatile
  1066  006984  CF83 FF82          	movff	3971,3970	;volatile
  1067  006988  CF82 FF81          	movff	3970,3969	;volatile
  1068  00698C  CF81 FF80          	movff	3969,3968	;volatile
  1069                           
  1070                           ;funciones.c: 30: TRISCbits.TRISC7 = 1;
  1071  006990  8E94               	bsf	3988,7,c	;volatile
  1072                           
  1073                           ;funciones.c: 31: TRISCbits.TRISC6 = 0;
  1074  006992  9C94               	bcf	3988,6,c	;volatile
  1075                           
  1076                           ;funciones.c: 34: PORTE = 0;
  1077  006994  0E00               	movlw	0
  1078  006996  6E84               	movwf	3972,c	;volatile
  1079                           
  1080                           ;funciones.c: 35: PORTB = 0;
  1081  006998  0E00               	movlw	0
  1082  00699A  6E81               	movwf	3969,c	;volatile
  1083                           
  1084                           ;funciones.c: 36: TRISBbits.TRISB0 = 1;
  1085  00699C  8093               	bsf	3987,0,c	;volatile
  1086                           
  1087                           ;funciones.c: 37: TRISBbits.TRISB1 = 1;
  1088  00699E  8293               	bsf	3987,1,c	;volatile
  1089                           
  1090                           ;funciones.c: 38: TRISBbits.TRISB2 = 1;
  1091  0069A0  8493               	bsf	3987,2,c	;volatile
  1092                           
  1093                           ;funciones.c: 39: TRISBbits.TRISB3 = 1;
  1094  0069A2  8693               	bsf	3987,3,c	;volatile
  1095                           
  1096                           ;funciones.c: 40: TRISBbits.TRISB4 = 1;
  1097  0069A4  8893               	bsf	3987,4,c	;volatile
  1098                           
  1099                           ;funciones.c: 46: PWM_init1(0xff);
  1100  0069A6  0EFF               	movlw	255
  1101  0069A8  ECF9  F032         	call	_PWM_init1
  1102                           
  1103                           ;funciones.c: 47: PWM_init2(0xff);
  1104  0069AC  0EFF               	movlw	255
  1105  0069AE  EC08  F033         	call	_PWM_init2
  1106                           
  1107                           ;funciones.c: 48: PWM_DutyCycle1(0);
  1108  0069B2  0E00               	movlw	0
  1109  0069B4  ECDF  F033         	call	_PWM_DutyCycle1
  1110                           
  1111                           ;funciones.c: 49: PWM_DutyCycle2(0);
  1112  0069B8  0E00               	movlw	0
  1113  0069BA  EC14  F034         	call	_PWM_DutyCycle2
  1114                           
  1115                           ;funciones.c: 52: return;
  1116  0069BE  0012               	return	
  1117  0069C0                     __end_of_mcu_init:
  1118                           	opt stack 0
  1119                           tblptru	equ	0xFF8
  1120                           tblptrh	equ	0xFF7
  1121                           tblptrl	equ	0xFF6
  1122                           tablat	equ	0xFF5
  1123                           wreg	equ	0xFE8
  1124                           
  1125 ;; *************** function _PWM_init2 *****************
  1126 ;; Defined at:
  1127 ;;		line 42 in file "pwm.c"
  1128 ;; Parameters:    Size  Location     Type
  1129 ;;  period          1    wreg     unsigned char 
  1130 ;; Auto vars:     Size  Location     Type
  1131 ;;  period          1    3[COMRAM] unsigned char 
  1132 ;; Return value:  Size  Location     Type
  1133 ;;		None               void
  1134 ;; Registers used:
  1135 ;;		wreg, status,2, status,0, tblptrl, tblptrh, tblptru, cstack
  1136 ;; Tracked objects:
  1137 ;;		On entry : 0/0
  1138 ;;		On exit  : 0/0
  1139 ;;		Unchanged: 0/0
  1140 ;; Data sizes:     COMRAM   BANK0   BANK1   BANK2   BANK3   BANK4   BANK5   BANK6   BANK7
  1141 ;;      Params:         0       0       0       0       0       0       0       0       0
  1142 ;;      Locals:         1       0       0       0       0       0       0       0       0
  1143 ;;      Temps:          0       0       0       0       0       0       0       0       0
  1144 ;;      Totals:         1       0       0       0       0       0       0       0       0
  1145 ;;Total ram usage:        1 bytes
  1146 ;; Hardware stack levels used:    1
  1147 ;; Hardware stack levels required when called:    1
  1148 ;; This function calls:
  1149 ;;		_OpenPWM2
  1150 ;; This function is called by:
  1151 ;;		_mcu_init
  1152 ;; This function uses a non-reentrant model
  1153 ;;
  1154                           
  1155                           	psect	text3
  1156  006610                     __ptext3:
  1157                           	opt stack 0
  1158  006610                     _PWM_init2:
  1159                           	opt stack 28
  1160                           
  1161                           ;incstack = 0
  1162                           ;PWM_init2@period stored from wreg
  1163  006610  6E04               	movwf	PWM_init2@period,c
  1164                           
  1165                           ;pwm.c: 43: Timer2Config = 0b11111110;
  1166  006612  0EFE               	movlw	254
  1167  006614  6E5F               	movwf	_Timer2Config,c
  1168                           
  1169                           ;pwm.c: 44: T2CON = (0xfb & Timer2Config);
  1170  006616  505F               	movf	_Timer2Config,w,c
  1171  006618  0BFB               	andlw	251
  1172  00661A  6ECA               	movwf	4042,c	;volatile
  1173                           
  1174                           ;pwm.c: 47: TMR2 = 0;
  1175  00661C  0E00               	movlw	0
  1176  00661E  6ECC               	movwf	4044,c	;volatile
  1177                           
  1178                           ;pwm.c: 48: PIR1bits.TMR2IF = 0;
  1179  006620  929E               	bcf	3998,1,c	;volatile
  1180                           
  1181                           ;pwm.c: 49: PIE1bits.TMR2IE = 0;
  1182  006622  929D               	bcf	3997,1,c	;volatile
  1183                           
  1184                           ;pwm.c: 50: T2CONbits.TMR2ON = 1;
  1185  006624  84CA               	bsf	4042,2,c	;volatile
  1186                           
  1187                           ;pwm.c: 51: OpenPWM2(period);
  1188  006626  5004               	movf	PWM_init2@period,w,c
  1189  006628  EC9E  F033         	call	_OpenPWM2
  1190                           
  1191                           ;pwm.c: 53: return;
  1192  00662C  0012               	return	
  1193  00662E                     __end_of_PWM_init2:
  1194                           	opt stack 0
  1195                           tblptru	equ	0xFF8
  1196                           tblptrh	equ	0xFF7
  1197                           tblptrl	equ	0xFF6
  1198                           tablat	equ	0xFF5
  1199                           wreg	equ	0xFE8
  1200                           
  1201 ;; *************** function _OpenPWM2 *****************
  1202 ;; Defined at:
  1203 ;;		line 18 in file "C:\Program Files\Microchip\xc8\v1.33\sources\pic18\plib\PWM\pw2open.c"
  1204 ;; Parameters:    Size  Location     Type
  1205 ;;  period          1    wreg     unsigned char 
  1206 ;; Auto vars:     Size  Location     Type
  1207 ;;  period          1    1[COMRAM] unsigned char 
  1208 ;;  ccp2mx          1    2[COMRAM] unsigned char 
  1209 ;;  pmmode          1    0        unsigned char 
  1210 ;; Return value:  Size  Location     Type
  1211 ;;		None               void
  1212 ;; Registers used:
  1213 ;;		wreg, status,2, tblptrl, tblptrh, tblptru
  1214 ;; Tracked objects:
  1215 ;;		On entry : 0/0
  1216 ;;		On exit  : 0/0
  1217 ;;		Unchanged: 0/0
  1218 ;; Data sizes:     COMRAM   BANK0   BANK1   BANK2   BANK3   BANK4   BANK5   BANK6   BANK7
  1219 ;;      Params:         0       0       0       0       0       0       0       0       0
  1220 ;;      Locals:         2       0       0       0       0       0       0       0       0
  1221 ;;      Temps:          1       0       0       0       0       0       0       0       0
  1222 ;;      Totals:         3       0       0       0       0       0       0       0       0
  1223 ;;Total ram usage:        3 bytes
  1224 ;; Hardware stack levels used:    1
  1225 ;; This function calls:
  1226 ;;		Nothing
  1227 ;; This function is called by:
  1228 ;;		_PWM_init2
  1229 ;; This function uses a non-reentrant model
  1230 ;;
  1231                           
  1232                           	psect	text4
  1233  00673C                     __ptext4:
  1234                           	opt stack 0
  1235  00673C                     _OpenPWM2:
  1236                           	opt stack 28
  1237                           
  1238                           ;incstack = 0
  1239                           ;OpenPWM2@period stored from wreg
  1240  00673C  6E02               	movwf	OpenPWM2@period,c
  1241  00673E  0E0C               	movlw	12
  1242  006740  6EBA               	movwf	4026,c	;volatile
  1243  006742  0E05               	movlw	5
  1244  006744  6EF6               	movwf	tblptrl,c
  1245  006746                     	if	1	;There is more than 1 active tblptr byte
  1246  006746  0E00               	movlw	0
  1247  006748  6EF7               	movwf	tblptrh,c
  1248  00674A                     	endif
  1249  00674A                     	if	1	;There are 3 active tblptr bytes
  1250  00674A  0E30               	movlw	48
  1251  00674C  6EF8               	movwf	tblptru,c
  1252  00674E                     	endif
  1253  00674E  0008               	tblrd		*
  1254  006750  CFF5 F001          	movff	tablat,??_OpenPWM2
  1255  006754  A001               	btfss	??_OpenPWM2,0,c
  1256  006756  D002               	goto	l2079
  1257  006758  6803               	setf	OpenPWM2@ccp2mx,c
  1258  00675A  D002               	goto	l295
  1259  00675C                     l2079:
  1260  00675C  0E00               	movlw	0
  1261  00675E  6E03               	movwf	OpenPWM2@ccp2mx,c
  1262  006760                     l295:
  1263  006760  5003               	movf	OpenPWM2@ccp2mx,w,c
  1264  006762  B4D8               	btfsc	status,2,c
  1265  006764  D002               	goto	l296
  1266  006766  9294               	bcf	3988,1,c	;volatile
  1267  006768  D001               	goto	l297
  1268  00676A                     l296:
  1269  00676A  9693               	bcf	3987,3,c	;volatile
  1270  00676C                     l297:
  1271  00676C  94CA               	bcf	4042,2,c	;volatile
  1272  00676E  C002  FFCB         	movff	OpenPWM2@period,4043	;volatile
  1273  006772  84CA               	bsf	4042,2,c	;volatile
  1274  006774  0012               	return	
  1275  006776                     __end_of_OpenPWM2:
  1276                           	opt stack 0
  1277                           tblptru	equ	0xFF8
  1278                           tblptrh	equ	0xFF7
  1279                           tblptrl	equ	0xFF6
  1280                           tablat	equ	0xFF5
  1281                           wreg	equ	0xFE8
  1282                           status	equ	0xFD8
  1283                           
  1284 ;; *************** function _PWM_init1 *****************
  1285 ;; Defined at:
  1286 ;;		line 20 in file "pwm.c"
  1287 ;; Parameters:    Size  Location     Type
  1288 ;;  period          1    wreg     unsigned char 
  1289 ;; Auto vars:     Size  Location     Type
  1290 ;;  period          1    1[COMRAM] unsigned char 
  1291 ;; Return value:  Size  Location     Type
  1292 ;;		None               void
  1293 ;; Registers used:
  1294 ;;		wreg, status,2, status,0, cstack
  1295 ;; Tracked objects:
  1296 ;;		On entry : 0/0
  1297 ;;		On exit  : 0/0
  1298 ;;		Unchanged: 0/0
  1299 ;; Data sizes:     COMRAM   BANK0   BANK1   BANK2   BANK3   BANK4   BANK5   BANK6   BANK7
  1300 ;;      Params:         0       0       0       0       0       0       0       0       0
  1301 ;;      Locals:         1       0       0       0       0       0       0       0       0
  1302 ;;      Temps:          0       0       0       0       0       0       0       0       0
  1303 ;;      Totals:         1       0       0       0       0       0       0       0       0
  1304 ;;Total ram usage:        1 bytes
  1305 ;; Hardware stack levels used:    1
  1306 ;; Hardware stack levels required when called:    1
  1307 ;; This function calls:
  1308 ;;		_OpenPWM1
  1309 ;; This function is called by:
  1310 ;;		_mcu_init
  1311 ;; This function uses a non-reentrant model
  1312 ;;
  1313                           
  1314                           	psect	text5
  1315  0065F2                     __ptext5:
  1316                           	opt stack 0
  1317  0065F2                     _PWM_init1:
  1318                           	opt stack 28
  1319                           
  1320                           ;incstack = 0
  1321                           ;PWM_init1@period stored from wreg
  1322  0065F2  6E02               	movwf	PWM_init1@period,c
  1323                           
  1324                           ;pwm.c: 21: Timer2Config = 0b11111110;
  1325  0065F4  0EFE               	movlw	254
  1326  0065F6  6E5F               	movwf	_Timer2Config,c
  1327                           
  1328                           ;pwm.c: 22: T2CON = (0xfb & Timer2Config);
  1329  0065F8  505F               	movf	_Timer2Config,w,c
  1330  0065FA  0BFB               	andlw	251
  1331  0065FC  6ECA               	movwf	4042,c	;volatile
  1332                           
  1333                           ;pwm.c: 25: TMR2 = 0;
  1334  0065FE  0E00               	movlw	0
  1335  006600  6ECC               	movwf	4044,c	;volatile
  1336                           
  1337                           ;pwm.c: 26: PIR1bits.TMR2IF = 0;
  1338  006602  929E               	bcf	3998,1,c	;volatile
  1339                           
  1340                           ;pwm.c: 27: PIE1bits.TMR2IE = 0;
  1341  006604  929D               	bcf	3997,1,c	;volatile
  1342                           
  1343                           ;pwm.c: 28: T2CONbits.TMR2ON = 1;
  1344  006606  84CA               	bsf	4042,2,c	;volatile
  1345                           
  1346                           ;pwm.c: 29: OpenPWM1(period);
  1347  006608  5002               	movf	PWM_init1@period,w,c
  1348  00660A  ECE6  F032         	call	_OpenPWM1
  1349                           
  1350                           ;pwm.c: 31: return;
  1351  00660E  0012               	return	
  1352  006610                     __end_of_PWM_init1:
  1353                           	opt stack 0
  1354                           tblptru	equ	0xFF8
  1355                           tblptrh	equ	0xFF7
  1356                           tblptrl	equ	0xFF6
  1357                           tablat	equ	0xFF5
  1358                           wreg	equ	0xFE8
  1359                           status	equ	0xFD8
  1360                           
  1361 ;; *************** function _OpenPWM1 *****************
  1362 ;; Defined at:
  1363 ;;		line 8 in file "C:\Program Files\Microchip\xc8\v1.33\sources\pic18\plib\PWM\pw1open.c"
  1364 ;; Parameters:    Size  Location     Type
  1365 ;;  period          1    wreg     unsigned char 
  1366 ;; Auto vars:     Size  Location     Type
  1367 ;;  period          1    0[COMRAM] unsigned char 
  1368 ;; Return value:  Size  Location     Type
  1369 ;;		None               void
  1370 ;; Registers used:
  1371 ;;		wreg, status,2, status,0
  1372 ;; Tracked objects:
  1373 ;;		On entry : 0/0
  1374 ;;		On exit  : 0/0
  1375 ;;		Unchanged: 0/0
  1376 ;; Data sizes:     COMRAM   BANK0   BANK1   BANK2   BANK3   BANK4   BANK5   BANK6   BANK7
  1377 ;;      Params:         0       0       0       0       0       0       0       0       0
  1378 ;;      Locals:         1       0       0       0       0       0       0       0       0
  1379 ;;      Temps:          0       0       0       0       0       0       0       0       0
  1380 ;;      Totals:         1       0       0       0       0       0       0       0       0
  1381 ;;Total ram usage:        1 bytes
  1382 ;; Hardware stack levels used:    1
  1383 ;; This function calls:
  1384 ;;		Nothing
  1385 ;; This function is called by:
  1386 ;;		_PWM_init1
  1387 ;; This function uses a non-reentrant model
  1388 ;;
  1389                           
  1390                           	psect	text6
  1391  0065CC                     __ptext6:
  1392                           	opt stack 0
  1393  0065CC                     _OpenPWM1:
  1394                           	opt stack 28
  1395                           
  1396                           ;incstack = 0
  1397                           ;OpenPWM1@period stored from wreg
  1398  0065CC  6E01               	movwf	OpenPWM1@period,c
  1399  0065CE  0E0C               	movlw	12
  1400  0065D0  12BD               	iorwf	4029,f,c	;volatile
  1401  0065D2  9494               	bcf	3988,2,c	;volatile
  1402  0065D4  94CA               	bcf	4042,2,c	;volatile
  1403  0065D6  C001  FFCB         	movff	OpenPWM1@period,4043	;volatile
  1404  0065DA  84CA               	bsf	4042,2,c	;volatile
  1405  0065DC  0012               	return	
  1406  0065DE                     __end_of_OpenPWM1:
  1407                           	opt stack 0
  1408                           tblptru	equ	0xFF8
  1409                           tblptrh	equ	0xFF7
  1410                           tblptrl	equ	0xFF6
  1411                           tablat	equ	0xFF5
  1412                           wreg	equ	0xFE8
  1413                           status	equ	0xFD8
  1414                           
  1415 ;; *************** function _go_back *****************
  1416 ;; Defined at:
  1417 ;;		line 125 in file "cny70.c"
  1418 ;; Parameters:    Size  Location     Type
  1419 ;;  m_right         1    wreg     unsigned char 
  1420 ;;  m_left          1   51[COMRAM] unsigned char 
  1421 ;; Auto vars:     Size  Location     Type
  1422 ;;  m_right         1   52[COMRAM] unsigned char 
  1423 ;; Return value:  Size  Location     Type
  1424 ;;		None               void
  1425 ;; Registers used:
  1426 ;;		wreg, status,2, status,0, cstack
  1427 ;; Tracked objects:
  1428 ;;		On entry : 0/0
  1429 ;;		On exit  : 0/0
  1430 ;;		Unchanged: 0/0
  1431 ;; Data sizes:     COMRAM   BANK0   BANK1   BANK2   BANK3   BANK4   BANK5   BANK6   BANK7
  1432 ;;      Params:         1       0       0       0       0       0       0       0       0
  1433 ;;      Locals:         1       0       0       0       0       0       0       0       0
  1434 ;;      Temps:          0       0       0       0       0       0       0       0       0
  1435 ;;      Totals:         2       0       0       0       0       0       0       0       0
  1436 ;;Total ram usage:        2 bytes
  1437 ;; Hardware stack levels used:    1
  1438 ;; Hardware stack levels required when called:    3
  1439 ;; This function calls:
  1440 ;;		_PWM_DutyCycle1
  1441 ;;		_PWM_DutyCycle2
  1442 ;;		_motor_Backforward
  1443 ;; This function is called by:
  1444 ;;		_main
  1445 ;; This function uses a non-reentrant model
  1446 ;;
  1447                           
  1448                           	psect	text7
  1449  0065DE                     __ptext7:
  1450                           	opt stack 0
  1451  0065DE                     _go_back:
  1452                           	opt stack 27
  1453                           
  1454                           ;incstack = 0
  1455                           ;go_back@m_right stored from wreg
  1456  0065DE  6E35               	movwf	go_back@m_right,c
  1457                           
  1458                           ;cny70.c: 127: motor_Backforward();
  1459  0065E0  ECDC  F032         	call	_motor_Backforward	;wreg free
  1460                           
  1461                           ;cny70.c: 128: PWM_DutyCycle1(m_right);
  1462  0065E4  5035               	movf	go_back@m_right,w,c
  1463  0065E6  ECDF  F033         	call	_PWM_DutyCycle1
  1464                           
  1465                           ;cny70.c: 129: PWM_DutyCycle2(m_left);
  1466  0065EA  5034               	movf	go_back@m_left,w,c
  1467  0065EC  EC14  F034         	call	_PWM_DutyCycle2
  1468                           
  1469                           ;cny70.c: 130: return;
  1470  0065F0  0012               	return	
  1471  0065F2                     __end_of_go_back:
  1472                           	opt stack 0
  1473                           tblptru	equ	0xFF8
  1474                           tblptrh	equ	0xFF7
  1475                           tblptrl	equ	0xFF6
  1476                           tablat	equ	0xFF5
  1477                           wreg	equ	0xFE8
  1478                           status	equ	0xFD8
  1479                           
  1480 ;; *************** function _motor_Backforward *****************
  1481 ;; Defined at:
  1482 ;;		line 57 in file "motor.c"
  1483 ;; Parameters:    Size  Location     Type
  1484 ;;		None
  1485 ;; Auto vars:     Size  Location     Type
  1486 ;;		None
  1487 ;; Return value:  Size  Location     Type
  1488 ;;                  2  207[COMRAM] int 
  1489 ;; Registers used:
  1490 ;;		None
  1491 ;; Tracked objects:
  1492 ;;		On entry : 0/0
  1493 ;;		On exit  : 0/0
  1494 ;;		Unchanged: 0/0
  1495 ;; Data sizes:     COMRAM   BANK0   BANK1   BANK2   BANK3   BANK4   BANK5   BANK6   BANK7
  1496 ;;      Params:         0       0       0       0       0       0       0       0       0
  1497 ;;      Locals:         0       0       0       0       0       0       0       0       0
  1498 ;;      Temps:          0       0       0       0       0       0       0       0       0
  1499 ;;      Totals:         0       0       0       0       0       0       0       0       0
  1500 ;;Total ram usage:        0 bytes
  1501 ;; Hardware stack levels used:    1
  1502 ;; This function calls:
  1503 ;;		Nothing
  1504 ;; This function is called by:
  1505 ;;		_go_back
  1506 ;; This function uses a non-reentrant model
  1507 ;;
  1508                           
  1509                           	psect	text8
  1510  0065B8                     __ptext8:
  1511                           	opt stack 0
  1512  0065B8                     _motor_Backforward:
  1513                           	opt stack 29
  1514                           
  1515                           ;motor.c: 59: PORTDbits.RD7 = 0;
  1516                           
  1517                           ;incstack = 0
  1518  0065B8  9E83               	bcf	3971,7,c	;volatile
  1519                           
  1520                           ;motor.c: 60: PORTDbits.RD4 = 1;
  1521  0065BA  8883               	bsf	3971,4,c	;volatile
  1522                           
  1523                           ;motor.c: 61: PORTDbits.RD2 = 0;
  1524  0065BC  9483               	bcf	3971,2,c	;volatile
  1525                           
  1526                           ;motor.c: 62: PORTDbits.RD3 = 1;
  1527  0065BE  8683               	bsf	3971,3,c	;volatile
  1528                           
  1529                           ;motor.c: 64: return;
  1530  0065C0  0012               	return	
  1531  0065C2                     __end_of_motor_Backforward:
  1532                           	opt stack 0
  1533                           tblptru	equ	0xFF8
  1534                           tblptrh	equ	0xFF7
  1535                           tblptrl	equ	0xFF6
  1536                           tablat	equ	0xFF5
  1537                           wreg	equ	0xFE8
  1538                           status	equ	0xFD8
  1539                           
  1540 ;; *************** function _PWM_DutyCycle2 *****************
  1541 ;; Defined at:
  1542 ;;		line 55 in file "pwm.c"
  1543 ;; Parameters:    Size  Location     Type
  1544 ;;  percentageDu    1    wreg     unsigned char 
  1545 ;; Auto vars:     Size  Location     Type
  1546 ;;  percentageDu    1   48[COMRAM] unsigned char 
  1547 ;;  DC              2   49[COMRAM] unsigned int 
  1548 ;;  DutyCycle       2   46[COMRAM] unsigned int 
  1549 ;; Return value:  Size  Location     Type
  1550 ;;		None               void
  1551 ;; Registers used:
  1552 ;;		wreg, status,2, status,0, cstack
  1553 ;; Tracked objects:
  1554 ;;		On entry : 0/0
  1555 ;;		On exit  : 0/0
  1556 ;;		Unchanged: 0/0
  1557 ;; Data sizes:     COMRAM   BANK0   BANK1   BANK2   BANK3   BANK4   BANK5   BANK6   BANK7
  1558 ;;      Params:         0       0       0       0       0       0       0       0       0
  1559 ;;      Locals:         5       0       0       0       0       0       0       0       0
  1560 ;;      Temps:          4       0       0       0       0       0       0       0       0
  1561 ;;      Totals:         9       0       0       0       0       0       0       0       0
  1562 ;;Total ram usage:        9 bytes
  1563 ;; Hardware stack levels used:    1
  1564 ;; Hardware stack levels required when called:    2
  1565 ;; This function calls:
  1566 ;;		_SetDCPWM2
  1567 ;;		___ftmul
  1568 ;;		___fttol
  1569 ;;		___lbtoft
  1570 ;; This function is called by:
  1571 ;;		_mcu_init
  1572 ;;		_go_back
  1573 ;;		_right
  1574 ;;		_left
  1575 ;;		_go_straight
  1576 ;; This function uses a non-reentrant model
  1577 ;;
  1578                           
  1579                           	psect	text9
  1580  006828                     __ptext9:
  1581                           	opt stack 0
  1582  006828                     _PWM_DutyCycle2:
  1583                           	opt stack 27
  1584                           
  1585                           ;incstack = 0
  1586                           ;PWM_DutyCycle2@percentageDuty stored from wreg
  1587  006828  6E31               	movwf	PWM_DutyCycle2@percentageDuty,c
  1588                           
  1589                           ;pwm.c: 57: unsigned int DC = 0, DutyCycle = 0;
  1590  00682A  0E00               	movlw	0
  1591  00682C  6E33               	movwf	PWM_DutyCycle2@DC+1,c
  1592  00682E  0E00               	movlw	0
  1593  006830  6E32               	movwf	PWM_DutyCycle2@DC,c
  1594  006832  0E00               	movlw	0
  1595  006834  6E30               	movwf	PWM_DutyCycle2@DutyCycle+1,c
  1596  006836  0E00               	movlw	0
  1597  006838  6E2F               	movwf	PWM_DutyCycle2@DutyCycle,c
  1598                           
  1599                           ;pwm.c: 59: DC = (unsigned int)(percentageDuty * 10.23);
  1600  00683A  0EAE               	movlw	174
  1601  00683C  6E10               	movwf	___ftmul@f2,c
  1602  00683E  0E23               	movlw	35
  1603  006840  6E11               	movwf	___ftmul@f2+1,c
  1604  006842  0E41               	movlw	65
  1605  006844  6E12               	movwf	___ftmul@f2+2,c
  1606  006846  5031               	movf	PWM_DutyCycle2@percentageDuty,w,c
  1607  006848  EC17  F033         	call	___lbtoft
  1608  00684C  C009  F00D         	movff	?___lbtoft,___ftmul@f1
  1609  006850  C00A  F00E         	movff	?___lbtoft+1,___ftmul@f1+1
  1610  006854  C00B  F00F         	movff	?___lbtoft+2,___ftmul@f1+2
  1611  006858  EC65  F036         	call	___ftmul	;wreg free
  1612  00685C  C00D  F01C         	movff	?___ftmul,___fttol@f1
  1613  006860  C00E  F01D         	movff	?___ftmul+1,___fttol@f1+1
  1614  006864  C00F  F01E         	movff	?___ftmul+2,___fttol@f1+2
  1615  006868  EC90  F035         	call	___fttol	;wreg free
  1616  00686C  C01C  F02B         	movff	?___fttol,??_PWM_DutyCycle2
  1617  006870  C01D  F02C         	movff	?___fttol+1,??_PWM_DutyCycle2+1
  1618  006874  C01E  F02D         	movff	?___fttol+2,??_PWM_DutyCycle2+2
  1619  006878  C01F  F02E         	movff	?___fttol+3,??_PWM_DutyCycle2+3
  1620  00687C  C02B  F032         	movff	??_PWM_DutyCycle2,PWM_DutyCycle2@DC
  1621  006880  C02C  F033         	movff	??_PWM_DutyCycle2+1,PWM_DutyCycle2@DC+1
  1622                           
  1623                           ;pwm.c: 60: SetDCPWM2(DC);
  1624  006884  C032  F001         	movff	PWM_DutyCycle2@DC,SetDCPWM2@dutycycle
  1625  006888  C033  F002         	movff	PWM_DutyCycle2@DC+1,SetDCPWM2@dutycycle+1
  1626  00688C  EC81  F033         	call	_SetDCPWM2	;wreg free
  1627                           
  1628                           ;pwm.c: 61: return;
  1629  006890  0012               	return	
  1630  006892                     __end_of_PWM_DutyCycle2:
  1631                           	opt stack 0
  1632                           tblptru	equ	0xFF8
  1633                           tblptrh	equ	0xFF7
  1634                           tblptrl	equ	0xFF6
  1635                           tablat	equ	0xFF5
  1636                           wreg	equ	0xFE8
  1637                           status	equ	0xFD8
  1638                           
  1639 ;; *************** function _SetDCPWM2 *****************
  1640 ;; Defined at:
  1641 ;;		line 7 in file "C:\Program Files\Microchip\xc8\v1.33\sources\pic18\plib\PWM\pw2setdc.c"
  1642 ;; Parameters:    Size  Location     Type
  1643 ;;  dutycycle       2    0[COMRAM] unsigned int 
  1644 ;; Auto vars:     Size  Location     Type
  1645 ;;  DCycle          2    4[COMRAM] struct PWMDC
  1646 ;; Return value:  Size  Location     Type
  1647 ;;		None               void
  1648 ;; Registers used:
  1649 ;;		wreg, status,2, status,0
  1650 ;; Tracked objects:
  1651 ;;		On entry : 0/0
  1652 ;;		On exit  : 0/0
  1653 ;;		Unchanged: 0/0
  1654 ;; Data sizes:     COMRAM   BANK0   BANK1   BANK2   BANK3   BANK4   BANK5   BANK6   BANK7
  1655 ;;      Params:         2       0       0       0       0       0       0       0       0
  1656 ;;      Locals:         2       0       0       0       0       0       0       0       0
  1657 ;;      Temps:          2       0       0       0       0       0       0       0       0
  1658 ;;      Totals:         6       0       0       0       0       0       0       0       0
  1659 ;;Total ram usage:        6 bytes
  1660 ;; Hardware stack levels used:    1
  1661 ;; This function calls:
  1662 ;;		Nothing
  1663 ;; This function is called by:
  1664 ;;		_PWM_DutyCycle2
  1665 ;; This function uses a non-reentrant model
  1666 ;;
  1667                           
  1668                           	psect	text10
  1669  006702                     __ptext10:
  1670                           	opt stack 0
  1671  006702                     _SetDCPWM2:
  1672                           	opt stack 28
  1673                           
  1674                           ;incstack = 0
  1675  006702  C001  F003         	movff	SetDCPWM2@dutycycle,??_SetDCPWM2
  1676  006706  C002  F004         	movff	SetDCPWM2@dutycycle+1,??_SetDCPWM2+1
  1677  00670A  0E06               	movlw	6
  1678  00670C                     u1975:
  1679  00670C  90D8               	bcf	status,0,c
  1680  00670E  3603               	rlcf	??_SetDCPWM2,f,c
  1681  006710  3604               	rlcf	??_SetDCPWM2+1,f,c
  1682  006712  2EE8               	decfsz	wreg,f,c
  1683  006714  D7FB               	goto	u1975
  1684  006716  C003  F005         	movff	??_SetDCPWM2,SetDCPWM2@DCycle
  1685  00671A  C004  F006         	movff	??_SetDCPWM2+1,SetDCPWM2@DCycle+1
  1686  00671E  C006  FFBB         	movff	SetDCPWM2@DCycle+1,4027	;volatile
  1687  006722  C005  F003         	movff	SetDCPWM2@DCycle,??_SetDCPWM2
  1688  006726  90D8               	bcf	status,0,c
  1689  006728  3203               	rrcf	??_SetDCPWM2,f,c
  1690  00672A  90D8               	bcf	status,0,c
  1691  00672C  3203               	rrcf	??_SetDCPWM2,f,c
  1692  00672E  0E30               	movlw	48
  1693  006730  1603               	andwf	??_SetDCPWM2,f,c
  1694  006732  50BA               	movf	4026,w,c	;volatile
  1695  006734  0BCF               	andlw	207
  1696  006736  1003               	iorwf	??_SetDCPWM2,w,c
  1697  006738  6EBA               	movwf	4026,c	;volatile
  1698  00673A  0012               	return	
  1699  00673C                     __end_of_SetDCPWM2:
  1700                           	opt stack 0
  1701                           tblptru	equ	0xFF8
  1702                           tblptrh	equ	0xFF7
  1703                           tblptrl	equ	0xFF6
  1704                           tablat	equ	0xFF5
  1705                           wreg	equ	0xFE8
  1706                           status	equ	0xFD8
  1707                           
  1708 ;; *************** function _PWM_DutyCycle1 *****************
  1709 ;; Defined at:
  1710 ;;		line 33 in file "pwm.c"
  1711 ;; Parameters:    Size  Location     Type
  1712 ;;  percentageDu    1    wreg     unsigned char 
  1713 ;; Auto vars:     Size  Location     Type
  1714 ;;  percentageDu    1   48[COMRAM] unsigned char 
  1715 ;;  DC              2   49[COMRAM] unsigned int 
  1716 ;;  DutyCycle       2   46[COMRAM] unsigned int 
  1717 ;; Return value:  Size  Location     Type
  1718 ;;		None               void
  1719 ;; Registers used:
  1720 ;;		wreg, status,2, status,0, cstack
  1721 ;; Tracked objects:
  1722 ;;		On entry : 0/0
  1723 ;;		On exit  : 0/0
  1724 ;;		Unchanged: 0/0
  1725 ;; Data sizes:     COMRAM   BANK0   BANK1   BANK2   BANK3   BANK4   BANK5   BANK6   BANK7
  1726 ;;      Params:         0       0       0       0       0       0       0       0       0
  1727 ;;      Locals:         5       0       0       0       0       0       0       0       0
  1728 ;;      Temps:          4       0       0       0       0       0       0       0       0
  1729 ;;      Totals:         9       0       0       0       0       0       0       0       0
  1730 ;;Total ram usage:        9 bytes
  1731 ;; Hardware stack levels used:    1
  1732 ;; Hardware stack levels required when called:    2
  1733 ;; This function calls:
  1734 ;;		_SetDCPWM1
  1735 ;;		___ftmul
  1736 ;;		___fttol
  1737 ;;		___lbtoft
  1738 ;; This function is called by:
  1739 ;;		_main
  1740 ;;		_mcu_init
  1741 ;;		_go_back
  1742 ;;		_right
  1743 ;;		_left
  1744 ;;		_go_straight
  1745 ;; This function uses a non-reentrant model
  1746 ;;
  1747                           
  1748                           	psect	text11
  1749  0067BE                     __ptext11:
  1750                           	opt stack 0
  1751  0067BE                     _PWM_DutyCycle1:
  1752                           	opt stack 27
  1753                           
  1754                           ;incstack = 0
  1755                           ;PWM_DutyCycle1@percentageDuty stored from wreg
  1756  0067BE  6E31               	movwf	PWM_DutyCycle1@percentageDuty,c
  1757                           
  1758                           ;pwm.c: 35: unsigned int DC = 0, DutyCycle = 0;
  1759  0067C0  0E00               	movlw	0
  1760  0067C2  6E33               	movwf	PWM_DutyCycle1@DC+1,c
  1761  0067C4  0E00               	movlw	0
  1762  0067C6  6E32               	movwf	PWM_DutyCycle1@DC,c
  1763  0067C8  0E00               	movlw	0
  1764  0067CA  6E30               	movwf	PWM_DutyCycle1@DutyCycle+1,c
  1765  0067CC  0E00               	movlw	0
  1766  0067CE  6E2F               	movwf	PWM_DutyCycle1@DutyCycle,c
  1767                           
  1768                           ;pwm.c: 37: DC = (unsigned int)(percentageDuty * 10.23);
  1769  0067D0  0EAE               	movlw	174
  1770  0067D2  6E10               	movwf	___ftmul@f2,c
  1771  0067D4  0E23               	movlw	35
  1772  0067D6  6E11               	movwf	___ftmul@f2+1,c
  1773  0067D8  0E41               	movlw	65
  1774  0067DA  6E12               	movwf	___ftmul@f2+2,c
  1775  0067DC  5031               	movf	PWM_DutyCycle1@percentageDuty,w,c
  1776  0067DE  EC17  F033         	call	___lbtoft
  1777  0067E2  C009  F00D         	movff	?___lbtoft,___ftmul@f1
  1778  0067E6  C00A  F00E         	movff	?___lbtoft+1,___ftmul@f1+1
  1779  0067EA  C00B  F00F         	movff	?___lbtoft+2,___ftmul@f1+2
  1780  0067EE  EC65  F036         	call	___ftmul	;wreg free
  1781  0067F2  C00D  F01C         	movff	?___ftmul,___fttol@f1
  1782  0067F6  C00E  F01D         	movff	?___ftmul+1,___fttol@f1+1
  1783  0067FA  C00F  F01E         	movff	?___ftmul+2,___fttol@f1+2
  1784  0067FE  EC90  F035         	call	___fttol	;wreg free
  1785  006802  C01C  F02B         	movff	?___fttol,??_PWM_DutyCycle1
  1786  006806  C01D  F02C         	movff	?___fttol+1,??_PWM_DutyCycle1+1
  1787  00680A  C01E  F02D         	movff	?___fttol+2,??_PWM_DutyCycle1+2
  1788  00680E  C01F  F02E         	movff	?___fttol+3,??_PWM_DutyCycle1+3
  1789  006812  C02B  F032         	movff	??_PWM_DutyCycle1,PWM_DutyCycle1@DC
  1790  006816  C02C  F033         	movff	??_PWM_DutyCycle1+1,PWM_DutyCycle1@DC+1
  1791                           
  1792                           ;pwm.c: 38: SetDCPWM1(DC);
  1793  00681A  C032  F001         	movff	PWM_DutyCycle1@DC,SetDCPWM1@dutycycle
  1794  00681E  C033  F002         	movff	PWM_DutyCycle1@DC+1,SetDCPWM1@dutycycle+1
  1795  006822  EC64  F033         	call	_SetDCPWM1	;wreg free
  1796                           
  1797                           ;pwm.c: 39: return;
  1798  006826  0012               	return	
  1799  006828                     __end_of_PWM_DutyCycle1:
  1800                           	opt stack 0
  1801                           tblptru	equ	0xFF8
  1802                           tblptrh	equ	0xFF7
  1803                           tblptrl	equ	0xFF6
  1804                           tablat	equ	0xFF5
  1805                           wreg	equ	0xFE8
  1806                           status	equ	0xFD8
  1807                           
  1808 ;; *************** function ___lbtoft *****************
  1809 ;; Defined at:
  1810 ;;		line 27 in file "C:\Program Files\Microchip\xc8\v1.33\sources\common\lbtoft.c"
  1811 ;; Parameters:    Size  Location     Type
  1812 ;;  c               1    wreg     unsigned char 
  1813 ;; Auto vars:     Size  Location     Type
  1814 ;;  c               1   11[COMRAM] unsigned char 
  1815 ;; Return value:  Size  Location     Type
  1816 ;;                  3    8[COMRAM] float 
  1817 ;; Registers used:
  1818 ;;		wreg, status,2, status,0, cstack
  1819 ;; Tracked objects:
  1820 ;;		On entry : 0/0
  1821 ;;		On exit  : 0/0
  1822 ;;		Unchanged: 0/0
  1823 ;; Data sizes:     COMRAM   BANK0   BANK1   BANK2   BANK3   BANK4   BANK5   BANK6   BANK7
  1824 ;;      Params:         3       0       0       0       0       0       0       0       0
  1825 ;;      Locals:         1       0       0       0       0       0       0       0       0
  1826 ;;      Temps:          0       0       0       0       0       0       0       0       0
  1827 ;;      Totals:         4       0       0       0       0       0       0       0       0
  1828 ;;Total ram usage:        4 bytes
  1829 ;; Hardware stack levels used:    1
  1830 ;; Hardware stack levels required when called:    1
  1831 ;; This function calls:
  1832 ;;		___ftpack
  1833 ;; This function is called by:
  1834 ;;		_PWM_DutyCycle1
  1835 ;;		_PWM_DutyCycle2
  1836 ;; This function uses a non-reentrant model
  1837 ;;
  1838                           
  1839                           	psect	text12
  1840  00662E                     __ptext12:
  1841                           	opt stack 0
  1842  00662E                     ___lbtoft:
  1843                           	opt stack 27
  1844                           
  1845                           ;incstack = 0
  1846                           ;___lbtoft@c stored from wreg
  1847  00662E  6E0C               	movwf	___lbtoft@c,c
  1848  006630  500C               	movf	___lbtoft@c,w,c
  1849  006632  6E01               	movwf	___ftpack@arg,c
  1850  006634  6A02               	clrf	___ftpack@arg+1,c
  1851  006636  6A03               	clrf	___ftpack@arg+2,c
  1852  006638  0E8E               	movlw	142
  1853  00663A  6E04               	movwf	___ftpack@exp,c
  1854  00663C  0E00               	movlw	0
  1855  00663E  6E05               	movwf	___ftpack@sign,c
  1856  006640  ECE0  F034         	call	___ftpack	;wreg free
  1857  006644  C001  F009         	movff	?___ftpack,?___lbtoft
  1858  006648  C002  F00A         	movff	?___ftpack+1,?___lbtoft+1
  1859  00664C  C003  F00B         	movff	?___ftpack+2,?___lbtoft+2
  1860  006650  0012               	return	
  1861  006652                     __end_of___lbtoft:
  1862                           	opt stack 0
  1863                           tblptru	equ	0xFF8
  1864                           tblptrh	equ	0xFF7
  1865                           tblptrl	equ	0xFF6
  1866                           tablat	equ	0xFF5
  1867                           wreg	equ	0xFE8
  1868                           status	equ	0xFD8
  1869                           
  1870 ;; *************** function ___fttol *****************
  1871 ;; Defined at:
  1872 ;;		line 44 in file "C:\Program Files\Microchip\xc8\v1.33\sources\common\fttol.c"
  1873 ;; Parameters:    Size  Location     Type
  1874 ;;  f1              3   27[COMRAM] float 
  1875 ;; Auto vars:     Size  Location     Type
  1876 ;;  lval            4   37[COMRAM] unsigned long 
  1877 ;;  exp1            1   41[COMRAM] unsigned char 
  1878 ;;  sign1           1   36[COMRAM] unsigned char 
  1879 ;; Return value:  Size  Location     Type
  1880 ;;                  4   27[COMRAM] long 
  1881 ;; Registers used:
  1882 ;;		wreg, status,2, status,0
  1883 ;; Tracked objects:
  1884 ;;		On entry : 0/0
  1885 ;;		On exit  : 0/0
  1886 ;;		Unchanged: 0/0
  1887 ;; Data sizes:     COMRAM   BANK0   BANK1   BANK2   BANK3   BANK4   BANK5   BANK6   BANK7
  1888 ;;      Params:         4       0       0       0       0       0       0       0       0
  1889 ;;      Locals:         6       0       0       0       0       0       0       0       0
  1890 ;;      Temps:          5       0       0       0       0       0       0       0       0
  1891 ;;      Totals:        15       0       0       0       0       0       0       0       0
  1892 ;;Total ram usage:       15 bytes
  1893 ;; Hardware stack levels used:    1
  1894 ;; This function calls:
  1895 ;;		Nothing
  1896 ;; This function is called by:
  1897 ;;		_main
  1898 ;;		_PWM_DutyCycle1
  1899 ;;		_PWM_DutyCycle2
  1900 ;; This function uses a non-reentrant model
  1901 ;;
  1902                           
  1903                           	psect	text13
  1904  006B20                     __ptext13:
  1905                           	opt stack 0
  1906  006B20                     ___fttol:
  1907                           	opt stack 28
  1908                           
  1909                           ;incstack = 0
  1910  006B20  C01E  F020         	movff	___fttol@f1+2,??___fttol
  1911  006B24  6A21               	clrf	(??___fttol+1)& (0+255),c
  1912  006B26  6A22               	clrf	(??___fttol+2)& (0+255),c
  1913  006B28  341D               	rlcf	___fttol@f1+1,w,c
  1914  006B2A  3620               	rlcf	??___fttol& (0+255),f,c
  1915  006B2C  E301               	bnc	u2051
  1916  006B2E  8021               	bsf	(??___fttol+1)& (0+255),0,c
  1917  006B30                     u2051:
  1918  006B30  5020               	movf	??___fttol,w,c
  1919  006B32  6E2A               	movwf	___fttol@exp1,c
  1920  006B34  662A               	tstfsz	___fttol@exp1& (0+255),c
  1921  006B36  D001               	goto	l2159
  1922  006B38  D038               	goto	u2100
  1923  006B3A                     l2159:
  1924  006B3A  0E17               	movlw	23
  1925  006B3C  6E20               	movwf	??___fttol& (0+255),c
  1926  006B3E  C01C  F021         	movff	___fttol@f1,??___fttol+1
  1927  006B42  C01D  F022         	movff	___fttol@f1+1,??___fttol+2
  1928  006B46  C01E  F023         	movff	___fttol@f1+2,??___fttol+3
  1929  006B4A  2820               	incf	??___fttol,w,c
  1930  006B4C  6E24               	movwf	(??___fttol+4)& (0+255),c
  1931  006B4E  D004               	goto	u2070
  1932  006B50                     u2075:
  1933  006B50  90D8               	bcf	status,0,c
  1934  006B52  3223               	rrcf	??___fttol+3,f,c
  1935  006B54  3222               	rrcf	??___fttol+2,f,c
  1936  006B56  3221               	rrcf	??___fttol+1,f,c
  1937  006B58                     u2070:
  1938  006B58  2E24               	decfsz	(??___fttol+4)& (0+255),f,c
  1939  006B5A  D7FA               	goto	u2075
  1940  006B5C  5021               	movf	??___fttol+1,w,c
  1941  006B5E  6E25               	movwf	___fttol@sign1,c
  1942  006B60  8E1D               	bsf	___fttol@f1+1,7,c
  1943  006B62  0EFF               	movlw	255
  1944  006B64  161C               	andwf	___fttol@f1,f,c
  1945  006B66  0EFF               	movlw	255
  1946  006B68  161D               	andwf	___fttol@f1+1,f,c
  1947  006B6A  0E00               	movlw	0
  1948  006B6C  161E               	andwf	___fttol@f1+2,f,c
  1949  006B6E  501C               	movf	___fttol@f1,w,c
  1950  006B70  6E26               	movwf	___fttol@lval,c
  1951  006B72  501D               	movf	___fttol@f1+1,w,c
  1952  006B74  6E27               	movwf	___fttol@lval+1,c
  1953  006B76  501E               	movf	___fttol@f1+2,w,c
  1954  006B78  6E28               	movwf	___fttol@lval+2,c
  1955  006B7A  6A29               	clrf	___fttol@lval+3,c
  1956  006B7C  0E8E               	movlw	142
  1957  006B7E  5E2A               	subwf	___fttol@exp1,f,c
  1958  006B80  AE2A               	btfss	___fttol@exp1,7,c
  1959  006B82  D010               	goto	l2181
  1960  006B84  502A               	movf	___fttol@exp1,w,c
  1961  006B86  0A80               	xorlw	128
  1962  006B88  6E20               	movwf	??___fttol& (0+255),c
  1963  006B8A  0EF1               	movlw	241
  1964  006B8C  0A80               	xorlw	128
  1965  006B8E  5C20               	subwf	??___fttol,w,c
  1966  006B90  A0D8               	btfss	status,0,c
  1967  006B92  D00B               	goto	u2100
  1968  006B94                     l2177:
  1969  006B94  90D8               	bcf	status,0,c
  1970  006B96  3229               	rrcf	___fttol@lval+3,f,c
  1971  006B98  3228               	rrcf	___fttol@lval+2,f,c
  1972  006B9A  3227               	rrcf	___fttol@lval+1,f,c
  1973  006B9C  3226               	rrcf	___fttol@lval,f,c
  1974  006B9E  3E2A               	incfsz	___fttol@exp1,f,c
  1975  006BA0  D7F9               	goto	l2177
  1976  006BA2  D014               	goto	l2191
  1977  006BA4                     l2181:
  1978  006BA4  0E17               	movlw	23
  1979  006BA6  642A               	cpfsgt	___fttol@exp1,c
  1980  006BA8  D00F               	goto	l2189
  1981  006BAA                     u2100:
  1982  006BAA  0E00               	movlw	0
  1983  006BAC  6E1C               	movwf	?___fttol,c
  1984  006BAE  0E00               	movlw	0
  1985  006BB0  6E1D               	movwf	?___fttol+1,c
  1986  006BB2  0E00               	movlw	0
  1987  006BB4  6E1E               	movwf	?___fttol+2,c
  1988  006BB6  0E00               	movlw	0
  1989  006BB8  6E1F               	movwf	?___fttol+3,c
  1990  006BBA  D01B               	goto	l718
  1991  006BBC                     l2187:
  1992  006BBC  90D8               	bcf	status,0,c
  1993  006BBE  3626               	rlcf	___fttol@lval,f,c
  1994  006BC0  3627               	rlcf	___fttol@lval+1,f,c
  1995  006BC2  3628               	rlcf	___fttol@lval+2,f,c
  1996  006BC4  3629               	rlcf	___fttol@lval+3,f,c
  1997  006BC6  062A               	decf	___fttol@exp1,f,c
  1998  006BC8                     l2189:
  1999  006BC8  662A               	tstfsz	___fttol@exp1,c
  2000  006BCA  D7F8               	goto	l2187
  2001  006BCC                     l2191:
  2002  006BCC  5025               	movf	___fttol@sign1,w,c
  2003  006BCE  B4D8               	btfsc	status,2,c
  2004  006BD0  D008               	goto	l2195
  2005  006BD2  1E29               	comf	___fttol@lval+3,f,c
  2006  006BD4  1E28               	comf	___fttol@lval+2,f,c
  2007  006BD6  1E27               	comf	___fttol@lval+1,f,c
  2008  006BD8  6C26               	negf	___fttol@lval,c
  2009  006BDA  0E00               	movlw	0
  2010  006BDC  2227               	addwfc	___fttol@lval+1,f,c
  2011  006BDE  2228               	addwfc	___fttol@lval+2,f,c
  2012  006BE0  2229               	addwfc	___fttol@lval+3,f,c
  2013  006BE2                     l2195:
  2014  006BE2  C026  F01C         	movff	___fttol@lval,?___fttol
  2015  006BE6  C027  F01D         	movff	___fttol@lval+1,?___fttol+1
  2016  006BEA  C028  F01E         	movff	___fttol@lval+2,?___fttol+2
  2017  006BEE  C029  F01F         	movff	___fttol@lval+3,?___fttol+3
  2018  006BF2                     l718:
  2019  006BF2  0012               	return	
  2020  006BF4                     __end_of___fttol:
  2021                           	opt stack 0
  2022                           tblptru	equ	0xFF8
  2023                           tblptrh	equ	0xFF7
  2024                           tblptrl	equ	0xFF6
  2025                           tablat	equ	0xFF5
  2026                           wreg	equ	0xFE8
  2027                           status	equ	0xFD8
  2028                           
  2029 ;; *************** function _SetDCPWM1 *****************
  2030 ;; Defined at:
  2031 ;;		line 7 in file "C:\Program Files\Microchip\xc8\v1.33\sources\pic18\plib\PWM\pw1setdc.c"
  2032 ;; Parameters:    Size  Location     Type
  2033 ;;  dutycycle       2    0[COMRAM] unsigned int 
  2034 ;; Auto vars:     Size  Location     Type
  2035 ;;  DCycle          2    4[COMRAM] struct PWMDC
  2036 ;; Return value:  Size  Location     Type
  2037 ;;		None               void
  2038 ;; Registers used:
  2039 ;;		wreg, status,2, status,0
  2040 ;; Tracked objects:
  2041 ;;		On entry : 0/0
  2042 ;;		On exit  : 0/0
  2043 ;;		Unchanged: 0/0
  2044 ;; Data sizes:     COMRAM   BANK0   BANK1   BANK2   BANK3   BANK4   BANK5   BANK6   BANK7
  2045 ;;      Params:         2       0       0       0       0       0       0       0       0
  2046 ;;      Locals:         2       0       0       0       0       0       0       0       0
  2047 ;;      Temps:          2       0       0       0       0       0       0       0       0
  2048 ;;      Totals:         6       0       0       0       0       0       0       0       0
  2049 ;;Total ram usage:        6 bytes
  2050 ;; Hardware stack levels used:    1
  2051 ;; This function calls:
  2052 ;;		Nothing
  2053 ;; This function is called by:
  2054 ;;		_PWM_DutyCycle1
  2055 ;; This function uses a non-reentrant model
  2056 ;;
  2057                           
  2058                           	psect	text14
  2059  0066C8                     __ptext14:
  2060                           	opt stack 0
  2061  0066C8                     _SetDCPWM1:
  2062                           	opt stack 28
  2063                           
  2064                           ;incstack = 0
  2065  0066C8  C001  F003         	movff	SetDCPWM1@dutycycle,??_SetDCPWM1
  2066  0066CC  C002  F004         	movff	SetDCPWM1@dutycycle+1,??_SetDCPWM1+1
  2067  0066D0  0E06               	movlw	6
  2068  0066D2                     u1945:
  2069  0066D2  90D8               	bcf	status,0,c
  2070  0066D4  3603               	rlcf	??_SetDCPWM1,f,c
  2071  0066D6  3604               	rlcf	??_SetDCPWM1+1,f,c
  2072  0066D8  2EE8               	decfsz	wreg,f,c
  2073  0066DA  D7FB               	goto	u1945
  2074  0066DC  C003  F005         	movff	??_SetDCPWM1,SetDCPWM1@DCycle
  2075  0066E0  C004  F006         	movff	??_SetDCPWM1+1,SetDCPWM1@DCycle+1
  2076  0066E4  C006  FFBE         	movff	SetDCPWM1@DCycle+1,4030	;volatile
  2077  0066E8  C005  F003         	movff	SetDCPWM1@DCycle,??_SetDCPWM1
  2078  0066EC  90D8               	bcf	status,0,c
  2079  0066EE  3203               	rrcf	??_SetDCPWM1,f,c
  2080  0066F0  90D8               	bcf	status,0,c
  2081  0066F2  3203               	rrcf	??_SetDCPWM1,f,c
  2082  0066F4  0E30               	movlw	48
  2083  0066F6  1603               	andwf	??_SetDCPWM1,f,c
  2084  0066F8  50BD               	movf	4029,w,c	;volatile
  2085  0066FA  0BCF               	andlw	207
  2086  0066FC  1003               	iorwf	??_SetDCPWM1,w,c
  2087  0066FE  6EBD               	movwf	4029,c	;volatile
  2088  006700  0012               	return	
  2089  006702                     __end_of_SetDCPWM1:
  2090                           	opt stack 0
  2091                           tblptru	equ	0xFF8
  2092                           tblptrh	equ	0xFF7
  2093                           tblptrl	equ	0xFF6
  2094                           tablat	equ	0xFF5
  2095                           wreg	equ	0xFE8
  2096                           status	equ	0xFD8
  2097                           
  2098 ;; *************** function _getCNY70Value *****************
  2099 ;; Defined at:
  2100 ;;		line 4 in file "cny70.c"
  2101 ;; Parameters:    Size  Location     Type
  2102 ;;		None
  2103 ;; Auto vars:     Size  Location     Type
  2104 ;;		None
  2105 ;; Return value:  Size  Location     Type
  2106 ;;                  2    0[COMRAM] int 
  2107 ;; Registers used:
  2108 ;;		wreg, status,2
  2109 ;; Tracked objects:
  2110 ;;		On entry : 0/0
  2111 ;;		On exit  : 0/0
  2112 ;;		Unchanged: 0/0
  2113 ;; Data sizes:     COMRAM   BANK0   BANK1   BANK2   BANK3   BANK4   BANK5   BANK6   BANK7
  2114 ;;      Params:         2       0       0       0       0       0       0       0       0
  2115 ;;      Locals:         0       0       0       0       0       0       0       0       0
  2116 ;;      Temps:          0       0       0       0       0       0       0       0       0
  2117 ;;      Totals:         2       0       0       0       0       0       0       0       0
  2118 ;;Total ram usage:        2 bytes
  2119 ;; Hardware stack levels used:    1
  2120 ;; This function calls:
  2121 ;;		Nothing
  2122 ;; This function is called by:
  2123 ;;		_main
  2124 ;; This function uses a non-reentrant model
  2125 ;;
  2126                           
  2127                           	psect	text15
  2128  006A68                     __ptext15:
  2129                           	opt stack 0
  2130  006A68                     _getCNY70Value:
  2131                           	opt stack 30
  2132                           
  2133                           ;cny70.c: 24: if(PORTBbits.RB2 == 1 && PORTBbits.RB3 == 1 && PORTBbits.RB0 == 0 && PORTB
      +                          bits.RB4 == 1 && PORTBbits.RB1 == 1){
  2134                           
  2135                           ;incstack = 0
  2136  006A68  B481               	btfsc	3969,2,c	;volatile
  2137  006A6A  A681               	btfss	3969,3,c	;volatile
  2138  006A6C  D005               	goto	l210
  2139  006A6E  A081               	btfss	3969,0,c	;volatile
  2140  006A70  A881               	btfss	3969,4,c	;volatile
  2141  006A72  D002               	goto	l210
  2142  006A74  B281               	btfsc	3969,1,c	;volatile
  2143  006A76  D04F               	goto	l2547
  2144  006A78                     l210:
  2145                           
  2146                           ;cny70.c: 29: else if(PORTBbits.RB2 == 1 && PORTBbits.RB3 == 0 && PORTBbits.RB0 == 1 && 
      +                          PORTBbits.RB4 == 1 && PORTBbits.RB1 == 1){
  2147  006A78  B481               	btfsc	3969,2,c	;volatile
  2148  006A7A  B681               	btfsc	3969,3,c	;volatile
  2149  006A7C  D005               	goto	l213
  2150  006A7E  B081               	btfsc	3969,0,c	;volatile
  2151  006A80  A881               	btfss	3969,4,c	;volatile
  2152  006A82  D002               	goto	l213
  2153  006A84  B281               	btfsc	3969,1,c	;volatile
  2154  006A86  D038               	goto	u2780
  2155  006A88                     l213:
  2156                           
  2157                           ;cny70.c: 34: else if(PORTBbits.RB2 == 0 && PORTBbits.RB3 == 1 && PORTBbits.RB0 == 1 && 
      +                          PORTBbits.RB4 == 1 && PORTBbits.RB1 == 1){
  2158  006A88  A481               	btfss	3969,2,c	;volatile
  2159  006A8A  A681               	btfss	3969,3,c	;volatile
  2160  006A8C  D009               	goto	l215
  2161  006A8E  B081               	btfsc	3969,0,c	;volatile
  2162  006A90  A881               	btfss	3969,4,c	;volatile
  2163  006A92  D006               	goto	l215
  2164  006A94  A281               	btfss	3969,1,c	;volatile
  2165  006A96  D004               	goto	l215
  2166  006A98                     
  2167                           ;cny70.c: 36: return -2;
  2168  006A98  0EFF               	movlw	255
  2169  006A9A  6E02               	movwf	?_getCNY70Value+1,c
  2170  006A9C  0EFE               	movlw	254
  2171  006A9E  D03E               	goto	L4
  2172  006AA0                     l215:
  2173                           
  2174                           ;cny70.c: 39: else if(PORTBbits.RB2 == 1 && PORTBbits.RB3 == 1 && PORTBbits.RB0 == 1 && 
      +                          PORTBbits.RB4 == 0 && PORTBbits.RB1 == 1){
  2175  006AA0  B481               	btfsc	3969,2,c	;volatile
  2176  006AA2  A681               	btfss	3969,3,c	;volatile
  2177  006AA4  D005               	goto	l217
  2178  006AA6  B081               	btfsc	3969,0,c	;volatile
  2179  006AA8  B881               	btfsc	3969,4,c	;volatile
  2180  006AAA  D002               	goto	l217
  2181  006AAC  B281               	btfsc	3969,1,c	;volatile
  2182  006AAE  D02F               	goto	u2830
  2183  006AB0                     l217:
  2184                           
  2185                           ;cny70.c: 44: else if(PORTBbits.RB2 == 1 && PORTBbits.RB3 == 1 && PORTBbits.RB0 == 1 && 
      +                          PORTBbits.RB4 == 1 && PORTBbits.RB1 == 0){
  2186  006AB0  B481               	btfsc	3969,2,c	;volatile
  2187  006AB2  A681               	btfss	3969,3,c	;volatile
  2188  006AB4  D005               	goto	l219
  2189  006AB6  B081               	btfsc	3969,0,c	;volatile
  2190  006AB8  A881               	btfss	3969,4,c	;volatile
  2191  006ABA  D002               	goto	l219
  2192  006ABC  A281               	btfss	3969,1,c	;volatile
  2193  006ABE  D008               	goto	u2680
  2194  006AC0                     l219:
  2195                           
  2196                           ;cny70.c: 50: else if(PORTBbits.RB2 == 1 && PORTBbits.RB3 == 1 && PORTBbits.RB0 == 1 && 
      +                          PORTBbits.RB4 == 0 && PORTBbits.RB1 == 0){
  2197  006AC0  B481               	btfsc	3969,2,c	;volatile
  2198  006AC2  A681               	btfss	3969,3,c	;volatile
  2199  006AC4  D009               	goto	l221
  2200  006AC6  B081               	btfsc	3969,0,c	;volatile
  2201  006AC8  B881               	btfsc	3969,4,c	;volatile
  2202  006ACA  D006               	goto	l221
  2203  006ACC  B281               	btfsc	3969,1,c	;volatile
  2204  006ACE  D004               	goto	l221
  2205  006AD0                     u2680:
  2206                           
  2207                           ;cny70.c: 52: return 2;
  2208  006AD0  0E00               	movlw	0
  2209  006AD2  6E02               	movwf	?_getCNY70Value+1,c
  2210  006AD4  0E02               	movlw	2
  2211  006AD6  D022               	goto	L4
  2212  006AD8                     l221:
  2213                           
  2214                           ;cny70.c: 55: else if(PORTBbits.RB2 == 0 && PORTBbits.RB3 == 0 && PORTBbits.RB0 == 1 && 
      +                          PORTBbits.RB4 == 1 && PORTBbits.RB1 == 1){
  2215  006AD8  A481               	btfss	3969,2,c	;volatile
  2216  006ADA  B681               	btfsc	3969,3,c	;volatile
  2217  006ADC  D005               	goto	l223
  2218  006ADE  B081               	btfsc	3969,0,c	;volatile
  2219  006AE0  A881               	btfss	3969,4,c	;volatile
  2220  006AE2  D002               	goto	l223
  2221  006AE4  B281               	btfsc	3969,1,c	;volatile
  2222  006AE6  D7D8               	goto	L5
  2223  006AE8                     l223:
  2224                           
  2225                           ;cny70.c: 60: else if(PORTBbits.RB2 == 1 && PORTBbits.RB3 == 0 && PORTBbits.RB0 == 0 && 
      +                          PORTBbits.RB4 == 1 && PORTBbits.RB1 == 1){
  2226  006AE8  B481               	btfsc	3969,2,c	;volatile
  2227  006AEA  B681               	btfsc	3969,3,c	;volatile
  2228  006AEC  D008               	goto	l225
  2229  006AEE  A081               	btfss	3969,0,c	;volatile
  2230  006AF0  A881               	btfss	3969,4,c	;volatile
  2231  006AF2  D005               	goto	l225
  2232  006AF4  A281               	btfss	3969,1,c	;volatile
  2233  006AF6  D003               	goto	l225
  2234  006AF8                     u2780:
  2235                           
  2236                           ;cny70.c: 62: return -1;
  2237  006AF8  6801               	setf	?_getCNY70Value,c
  2238  006AFA  6802               	setf	?_getCNY70Value+1,c
  2239  006AFC  D010               	goto	l211
  2240  006AFE                     l225:
  2241                           
  2242                           ;cny70.c: 65: else if(PORTBbits.RB2 == 1 && PORTBbits.RB3 == 1 && PORTBbits.RB0 == 0 && 
      +                          PORTBbits.RB4 == 0 && PORTBbits.RB1 == 1){
  2243  006AFE  B481               	btfsc	3969,2,c	;volatile
  2244  006B00  A681               	btfss	3969,3,c	;volatile
  2245  006B02  D009               	goto	l2547
  2246  006B04  A081               	btfss	3969,0,c	;volatile
  2247  006B06  B881               	btfsc	3969,4,c	;volatile
  2248  006B08  D006               	goto	l2547
  2249  006B0A  A281               	btfss	3969,1,c	;volatile
  2250  006B0C  D004               	goto	l2547
  2251  006B0E                     u2830:
  2252                           
  2253                           ;cny70.c: 67: return 1;
  2254  006B0E  0E00               	movlw	0
  2255  006B10  6E02               	movwf	?_getCNY70Value+1,c
  2256  006B12  0E01               	movlw	1
  2257  006B14  D003               	goto	L4
  2258  006B16                     l2547:
  2259                           
  2260                           ;cny70.c: 75: else
  2261                           ;cny70.c: 76: return 0;
  2262  006B16  0E00               	movlw	0
  2263  006B18  6E02               	movwf	?_getCNY70Value+1,c
  2264  006B1A  0E00               	movlw	0
  2265  006B1C                     L4:
  2266  006B1C  6E01               	movwf	?_getCNY70Value,c
  2267  006B1E                     l211:
  2268  006B1E  0012               	return	
  2269  006B20                     __end_of_getCNY70Value:
  2270                           	opt stack 0
  2271                           tblptru	equ	0xFF8
  2272                           tblptrh	equ	0xFF7
  2273                           tblptrl	equ	0xFF6
  2274                           tablat	equ	0xFF5
  2275                           wreg	equ	0xFE8
  2276                           status	equ	0xFD8
  2277                           
  2278 ;; *************** function _fuzzy_system_single2 *****************
  2279 ;; Defined at:
  2280 ;;		line 234 in file "fuzzy.c"
  2281 ;; Parameters:    Size  Location     Type
  2282 ;;  input           3   82[COMRAM] int 
  2283 ;; Auto vars:     Size  Location     Type
  2284 ;;  y             120  120[BANK6 ] [40]
  2285 ;;  x             120    0[BANK6 ] [40]
  2286 ;;  overall_out_  120  120[BANK5 ] [40]
  2287 ;;  qualified_co  120  120[BANK4 ] [40]
  2288 ;;  qualified_co  120  120[BANK3 ] [40]
  2289 ;;  cons_mf3      120    0[BANK5 ] [40]
  2290 ;;  qualified_co  120    0[BANK4 ] [40]
  2291 ;;  cons_mf1      120    0[BANK3 ] [40]
  2292 ;;  ante_mf3      120  120[BANK2 ] [40]
  2293 ;;  cons_mf2      120    0[BANK2 ] [40]
  2294 ;;  ante_mf2      120  120[BANK1 ] [40]
  2295 ;;  ante_mf1      120    0[BANK1 ] [40]
  2296 ;;  output          3  122[BANK0 ] [40]
  2297 ;;  w3              3   91[COMRAM] [40]
  2298 ;;  w2              3   88[COMRAM] [40]
  2299 ;;  w1              3   85[COMRAM] [40]
  2300 ;;  i               2    0        int 
  2301 ;; Return value:  Size  Location     Type
  2302 ;;                  3   82[COMRAM] int 
  2303 ;; Registers used:
  2304 ;;		wreg, fsr1l, fsr1h, fsr2l, fsr2h, status,2, status,0, prodl, prodh, cstack
  2305 ;; Tracked objects:
  2306 ;;		On entry : 0/0
  2307 ;;		On exit  : 0/0
  2308 ;;		Unchanged: 0/0
  2309 ;; Data sizes:     COMRAM   BANK0   BANK1   BANK2   BANK3   BANK4   BANK5   BANK6   BANK7
  2310 ;;      Params:         3       0       0       0       0       0       0       0       0
  2311 ;;      Locals:         9       3     240     240     240     240     240     240       0
  2312 ;;      Temps:          0       0       0       0       0       0       0       0       0
  2313 ;;      Totals:        12       3     240     240     240     240     240     240       0
  2314 ;;Total ram usage:     1455 bytes
  2315 ;; Hardware stack levels used:    1
  2316 ;; Hardware stack levels required when called:    4
  2317 ;; This function calls:
  2318 ;;		_defuzzy
  2319 ;;		_linspace
  2320 ;;		_out_mf
  2321 ;;		_qualified
  2322 ;;		_tri_mf
  2323 ;;		_triangular
  2324 ;; This function is called by:
  2325 ;;		_main
  2326 ;; This function uses a non-reentrant model
  2327 ;;
  2328                           
  2329                           	psect	text16
  2330  007C7E                     __ptext16:
  2331                           	opt stack 0
  2332  007C7E                     _fuzzy_system_single2:
  2333                           	opt stack 26
  2334                           
  2335                           ;fuzzy.c: 236: double ante_mf1[40],cons_mf1[40];
  2336                           ;fuzzy.c: 237: double ante_mf2[40],cons_mf2[40];
  2337                           ;fuzzy.c: 238: double ante_mf3[40],cons_mf3[40];
  2338                           ;fuzzy.c: 239: double x[40],y[40];
  2339                           ;fuzzy.c: 240: double qualified_cons_mf1[40],qualified_cons_mf2[40],qualified_cons_mf3[4
      +                          0];
  2340                           ;fuzzy.c: 241: double overall_out_mf[40];
  2341                           ;fuzzy.c: 242: double w1,w2,w3;
  2342                           ;fuzzy.c: 243: double output;
  2343                           ;fuzzy.c: 244: int i;
  2344                           ;fuzzy.c: 245: linspace(x,-2,2,40);
  2345                           
  2346                           ;incstack = 0
  2347  007C7E  0106               	movlb	6	; () banked
  2348  007C80  0E06               	movlw	high fuzzy_system_single2@x
  2349  007C82  6E38               	movwf	linspace@x+1,c
  2350  007C84  0106               	movlb	6	; () banked
  2351  007C86  0E00               	movlw	low fuzzy_system_single2@x
  2352  007C88  6E37               	movwf	linspace@x,c
  2353  007C8A  0E00               	movlw	0
  2354  007C8C  6E39               	movwf	linspace@start,c
  2355  007C8E  0E00               	movlw	0
  2356  007C90  6E3A               	movwf	linspace@start+1,c
  2357  007C92  0EC0               	movlw	192
  2358  007C94  6E3B               	movwf	linspace@start+2,c
  2359  007C96  0E00               	movlw	0
  2360  007C98  6E3C               	movwf	linspace@end,c
  2361  007C9A  0E00               	movlw	0
  2362  007C9C  6E3D               	movwf	linspace@end+1,c
  2363  007C9E  0E40               	movlw	64
  2364  007CA0  6E3E               	movwf	linspace@end+2,c
  2365  007CA2  0E00               	movlw	0
  2366  007CA4  6E40               	movwf	linspace@size+1,c
  2367  007CA6  0E28               	movlw	40
  2368  007CA8  6E3F               	movwf	linspace@size,c
  2369  007CAA  ECC5  F037         	call	_linspace	;wreg free
  2370                           
  2371                           ;fuzzy.c: 246: linspace(y,0,100,40);
  2372  007CAE  0106               	movlb	6	; () banked
  2373  007CB0  0E06               	movlw	high fuzzy_system_single2@y
  2374  007CB2  6E38               	movwf	linspace@x+1,c
  2375  007CB4  0106               	movlb	6	; () banked
  2376  007CB6  0E78               	movlw	low fuzzy_system_single2@y
  2377  007CB8  6E37               	movwf	linspace@x,c
  2378  007CBA  0E00               	movlw	0
  2379  007CBC  6E39               	movwf	linspace@start,c
  2380  007CBE  0E00               	movlw	0
  2381  007CC0  6E3A               	movwf	linspace@start+1,c
  2382  007CC2  0E00               	movlw	0
  2383  007CC4  6E3B               	movwf	linspace@start+2,c
  2384  007CC6  0E00               	movlw	0
  2385  007CC8  6E3C               	movwf	linspace@end,c
  2386  007CCA  0EC8               	movlw	200
  2387  007CCC  6E3D               	movwf	linspace@end+1,c
  2388  007CCE  0E42               	movlw	66
  2389  007CD0  6E3E               	movwf	linspace@end+2,c
  2390  007CD2  0E00               	movlw	0
  2391  007CD4  6E40               	movwf	linspace@size+1,c
  2392  007CD6  0E28               	movlw	40
  2393  007CD8  6E3F               	movwf	linspace@size,c
  2394  007CDA  ECC5  F037         	call	_linspace	;wreg free
  2395                           
  2396                           ;fuzzy.c: 249: tri_mf(ante_mf1,x,-3.6, -2, -0.4);
  2397  007CDE  0101               	movlb	1	; () banked
  2398  007CE0  0E01               	movlw	high fuzzy_system_single2@ante_mf1
  2399  007CE2  6E47               	movwf	tri_mf@t_value+1,c
  2400  007CE4  0101               	movlb	1	; () banked
  2401  007CE6  0E00               	movlw	low fuzzy_system_single2@ante_mf1
  2402  007CE8  6E46               	movwf	tri_mf@t_value,c
  2403  007CEA  0106               	movlb	6	; () banked
  2404  007CEC  0E06               	movlw	high fuzzy_system_single2@x
  2405  007CEE  6E49               	movwf	tri_mf@x+1,c
  2406  007CF0  0106               	movlb	6	; () banked
  2407  007CF2  0E00               	movlw	low fuzzy_system_single2@x
  2408  007CF4  6E48               	movwf	tri_mf@x,c
  2409  007CF6  0E66               	movlw	102
  2410  007CF8  6E4A               	movwf	tri_mf@a,c
  2411  007CFA  0E66               	movlw	102
  2412  007CFC  6E4B               	movwf	tri_mf@a+1,c
  2413  007CFE  0EC0               	movlw	192
  2414  007D00  6E4C               	movwf	tri_mf@a+2,c
  2415  007D02  0E00               	movlw	0
  2416  007D04  6E4D               	movwf	tri_mf@b,c
  2417  007D06  0E00               	movlw	0
  2418  007D08  6E4E               	movwf	tri_mf@b+1,c
  2419  007D0A  0EC0               	movlw	192
  2420  007D0C  6E4F               	movwf	tri_mf@b+2,c
  2421  007D0E  0ECD               	movlw	205
  2422  007D10  6E50               	movwf	tri_mf@c,c
  2423  007D12  0ECC               	movlw	204
  2424  007D14  6E51               	movwf	tri_mf@c+1,c
  2425  007D16  0EBE               	movlw	190
  2426  007D18  6E52               	movwf	tri_mf@c+2,c
  2427  007D1A  EC46  F038         	call	_tri_mf	;wreg free
  2428                           
  2429                           ;fuzzy.c: 250: tri_mf(ante_mf2,x,-1.6, 0, 1.6);
  2430  007D1E  0101               	movlb	1	; () banked
  2431  007D20  0E01               	movlw	high fuzzy_system_single2@ante_mf2
  2432  007D22  6E47               	movwf	tri_mf@t_value+1,c
  2433  007D24  0101               	movlb	1	; () banked
  2434  007D26  0E78               	movlw	low fuzzy_system_single2@ante_mf2
  2435  007D28  6E46               	movwf	tri_mf@t_value,c
  2436  007D2A  0106               	movlb	6	; () banked
  2437  007D2C  0E06               	movlw	high fuzzy_system_single2@x
  2438  007D2E  6E49               	movwf	tri_mf@x+1,c
  2439  007D30  0106               	movlb	6	; () banked
  2440  007D32  0E00               	movlw	low fuzzy_system_single2@x
  2441  007D34  6E48               	movwf	tri_mf@x,c
  2442  007D36  0ECD               	movlw	205
  2443  007D38  6E4A               	movwf	tri_mf@a,c
  2444  007D3A  0ECC               	movlw	204
  2445  007D3C  6E4B               	movwf	tri_mf@a+1,c
  2446  007D3E  0EBF               	movlw	191
  2447  007D40  6E4C               	movwf	tri_mf@a+2,c
  2448  007D42  0E00               	movlw	0
  2449  007D44  6E4D               	movwf	tri_mf@b,c
  2450  007D46  0E00               	movlw	0
  2451  007D48  6E4E               	movwf	tri_mf@b+1,c
  2452  007D4A  0E00               	movlw	0
  2453  007D4C  6E4F               	movwf	tri_mf@b+2,c
  2454  007D4E  0ECD               	movlw	205
  2455  007D50  6E50               	movwf	tri_mf@c,c
  2456  007D52  0ECC               	movlw	204
  2457  007D54  6E51               	movwf	tri_mf@c+1,c
  2458  007D56  0E3F               	movlw	63
  2459  007D58  6E52               	movwf	tri_mf@c+2,c
  2460  007D5A  EC46  F038         	call	_tri_mf	;wreg free
  2461                           
  2462                           ;fuzzy.c: 251: tri_mf(ante_mf3,x,0.4, 2, 3.6);
  2463  007D5E  0102               	movlb	2	; () banked
  2464  007D60  0E02               	movlw	high fuzzy_system_single2@ante_mf3
  2465  007D62  6E47               	movwf	tri_mf@t_value+1,c
  2466  007D64  0102               	movlb	2	; () banked
  2467  007D66  0E78               	movlw	low fuzzy_system_single2@ante_mf3
  2468  007D68  6E46               	movwf	tri_mf@t_value,c
  2469  007D6A  0106               	movlb	6	; () banked
  2470  007D6C  0E06               	movlw	high fuzzy_system_single2@x
  2471  007D6E  6E49               	movwf	tri_mf@x+1,c
  2472  007D70  0106               	movlb	6	; () banked
  2473  007D72  0E00               	movlw	low fuzzy_system_single2@x
  2474  007D74  6E48               	movwf	tri_mf@x,c
  2475  007D76  0ECD               	movlw	205
  2476  007D78  6E4A               	movwf	tri_mf@a,c
  2477  007D7A  0ECC               	movlw	204
  2478  007D7C  6E4B               	movwf	tri_mf@a+1,c
  2479  007D7E  0E3E               	movlw	62
  2480  007D80  6E4C               	movwf	tri_mf@a+2,c
  2481  007D82  0E00               	movlw	0
  2482  007D84  6E4D               	movwf	tri_mf@b,c
  2483  007D86  0E00               	movlw	0
  2484  007D88  6E4E               	movwf	tri_mf@b+1,c
  2485  007D8A  0E40               	movlw	64
  2486  007D8C  6E4F               	movwf	tri_mf@b+2,c
  2487  007D8E  0E66               	movlw	102
  2488  007D90  6E50               	movwf	tri_mf@c,c
  2489  007D92  0E66               	movlw	102
  2490  007D94  6E51               	movwf	tri_mf@c+1,c
  2491  007D96  0E40               	movlw	64
  2492  007D98  6E52               	movwf	tri_mf@c+2,c
  2493  007D9A  EC46  F038         	call	_tri_mf	;wreg free
  2494                           
  2495                           ;fuzzy.c: 254: tri_mf(cons_mf1,y,-40, 0, 40);
  2496  007D9E  0103               	movlb	3	; () banked
  2497  007DA0  0E03               	movlw	high fuzzy_system_single2@cons_mf1
  2498  007DA2  6E47               	movwf	tri_mf@t_value+1,c
  2499  007DA4  0103               	movlb	3	; () banked
  2500  007DA6  0E00               	movlw	low fuzzy_system_single2@cons_mf1
  2501  007DA8  6E46               	movwf	tri_mf@t_value,c
  2502  007DAA  0106               	movlb	6	; () banked
  2503  007DAC  0E06               	movlw	high fuzzy_system_single2@y
  2504  007DAE  6E49               	movwf	tri_mf@x+1,c
  2505  007DB0  0106               	movlb	6	; () banked
  2506  007DB2  0E78               	movlw	low fuzzy_system_single2@y
  2507  007DB4  6E48               	movwf	tri_mf@x,c
  2508  007DB6  0E00               	movlw	0
  2509  007DB8  6E4A               	movwf	tri_mf@a,c
  2510  007DBA  0E20               	movlw	32
  2511  007DBC  6E4B               	movwf	tri_mf@a+1,c
  2512  007DBE  0EC2               	movlw	194
  2513  007DC0  6E4C               	movwf	tri_mf@a+2,c
  2514  007DC2  0E00               	movlw	0
  2515  007DC4  6E4D               	movwf	tri_mf@b,c
  2516  007DC6  0E00               	movlw	0
  2517  007DC8  6E4E               	movwf	tri_mf@b+1,c
  2518  007DCA  0E00               	movlw	0
  2519  007DCC  6E4F               	movwf	tri_mf@b+2,c
  2520  007DCE  0E00               	movlw	0
  2521  007DD0  6E50               	movwf	tri_mf@c,c
  2522  007DD2  0E20               	movlw	32
  2523  007DD4  6E51               	movwf	tri_mf@c+1,c
  2524  007DD6  0E42               	movlw	66
  2525  007DD8  6E52               	movwf	tri_mf@c+2,c
  2526  007DDA  EC46  F038         	call	_tri_mf	;wreg free
  2527                           
  2528                           ;fuzzy.c: 255: tri_mf(cons_mf2,y,10, 50, 90);
  2529  007DDE  0102               	movlb	2	; () banked
  2530  007DE0  0E02               	movlw	high fuzzy_system_single2@cons_mf2
  2531  007DE2  6E47               	movwf	tri_mf@t_value+1,c
  2532  007DE4  0102               	movlb	2	; () banked
  2533  007DE6  0E00               	movlw	low fuzzy_system_single2@cons_mf2
  2534  007DE8  6E46               	movwf	tri_mf@t_value,c
  2535  007DEA  0106               	movlb	6	; () banked
  2536  007DEC  0E06               	movlw	high fuzzy_system_single2@y
  2537  007DEE  6E49               	movwf	tri_mf@x+1,c
  2538  007DF0  0106               	movlb	6	; () banked
  2539  007DF2  0E78               	movlw	low fuzzy_system_single2@y
  2540  007DF4  6E48               	movwf	tri_mf@x,c
  2541  007DF6  0E00               	movlw	0
  2542  007DF8  6E4A               	movwf	tri_mf@a,c
  2543  007DFA  0E20               	movlw	32
  2544  007DFC  6E4B               	movwf	tri_mf@a+1,c
  2545  007DFE  0E41               	movlw	65
  2546  007E00  6E4C               	movwf	tri_mf@a+2,c
  2547  007E02  0E00               	movlw	0
  2548  007E04  6E4D               	movwf	tri_mf@b,c
  2549  007E06  0E48               	movlw	72
  2550  007E08  6E4E               	movwf	tri_mf@b+1,c
  2551  007E0A  0E42               	movlw	66
  2552  007E0C  6E4F               	movwf	tri_mf@b+2,c
  2553  007E0E  0E00               	movlw	0
  2554  007E10  6E50               	movwf	tri_mf@c,c
  2555  007E12  0EB4               	movlw	180
  2556  007E14  6E51               	movwf	tri_mf@c+1,c
  2557  007E16  0E42               	movlw	66
  2558  007E18  6E52               	movwf	tri_mf@c+2,c
  2559  007E1A  EC46  F038         	call	_tri_mf	;wreg free
  2560                           
  2561                           ;fuzzy.c: 256: tri_mf(cons_mf3,y,60, 100, 140);
  2562  007E1E  0105               	movlb	5	; () banked
  2563  007E20  0E05               	movlw	high fuzzy_system_single2@cons_mf3
  2564  007E22  6E47               	movwf	tri_mf@t_value+1,c
  2565  007E24  0105               	movlb	5	; () banked
  2566  007E26  0E00               	movlw	low fuzzy_system_single2@cons_mf3
  2567  007E28  6E46               	movwf	tri_mf@t_value,c
  2568  007E2A  0106               	movlb	6	; () banked
  2569  007E2C  0E06               	movlw	high fuzzy_system_single2@y
  2570  007E2E  6E49               	movwf	tri_mf@x+1,c
  2571  007E30  0106               	movlb	6	; () banked
  2572  007E32  0E78               	movlw	low fuzzy_system_single2@y
  2573  007E34  6E48               	movwf	tri_mf@x,c
  2574  007E36  0E00               	movlw	0
  2575  007E38  6E4A               	movwf	tri_mf@a,c
  2576  007E3A  0E70               	movlw	112
  2577  007E3C  6E4B               	movwf	tri_mf@a+1,c
  2578  007E3E  0E42               	movlw	66
  2579  007E40  6E4C               	movwf	tri_mf@a+2,c
  2580  007E42  0E00               	movlw	0
  2581  007E44  6E4D               	movwf	tri_mf@b,c
  2582  007E46  0EC8               	movlw	200
  2583  007E48  6E4E               	movwf	tri_mf@b+1,c
  2584  007E4A  0E42               	movlw	66
  2585  007E4C  6E4F               	movwf	tri_mf@b+2,c
  2586  007E4E  0E00               	movlw	0
  2587  007E50  6E50               	movwf	tri_mf@c,c
  2588  007E52  0E0C               	movlw	12
  2589  007E54  6E51               	movwf	tri_mf@c+1,c
  2590  007E56  0E43               	movlw	67
  2591  007E58  6E52               	movwf	tri_mf@c+2,c
  2592  007E5A  EC46  F038         	call	_tri_mf	;wreg free
  2593                           
  2594                           ;fuzzy.c: 260: w1=triangular(-3.6, -2, -0.4,input);
  2595  007E5E  0E66               	movlw	102
  2596  007E60  6E37               	movwf	triangular@a,c
  2597  007E62  0E66               	movlw	102
  2598  007E64  6E38               	movwf	triangular@a+1,c
  2599  007E66  0EC0               	movlw	192
  2600  007E68  6E39               	movwf	triangular@a+2,c
  2601  007E6A  0E00               	movlw	0
  2602  007E6C  6E3A               	movwf	triangular@b,c
  2603  007E6E  0E00               	movlw	0
  2604  007E70  6E3B               	movwf	triangular@b+1,c
  2605  007E72  0EC0               	movlw	192
  2606  007E74  6E3C               	movwf	triangular@b+2,c
  2607  007E76  0ECD               	movlw	205
  2608  007E78  6E3D               	movwf	triangular@c,c
  2609  007E7A  0ECC               	movlw	204
  2610  007E7C  6E3E               	movwf	triangular@c+1,c
  2611  007E7E  0EBE               	movlw	190
  2612  007E80  6E3F               	movwf	triangular@c+2,c
  2613  007E82  C053  F040         	movff	fuzzy_system_single2@input,triangular@x
  2614  007E86  C054  F041         	movff	fuzzy_system_single2@input+1,triangular@x+1
  2615  007E8A  C055  F042         	movff	fuzzy_system_single2@input+2,triangular@x+2
  2616  007E8E  EC5E  F03A         	call	_triangular	;wreg free
  2617  007E92  C037  F056         	movff	?_triangular,fuzzy_system_single2@w1
  2618  007E96  C038  F057         	movff	?_triangular+1,fuzzy_system_single2@w1+1
  2619  007E9A  C039  F058         	movff	?_triangular+2,fuzzy_system_single2@w1+2
  2620                           
  2621                           ;fuzzy.c: 261: w2=triangular(-1.6, 0, 1.6,input);
  2622  007E9E  0ECD               	movlw	205
  2623  007EA0  6E37               	movwf	triangular@a,c
  2624  007EA2  0ECC               	movlw	204
  2625  007EA4  6E38               	movwf	triangular@a+1,c
  2626  007EA6  0EBF               	movlw	191
  2627  007EA8  6E39               	movwf	triangular@a+2,c
  2628  007EAA  0E00               	movlw	0
  2629  007EAC  6E3A               	movwf	triangular@b,c
  2630  007EAE  0E00               	movlw	0
  2631  007EB0  6E3B               	movwf	triangular@b+1,c
  2632  007EB2  0E00               	movlw	0
  2633  007EB4  6E3C               	movwf	triangular@b+2,c
  2634  007EB6  0ECD               	movlw	205
  2635  007EB8  6E3D               	movwf	triangular@c,c
  2636  007EBA  0ECC               	movlw	204
  2637  007EBC  6E3E               	movwf	triangular@c+1,c
  2638  007EBE  0E3F               	movlw	63
  2639  007EC0  6E3F               	movwf	triangular@c+2,c
  2640  007EC2  C053  F040         	movff	fuzzy_system_single2@input,triangular@x
  2641  007EC6  C054  F041         	movff	fuzzy_system_single2@input+1,triangular@x+1
  2642  007ECA  C055  F042         	movff	fuzzy_system_single2@input+2,triangular@x+2
  2643  007ECE  EC5E  F03A         	call	_triangular	;wreg free
  2644  007ED2  C037  F059         	movff	?_triangular,fuzzy_system_single2@w2
  2645  007ED6  C038  F05A         	movff	?_triangular+1,fuzzy_system_single2@w2+1
  2646  007EDA  C039  F05B         	movff	?_triangular+2,fuzzy_system_single2@w2+2
  2647                           
  2648                           ;fuzzy.c: 262: w3=triangular(0.4, 2, 3.6,input);
  2649  007EDE  0ECD               	movlw	205
  2650  007EE0  6E37               	movwf	triangular@a,c
  2651  007EE2  0ECC               	movlw	204
  2652  007EE4  6E38               	movwf	triangular@a+1,c
  2653  007EE6  0E3E               	movlw	62
  2654  007EE8  6E39               	movwf	triangular@a+2,c
  2655  007EEA  0E00               	movlw	0
  2656  007EEC  6E3A               	movwf	triangular@b,c
  2657  007EEE  0E00               	movlw	0
  2658  007EF0  6E3B               	movwf	triangular@b+1,c
  2659  007EF2  0E40               	movlw	64
  2660  007EF4  6E3C               	movwf	triangular@b+2,c
  2661  007EF6  0E66               	movlw	102
  2662  007EF8  6E3D               	movwf	triangular@c,c
  2663  007EFA  0E66               	movlw	102
  2664  007EFC  6E3E               	movwf	triangular@c+1,c
  2665  007EFE  0E40               	movlw	64
  2666  007F00  6E3F               	movwf	triangular@c+2,c
  2667  007F02  C053  F040         	movff	fuzzy_system_single2@input,triangular@x
  2668  007F06  C054  F041         	movff	fuzzy_system_single2@input+1,triangular@x+1
  2669  007F0A  C055  F042         	movff	fuzzy_system_single2@input+2,triangular@x+2
  2670  007F0E  EC5E  F03A         	call	_triangular	;wreg free
  2671  007F12  C037  F05C         	movff	?_triangular,fuzzy_system_single2@w3
  2672  007F16  C038  F05D         	movff	?_triangular+1,fuzzy_system_single2@w3+1
  2673  007F1A  C039  F05E         	movff	?_triangular+2,fuzzy_system_single2@w3+2
  2674                           
  2675                           ;fuzzy.c: 263: qualified(qualified_cons_mf1,cons_mf1,w1);
  2676  007F1E  0103               	movlb	3	; () banked
  2677  007F20  0E03               	movlw	high fuzzy_system_single2@qualified_cons_mf1
  2678  007F22  6E11               	movwf	qualified@y+1,c
  2679  007F24  0103               	movlb	3	; () banked
  2680  007F26  0E78               	movlw	low fuzzy_system_single2@qualified_cons_mf1
  2681  007F28  6E10               	movwf	qualified@y,c
  2682  007F2A  0103               	movlb	3	; () banked
  2683  007F2C  0E03               	movlw	high fuzzy_system_single2@cons_mf1
  2684  007F2E  6E13               	movwf	qualified@x+1,c
  2685  007F30  0103               	movlb	3	; () banked
  2686  007F32  0E00               	movlw	low fuzzy_system_single2@cons_mf1
  2687  007F34  6E12               	movwf	qualified@x,c
  2688  007F36  C056  F014         	movff	fuzzy_system_single2@w1,qualified@w
  2689  007F3A  C057  F015         	movff	fuzzy_system_single2@w1+1,qualified@w+1
  2690  007F3E  C058  F016         	movff	fuzzy_system_single2@w1+2,qualified@w+2
  2691  007F42  ECD7  F036         	call	_qualified	;wreg free
  2692                           
  2693                           ;fuzzy.c: 264: qualified(qualified_cons_mf2,cons_mf3,w2);
  2694  007F46  0104               	movlb	4	; () banked
  2695  007F48  0E04               	movlw	high fuzzy_system_single2@qualified_cons_mf2
  2696  007F4A  6E11               	movwf	qualified@y+1,c
  2697  007F4C  0104               	movlb	4	; () banked
  2698  007F4E  0E78               	movlw	low fuzzy_system_single2@qualified_cons_mf2
  2699  007F50  6E10               	movwf	qualified@y,c
  2700  007F52  0105               	movlb	5	; () banked
  2701  007F54  0E05               	movlw	high fuzzy_system_single2@cons_mf3
  2702  007F56  6E13               	movwf	qualified@x+1,c
  2703  007F58  0105               	movlb	5	; () banked
  2704  007F5A  0E00               	movlw	low fuzzy_system_single2@cons_mf3
  2705  007F5C  6E12               	movwf	qualified@x,c
  2706  007F5E  C059  F014         	movff	fuzzy_system_single2@w2,qualified@w
  2707  007F62  C05A  F015         	movff	fuzzy_system_single2@w2+1,qualified@w+1
  2708  007F66  C05B  F016         	movff	fuzzy_system_single2@w2+2,qualified@w+2
  2709  007F6A  ECD7  F036         	call	_qualified	;wreg free
  2710                           
  2711                           ;fuzzy.c: 265: qualified(qualified_cons_mf3,cons_mf3,w3);
  2712  007F6E  0104               	movlb	4	; () banked
  2713  007F70  0E04               	movlw	high fuzzy_system_single2@qualified_cons_mf3
  2714  007F72  6E11               	movwf	qualified@y+1,c
  2715  007F74  0104               	movlb	4	; () banked
  2716  007F76  0E00               	movlw	low fuzzy_system_single2@qualified_cons_mf3
  2717  007F78  6E10               	movwf	qualified@y,c
  2718  007F7A  0105               	movlb	5	; () banked
  2719  007F7C  0E05               	movlw	high fuzzy_system_single2@cons_mf3
  2720  007F7E  6E13               	movwf	qualified@x+1,c
  2721  007F80  0105               	movlb	5	; () banked
  2722  007F82  0E00               	movlw	low fuzzy_system_single2@cons_mf3
  2723  007F84  6E12               	movwf	qualified@x,c
  2724  007F86  C05C  F014         	movff	fuzzy_system_single2@w3,qualified@w
  2725  007F8A  C05D  F015         	movff	fuzzy_system_single2@w3+1,qualified@w+1
  2726  007F8E  C05E  F016         	movff	fuzzy_system_single2@w3+2,qualified@w+2
  2727  007F92  ECD7  F036         	call	_qualified	;wreg free
  2728                           
  2729                           ;fuzzy.c: 266: out_mf(overall_out_mf,qualified_cons_mf1,qualified_cons_mf2,qualified_con
      +                          s_mf3);
  2730  007F96  0105               	movlb	5	; () banked
  2731  007F98  0E05               	movlw	high fuzzy_system_single2@overall_out_mf
  2732  007F9A  6E11               	movwf	out_mf@result+1,c
  2733  007F9C  0105               	movlb	5	; () banked
  2734  007F9E  0E78               	movlw	low fuzzy_system_single2@overall_out_mf
  2735  007FA0  6E10               	movwf	out_mf@result,c
  2736  007FA2  0103               	movlb	3	; () banked
  2737  007FA4  0E03               	movlw	high fuzzy_system_single2@qualified_cons_mf1
  2738  007FA6  6E13               	movwf	out_mf@x+1,c
  2739  007FA8  0103               	movlb	3	; () banked
  2740  007FAA  0E78               	movlw	low fuzzy_system_single2@qualified_cons_mf1
  2741  007FAC  6E12               	movwf	out_mf@x,c
  2742  007FAE  0104               	movlb	4	; () banked
  2743  007FB0  0E04               	movlw	high fuzzy_system_single2@qualified_cons_mf2
  2744  007FB2  6E15               	movwf	out_mf@y+1,c
  2745  007FB4  0104               	movlb	4	; () banked
  2746  007FB6  0E78               	movlw	low fuzzy_system_single2@qualified_cons_mf2
  2747  007FB8  6E14               	movwf	out_mf@y,c
  2748  007FBA  0104               	movlb	4	; () banked
  2749  007FBC  0E04               	movlw	high fuzzy_system_single2@qualified_cons_mf3
  2750  007FBE  6E17               	movwf	out_mf@z+1,c
  2751  007FC0  0104               	movlb	4	; () banked
  2752  007FC2  0E00               	movlw	low fuzzy_system_single2@qualified_cons_mf3
  2753  007FC4  6E16               	movwf	out_mf@z,c
  2754  007FC6  EC51  F03B         	call	_out_mf	;wreg free
  2755                           
  2756                           ;fuzzy.c: 267: output= defuzzy(y,overall_out_mf);
  2757  007FCA  0106               	movlb	6	; () banked
  2758  007FCC  0E06               	movlw	high fuzzy_system_single2@y
  2759  007FCE  6E38               	movwf	defuzzy@x+1,c
  2760  007FD0  0106               	movlb	6	; () banked
  2761  007FD2  0E78               	movlw	low fuzzy_system_single2@y
  2762  007FD4  6E37               	movwf	defuzzy@x,c
  2763  007FD6  0105               	movlb	5	; () banked
  2764  007FD8  0E05               	movlw	high fuzzy_system_single2@overall_out_mf
  2765  007FDA  6E3A               	movwf	defuzzy@mf+1,c
  2766  007FDC  0105               	movlb	5	; () banked
  2767  007FDE  0E78               	movlw	low fuzzy_system_single2@overall_out_mf
  2768  007FE0  6E39               	movwf	defuzzy@mf,c
  2769  007FE2  ECD7  F038         	call	_defuzzy	;wreg free
  2770  007FE6  C037  F0DA         	movff	?_defuzzy,fuzzy_system_single2@output
  2771  007FEA  C038  F0DB         	movff	?_defuzzy+1,fuzzy_system_single2@output+1
  2772  007FEE  C039  F0DC         	movff	?_defuzzy+2,fuzzy_system_single2@output+2
  2773                           
  2774                           ;fuzzy.c: 268: return output;
  2775  007FF2  C0DA  F053         	movff	fuzzy_system_single2@output,?_fuzzy_system_single2
  2776  007FF6  C0DB  F054         	movff	fuzzy_system_single2@output+1,?_fuzzy_system_single2+1
  2777  007FFA  C0DC  F055         	movff	fuzzy_system_single2@output+2,?_fuzzy_system_single2+2
  2778  007FFE  0012               	return	
  2779  008000                     __end_of_fuzzy_system_single2:
  2780                           	opt stack 0
  2781                           tblptru	equ	0xFF8
  2782                           tblptrh	equ	0xFF7
  2783                           tblptrl	equ	0xFF6
  2784                           tablat	equ	0xFF5
  2785                           wreg	equ	0xFE8
  2786                           status	equ	0xFD8
  2787                           
  2788 ;; *************** function _fuzzy_system_single1 *****************
  2789 ;; Defined at:
  2790 ;;		line 275 in file "fuzzy.c"
  2791 ;; Parameters:    Size  Location     Type
  2792 ;;  input           3   82[COMRAM] int 
  2793 ;; Auto vars:     Size  Location     Type
  2794 ;;  y             120  120[BANK6 ] [40]
  2795 ;;  x             120    0[BANK6 ] [40]
  2796 ;;  overall_out_  120  120[BANK5 ] [40]
  2797 ;;  qualified_co  120  120[BANK4 ] [40]
  2798 ;;  qualified_co  120  120[BANK3 ] [40]
  2799 ;;  cons_mf3      120    0[BANK5 ] [40]
  2800 ;;  qualified_co  120    0[BANK4 ] [40]
  2801 ;;  cons_mf1      120    0[BANK3 ] [40]
  2802 ;;  ante_mf3      120  120[BANK2 ] [40]
  2803 ;;  cons_mf2      120    0[BANK2 ] [40]
  2804 ;;  ante_mf2      120  120[BANK1 ] [40]
  2805 ;;  ante_mf1      120    0[BANK1 ] [40]
  2806 ;;  output          3  122[BANK0 ] [40]
  2807 ;;  w3              3   91[COMRAM] [40]
  2808 ;;  w2              3   88[COMRAM] [40]
  2809 ;;  w1              3   85[COMRAM] [40]
  2810 ;;  i               2    0        int 
  2811 ;; Return value:  Size  Location     Type
  2812 ;;                  3   82[COMRAM] int 
  2813 ;; Registers used:
  2814 ;;		wreg, fsr1l, fsr1h, fsr2l, fsr2h, status,2, status,0, prodl, prodh, cstack
  2815 ;; Tracked objects:
  2816 ;;		On entry : 0/0
  2817 ;;		On exit  : 0/0
  2818 ;;		Unchanged: 0/0
  2819 ;; Data sizes:     COMRAM   BANK0   BANK1   BANK2   BANK3   BANK4   BANK5   BANK6   BANK7
  2820 ;;      Params:         3       0       0       0       0       0       0       0       0
  2821 ;;      Locals:         9       3     240     240     240     240     240     240       0
  2822 ;;      Temps:          0       0       0       0       0       0       0       0       0
  2823 ;;      Totals:        12       3     240     240     240     240     240     240       0
  2824 ;;Total ram usage:     1455 bytes
  2825 ;; Hardware stack levels used:    1
  2826 ;; Hardware stack levels required when called:    4
  2827 ;; This function calls:
  2828 ;;		_defuzzy
  2829 ;;		_linspace
  2830 ;;		_out_mf
  2831 ;;		_qualified
  2832 ;;		_tri_mf
  2833 ;;		_triangular
  2834 ;; This function is called by:
  2835 ;;		_main
  2836 ;; This function uses a non-reentrant model
  2837 ;;
  2838                           
  2839                           	psect	text17
  2840  0078FC                     __ptext17:
  2841                           	opt stack 0
  2842  0078FC                     _fuzzy_system_single1:
  2843                           	opt stack 26
  2844                           
  2845                           ;fuzzy.c: 277: double ante_mf1[40],cons_mf1[40];
  2846                           ;fuzzy.c: 278: double ante_mf2[40],cons_mf2[40];
  2847                           ;fuzzy.c: 279: double ante_mf3[40],cons_mf3[40];
  2848                           ;fuzzy.c: 280: double x[40],y[40];
  2849                           ;fuzzy.c: 281: double qualified_cons_mf1[40],qualified_cons_mf2[40],qualified_cons_mf3[4
      +                          0];
  2850                           ;fuzzy.c: 282: double overall_out_mf[40];
  2851                           ;fuzzy.c: 283: double w1,w2,w3;
  2852                           ;fuzzy.c: 284: double output;
  2853                           ;fuzzy.c: 285: int i;
  2854                           ;fuzzy.c: 286: linspace(x,-2,2,40);
  2855                           
  2856                           ;incstack = 0
  2857  0078FC  0106               	movlb	6	; () banked
  2858  0078FE  0E06               	movlw	high fuzzy_system_single1@x
  2859  007900  6E38               	movwf	linspace@x+1,c
  2860  007902  0106               	movlb	6	; () banked
  2861  007904  0E00               	movlw	low fuzzy_system_single1@x
  2862  007906  6E37               	movwf	linspace@x,c
  2863  007908  0E00               	movlw	0
  2864  00790A  6E39               	movwf	linspace@start,c
  2865  00790C  0E00               	movlw	0
  2866  00790E  6E3A               	movwf	linspace@start+1,c
  2867  007910  0EC0               	movlw	192
  2868  007912  6E3B               	movwf	linspace@start+2,c
  2869  007914  0E00               	movlw	0
  2870  007916  6E3C               	movwf	linspace@end,c
  2871  007918  0E00               	movlw	0
  2872  00791A  6E3D               	movwf	linspace@end+1,c
  2873  00791C  0E40               	movlw	64
  2874  00791E  6E3E               	movwf	linspace@end+2,c
  2875  007920  0E00               	movlw	0
  2876  007922  6E40               	movwf	linspace@size+1,c
  2877  007924  0E28               	movlw	40
  2878  007926  6E3F               	movwf	linspace@size,c
  2879  007928  ECC5  F037         	call	_linspace	;wreg free
  2880                           
  2881                           ;fuzzy.c: 287: linspace(y,0,100,40);
  2882  00792C  0106               	movlb	6	; () banked
  2883  00792E  0E06               	movlw	high fuzzy_system_single1@y
  2884  007930  6E38               	movwf	linspace@x+1,c
  2885  007932  0106               	movlb	6	; () banked
  2886  007934  0E78               	movlw	low fuzzy_system_single1@y
  2887  007936  6E37               	movwf	linspace@x,c
  2888  007938  0E00               	movlw	0
  2889  00793A  6E39               	movwf	linspace@start,c
  2890  00793C  0E00               	movlw	0
  2891  00793E  6E3A               	movwf	linspace@start+1,c
  2892  007940  0E00               	movlw	0
  2893  007942  6E3B               	movwf	linspace@start+2,c
  2894  007944  0E00               	movlw	0
  2895  007946  6E3C               	movwf	linspace@end,c
  2896  007948  0EC8               	movlw	200
  2897  00794A  6E3D               	movwf	linspace@end+1,c
  2898  00794C  0E42               	movlw	66
  2899  00794E  6E3E               	movwf	linspace@end+2,c
  2900  007950  0E00               	movlw	0
  2901  007952  6E40               	movwf	linspace@size+1,c
  2902  007954  0E28               	movlw	40
  2903  007956  6E3F               	movwf	linspace@size,c
  2904  007958  ECC5  F037         	call	_linspace	;wreg free
  2905                           
  2906                           ;fuzzy.c: 290: tri_mf(ante_mf1,x,-3.6, -2, -0.4);
  2907  00795C  0101               	movlb	1	; () banked
  2908  00795E  0E01               	movlw	high fuzzy_system_single1@ante_mf1
  2909  007960  6E47               	movwf	tri_mf@t_value+1,c
  2910  007962  0101               	movlb	1	; () banked
  2911  007964  0E00               	movlw	low fuzzy_system_single1@ante_mf1
  2912  007966  6E46               	movwf	tri_mf@t_value,c
  2913  007968  0106               	movlb	6	; () banked
  2914  00796A  0E06               	movlw	high fuzzy_system_single1@x
  2915  00796C  6E49               	movwf	tri_mf@x+1,c
  2916  00796E  0106               	movlb	6	; () banked
  2917  007970  0E00               	movlw	low fuzzy_system_single1@x
  2918  007972  6E48               	movwf	tri_mf@x,c
  2919  007974  0E66               	movlw	102
  2920  007976  6E4A               	movwf	tri_mf@a,c
  2921  007978  0E66               	movlw	102
  2922  00797A  6E4B               	movwf	tri_mf@a+1,c
  2923  00797C  0EC0               	movlw	192
  2924  00797E  6E4C               	movwf	tri_mf@a+2,c
  2925  007980  0E00               	movlw	0
  2926  007982  6E4D               	movwf	tri_mf@b,c
  2927  007984  0E00               	movlw	0
  2928  007986  6E4E               	movwf	tri_mf@b+1,c
  2929  007988  0EC0               	movlw	192
  2930  00798A  6E4F               	movwf	tri_mf@b+2,c
  2931  00798C  0ECD               	movlw	205
  2932  00798E  6E50               	movwf	tri_mf@c,c
  2933  007990  0ECC               	movlw	204
  2934  007992  6E51               	movwf	tri_mf@c+1,c
  2935  007994  0EBE               	movlw	190
  2936  007996  6E52               	movwf	tri_mf@c+2,c
  2937  007998  EC46  F038         	call	_tri_mf	;wreg free
  2938                           
  2939                           ;fuzzy.c: 291: tri_mf(ante_mf2,x,-1.6, 0, 1.6);
  2940  00799C  0101               	movlb	1	; () banked
  2941  00799E  0E01               	movlw	high fuzzy_system_single1@ante_mf2
  2942  0079A0  6E47               	movwf	tri_mf@t_value+1,c
  2943  0079A2  0101               	movlb	1	; () banked
  2944  0079A4  0E78               	movlw	low fuzzy_system_single1@ante_mf2
  2945  0079A6  6E46               	movwf	tri_mf@t_value,c
  2946  0079A8  0106               	movlb	6	; () banked
  2947  0079AA  0E06               	movlw	high fuzzy_system_single1@x
  2948  0079AC  6E49               	movwf	tri_mf@x+1,c
  2949  0079AE  0106               	movlb	6	; () banked
  2950  0079B0  0E00               	movlw	low fuzzy_system_single1@x
  2951  0079B2  6E48               	movwf	tri_mf@x,c
  2952  0079B4  0ECD               	movlw	205
  2953  0079B6  6E4A               	movwf	tri_mf@a,c
  2954  0079B8  0ECC               	movlw	204
  2955  0079BA  6E4B               	movwf	tri_mf@a+1,c
  2956  0079BC  0EBF               	movlw	191
  2957  0079BE  6E4C               	movwf	tri_mf@a+2,c
  2958  0079C0  0E00               	movlw	0
  2959  0079C2  6E4D               	movwf	tri_mf@b,c
  2960  0079C4  0E00               	movlw	0
  2961  0079C6  6E4E               	movwf	tri_mf@b+1,c
  2962  0079C8  0E00               	movlw	0
  2963  0079CA  6E4F               	movwf	tri_mf@b+2,c
  2964  0079CC  0ECD               	movlw	205
  2965  0079CE  6E50               	movwf	tri_mf@c,c
  2966  0079D0  0ECC               	movlw	204
  2967  0079D2  6E51               	movwf	tri_mf@c+1,c
  2968  0079D4  0E3F               	movlw	63
  2969  0079D6  6E52               	movwf	tri_mf@c+2,c
  2970  0079D8  EC46  F038         	call	_tri_mf	;wreg free
  2971                           
  2972                           ;fuzzy.c: 292: tri_mf(ante_mf3,x,0.4, 2, 3.6);
  2973  0079DC  0102               	movlb	2	; () banked
  2974  0079DE  0E02               	movlw	high fuzzy_system_single1@ante_mf3
  2975  0079E0  6E47               	movwf	tri_mf@t_value+1,c
  2976  0079E2  0102               	movlb	2	; () banked
  2977  0079E4  0E78               	movlw	low fuzzy_system_single1@ante_mf3
  2978  0079E6  6E46               	movwf	tri_mf@t_value,c
  2979  0079E8  0106               	movlb	6	; () banked
  2980  0079EA  0E06               	movlw	high fuzzy_system_single1@x
  2981  0079EC  6E49               	movwf	tri_mf@x+1,c
  2982  0079EE  0106               	movlb	6	; () banked
  2983  0079F0  0E00               	movlw	low fuzzy_system_single1@x
  2984  0079F2  6E48               	movwf	tri_mf@x,c
  2985  0079F4  0ECD               	movlw	205
  2986  0079F6  6E4A               	movwf	tri_mf@a,c
  2987  0079F8  0ECC               	movlw	204
  2988  0079FA  6E4B               	movwf	tri_mf@a+1,c
  2989  0079FC  0E3E               	movlw	62
  2990  0079FE  6E4C               	movwf	tri_mf@a+2,c
  2991  007A00  0E00               	movlw	0
  2992  007A02  6E4D               	movwf	tri_mf@b,c
  2993  007A04  0E00               	movlw	0
  2994  007A06  6E4E               	movwf	tri_mf@b+1,c
  2995  007A08  0E40               	movlw	64
  2996  007A0A  6E4F               	movwf	tri_mf@b+2,c
  2997  007A0C  0E66               	movlw	102
  2998  007A0E  6E50               	movwf	tri_mf@c,c
  2999  007A10  0E66               	movlw	102
  3000  007A12  6E51               	movwf	tri_mf@c+1,c
  3001  007A14  0E40               	movlw	64
  3002  007A16  6E52               	movwf	tri_mf@c+2,c
  3003  007A18  EC46  F038         	call	_tri_mf	;wreg free
  3004                           
  3005                           ;fuzzy.c: 295: tri_mf(cons_mf1,y,-40, 0, 40);
  3006  007A1C  0103               	movlb	3	; () banked
  3007  007A1E  0E03               	movlw	high fuzzy_system_single1@cons_mf1
  3008  007A20  6E47               	movwf	tri_mf@t_value+1,c
  3009  007A22  0103               	movlb	3	; () banked
  3010  007A24  0E00               	movlw	low fuzzy_system_single1@cons_mf1
  3011  007A26  6E46               	movwf	tri_mf@t_value,c
  3012  007A28  0106               	movlb	6	; () banked
  3013  007A2A  0E06               	movlw	high fuzzy_system_single1@y
  3014  007A2C  6E49               	movwf	tri_mf@x+1,c
  3015  007A2E  0106               	movlb	6	; () banked
  3016  007A30  0E78               	movlw	low fuzzy_system_single1@y
  3017  007A32  6E48               	movwf	tri_mf@x,c
  3018  007A34  0E00               	movlw	0
  3019  007A36  6E4A               	movwf	tri_mf@a,c
  3020  007A38  0E20               	movlw	32
  3021  007A3A  6E4B               	movwf	tri_mf@a+1,c
  3022  007A3C  0EC2               	movlw	194
  3023  007A3E  6E4C               	movwf	tri_mf@a+2,c
  3024  007A40  0E00               	movlw	0
  3025  007A42  6E4D               	movwf	tri_mf@b,c
  3026  007A44  0E00               	movlw	0
  3027  007A46  6E4E               	movwf	tri_mf@b+1,c
  3028  007A48  0E00               	movlw	0
  3029  007A4A  6E4F               	movwf	tri_mf@b+2,c
  3030  007A4C  0E00               	movlw	0
  3031  007A4E  6E50               	movwf	tri_mf@c,c
  3032  007A50  0E20               	movlw	32
  3033  007A52  6E51               	movwf	tri_mf@c+1,c
  3034  007A54  0E42               	movlw	66
  3035  007A56  6E52               	movwf	tri_mf@c+2,c
  3036  007A58  EC46  F038         	call	_tri_mf	;wreg free
  3037                           
  3038                           ;fuzzy.c: 296: tri_mf(cons_mf2,y,10, 50, 90);
  3039  007A5C  0102               	movlb	2	; () banked
  3040  007A5E  0E02               	movlw	high fuzzy_system_single1@cons_mf2
  3041  007A60  6E47               	movwf	tri_mf@t_value+1,c
  3042  007A62  0102               	movlb	2	; () banked
  3043  007A64  0E00               	movlw	low fuzzy_system_single1@cons_mf2
  3044  007A66  6E46               	movwf	tri_mf@t_value,c
  3045  007A68  0106               	movlb	6	; () banked
  3046  007A6A  0E06               	movlw	high fuzzy_system_single1@y
  3047  007A6C  6E49               	movwf	tri_mf@x+1,c
  3048  007A6E  0106               	movlb	6	; () banked
  3049  007A70  0E78               	movlw	low fuzzy_system_single1@y
  3050  007A72  6E48               	movwf	tri_mf@x,c
  3051  007A74  0E00               	movlw	0
  3052  007A76  6E4A               	movwf	tri_mf@a,c
  3053  007A78  0E20               	movlw	32
  3054  007A7A  6E4B               	movwf	tri_mf@a+1,c
  3055  007A7C  0E41               	movlw	65
  3056  007A7E  6E4C               	movwf	tri_mf@a+2,c
  3057  007A80  0E00               	movlw	0
  3058  007A82  6E4D               	movwf	tri_mf@b,c
  3059  007A84  0E48               	movlw	72
  3060  007A86  6E4E               	movwf	tri_mf@b+1,c
  3061  007A88  0E42               	movlw	66
  3062  007A8A  6E4F               	movwf	tri_mf@b+2,c
  3063  007A8C  0E00               	movlw	0
  3064  007A8E  6E50               	movwf	tri_mf@c,c
  3065  007A90  0EB4               	movlw	180
  3066  007A92  6E51               	movwf	tri_mf@c+1,c
  3067  007A94  0E42               	movlw	66
  3068  007A96  6E52               	movwf	tri_mf@c+2,c
  3069  007A98  EC46  F038         	call	_tri_mf	;wreg free
  3070                           
  3071                           ;fuzzy.c: 297: tri_mf(cons_mf3,y,60, 100, 140);
  3072  007A9C  0105               	movlb	5	; () banked
  3073  007A9E  0E05               	movlw	high fuzzy_system_single1@cons_mf3
  3074  007AA0  6E47               	movwf	tri_mf@t_value+1,c
  3075  007AA2  0105               	movlb	5	; () banked
  3076  007AA4  0E00               	movlw	low fuzzy_system_single1@cons_mf3
  3077  007AA6  6E46               	movwf	tri_mf@t_value,c
  3078  007AA8  0106               	movlb	6	; () banked
  3079  007AAA  0E06               	movlw	high fuzzy_system_single1@y
  3080  007AAC  6E49               	movwf	tri_mf@x+1,c
  3081  007AAE  0106               	movlb	6	; () banked
  3082  007AB0  0E78               	movlw	low fuzzy_system_single1@y
  3083  007AB2  6E48               	movwf	tri_mf@x,c
  3084  007AB4  0E00               	movlw	0
  3085  007AB6  6E4A               	movwf	tri_mf@a,c
  3086  007AB8  0E70               	movlw	112
  3087  007ABA  6E4B               	movwf	tri_mf@a+1,c
  3088  007ABC  0E42               	movlw	66
  3089  007ABE  6E4C               	movwf	tri_mf@a+2,c
  3090  007AC0  0E00               	movlw	0
  3091  007AC2  6E4D               	movwf	tri_mf@b,c
  3092  007AC4  0EC8               	movlw	200
  3093  007AC6  6E4E               	movwf	tri_mf@b+1,c
  3094  007AC8  0E42               	movlw	66
  3095  007ACA  6E4F               	movwf	tri_mf@b+2,c
  3096  007ACC  0E00               	movlw	0
  3097  007ACE  6E50               	movwf	tri_mf@c,c
  3098  007AD0  0E0C               	movlw	12
  3099  007AD2  6E51               	movwf	tri_mf@c+1,c
  3100  007AD4  0E43               	movlw	67
  3101  007AD6  6E52               	movwf	tri_mf@c+2,c
  3102  007AD8  EC46  F038         	call	_tri_mf	;wreg free
  3103                           
  3104                           ;fuzzy.c: 301: w1=triangular(-3.6, -2, -0.4,input);
  3105  007ADC  0E66               	movlw	102
  3106  007ADE  6E37               	movwf	triangular@a,c
  3107  007AE0  0E66               	movlw	102
  3108  007AE2  6E38               	movwf	triangular@a+1,c
  3109  007AE4  0EC0               	movlw	192
  3110  007AE6  6E39               	movwf	triangular@a+2,c
  3111  007AE8  0E00               	movlw	0
  3112  007AEA  6E3A               	movwf	triangular@b,c
  3113  007AEC  0E00               	movlw	0
  3114  007AEE  6E3B               	movwf	triangular@b+1,c
  3115  007AF0  0EC0               	movlw	192
  3116  007AF2  6E3C               	movwf	triangular@b+2,c
  3117  007AF4  0ECD               	movlw	205
  3118  007AF6  6E3D               	movwf	triangular@c,c
  3119  007AF8  0ECC               	movlw	204
  3120  007AFA  6E3E               	movwf	triangular@c+1,c
  3121  007AFC  0EBE               	movlw	190
  3122  007AFE  6E3F               	movwf	triangular@c+2,c
  3123  007B00  C053  F040         	movff	fuzzy_system_single1@input,triangular@x
  3124  007B04  C054  F041         	movff	fuzzy_system_single1@input+1,triangular@x+1
  3125  007B08  C055  F042         	movff	fuzzy_system_single1@input+2,triangular@x+2
  3126  007B0C  EC5E  F03A         	call	_triangular	;wreg free
  3127  007B10  C037  F056         	movff	?_triangular,fuzzy_system_single1@w1
  3128  007B14  C038  F057         	movff	?_triangular+1,fuzzy_system_single1@w1+1
  3129  007B18  C039  F058         	movff	?_triangular+2,fuzzy_system_single1@w1+2
  3130                           
  3131                           ;fuzzy.c: 302: w2=triangular(-1.6, 0, 1.6,input);
  3132  007B1C  0ECD               	movlw	205
  3133  007B1E  6E37               	movwf	triangular@a,c
  3134  007B20  0ECC               	movlw	204
  3135  007B22  6E38               	movwf	triangular@a+1,c
  3136  007B24  0EBF               	movlw	191
  3137  007B26  6E39               	movwf	triangular@a+2,c
  3138  007B28  0E00               	movlw	0
  3139  007B2A  6E3A               	movwf	triangular@b,c
  3140  007B2C  0E00               	movlw	0
  3141  007B2E  6E3B               	movwf	triangular@b+1,c
  3142  007B30  0E00               	movlw	0
  3143  007B32  6E3C               	movwf	triangular@b+2,c
  3144  007B34  0ECD               	movlw	205
  3145  007B36  6E3D               	movwf	triangular@c,c
  3146  007B38  0ECC               	movlw	204
  3147  007B3A  6E3E               	movwf	triangular@c+1,c
  3148  007B3C  0E3F               	movlw	63
  3149  007B3E  6E3F               	movwf	triangular@c+2,c
  3150  007B40  C053  F040         	movff	fuzzy_system_single1@input,triangular@x
  3151  007B44  C054  F041         	movff	fuzzy_system_single1@input+1,triangular@x+1
  3152  007B48  C055  F042         	movff	fuzzy_system_single1@input+2,triangular@x+2
  3153  007B4C  EC5E  F03A         	call	_triangular	;wreg free
  3154  007B50  C037  F059         	movff	?_triangular,fuzzy_system_single1@w2
  3155  007B54  C038  F05A         	movff	?_triangular+1,fuzzy_system_single1@w2+1
  3156  007B58  C039  F05B         	movff	?_triangular+2,fuzzy_system_single1@w2+2
  3157                           
  3158                           ;fuzzy.c: 303: w3=triangular(0.4, 2, 3.6,input);
  3159  007B5C  0ECD               	movlw	205
  3160  007B5E  6E37               	movwf	triangular@a,c
  3161  007B60  0ECC               	movlw	204
  3162  007B62  6E38               	movwf	triangular@a+1,c
  3163  007B64  0E3E               	movlw	62
  3164  007B66  6E39               	movwf	triangular@a+2,c
  3165  007B68  0E00               	movlw	0
  3166  007B6A  6E3A               	movwf	triangular@b,c
  3167  007B6C  0E00               	movlw	0
  3168  007B6E  6E3B               	movwf	triangular@b+1,c
  3169  007B70  0E40               	movlw	64
  3170  007B72  6E3C               	movwf	triangular@b+2,c
  3171  007B74  0E66               	movlw	102
  3172  007B76  6E3D               	movwf	triangular@c,c
  3173  007B78  0E66               	movlw	102
  3174  007B7A  6E3E               	movwf	triangular@c+1,c
  3175  007B7C  0E40               	movlw	64
  3176  007B7E  6E3F               	movwf	triangular@c+2,c
  3177  007B80  C053  F040         	movff	fuzzy_system_single1@input,triangular@x
  3178  007B84  C054  F041         	movff	fuzzy_system_single1@input+1,triangular@x+1
  3179  007B88  C055  F042         	movff	fuzzy_system_single1@input+2,triangular@x+2
  3180  007B8C  EC5E  F03A         	call	_triangular	;wreg free
  3181  007B90  C037  F05C         	movff	?_triangular,fuzzy_system_single1@w3
  3182  007B94  C038  F05D         	movff	?_triangular+1,fuzzy_system_single1@w3+1
  3183  007B98  C039  F05E         	movff	?_triangular+2,fuzzy_system_single1@w3+2
  3184                           
  3185                           ;fuzzy.c: 304: qualified(qualified_cons_mf1,cons_mf3,w1);
  3186  007B9C  0103               	movlb	3	; () banked
  3187  007B9E  0E03               	movlw	high fuzzy_system_single1@qualified_cons_mf1
  3188  007BA0  6E11               	movwf	qualified@y+1,c
  3189  007BA2  0103               	movlb	3	; () banked
  3190  007BA4  0E78               	movlw	low fuzzy_system_single1@qualified_cons_mf1
  3191  007BA6  6E10               	movwf	qualified@y,c
  3192  007BA8  0105               	movlb	5	; () banked
  3193  007BAA  0E05               	movlw	high fuzzy_system_single1@cons_mf3
  3194  007BAC  6E13               	movwf	qualified@x+1,c
  3195  007BAE  0105               	movlb	5	; () banked
  3196  007BB0  0E00               	movlw	low fuzzy_system_single1@cons_mf3
  3197  007BB2  6E12               	movwf	qualified@x,c
  3198  007BB4  C056  F014         	movff	fuzzy_system_single1@w1,qualified@w
  3199  007BB8  C057  F015         	movff	fuzzy_system_single1@w1+1,qualified@w+1
  3200  007BBC  C058  F016         	movff	fuzzy_system_single1@w1+2,qualified@w+2
  3201  007BC0  ECD7  F036         	call	_qualified	;wreg free
  3202                           
  3203                           ;fuzzy.c: 305: qualified(qualified_cons_mf2,cons_mf3,w2);
  3204  007BC4  0104               	movlb	4	; () banked
  3205  007BC6  0E04               	movlw	high fuzzy_system_single1@qualified_cons_mf2
  3206  007BC8  6E11               	movwf	qualified@y+1,c
  3207  007BCA  0104               	movlb	4	; () banked
  3208  007BCC  0E78               	movlw	low fuzzy_system_single1@qualified_cons_mf2
  3209  007BCE  6E10               	movwf	qualified@y,c
  3210  007BD0  0105               	movlb	5	; () banked
  3211  007BD2  0E05               	movlw	high fuzzy_system_single1@cons_mf3
  3212  007BD4  6E13               	movwf	qualified@x+1,c
  3213  007BD6  0105               	movlb	5	; () banked
  3214  007BD8  0E00               	movlw	low fuzzy_system_single1@cons_mf3
  3215  007BDA  6E12               	movwf	qualified@x,c
  3216  007BDC  C059  F014         	movff	fuzzy_system_single1@w2,qualified@w
  3217  007BE0  C05A  F015         	movff	fuzzy_system_single1@w2+1,qualified@w+1
  3218  007BE4  C05B  F016         	movff	fuzzy_system_single1@w2+2,qualified@w+2
  3219  007BE8  ECD7  F036         	call	_qualified	;wreg free
  3220                           
  3221                           ;fuzzy.c: 306: qualified(qualified_cons_mf3,cons_mf1,w3);
  3222  007BEC  0104               	movlb	4	; () banked
  3223  007BEE  0E04               	movlw	high fuzzy_system_single1@qualified_cons_mf3
  3224  007BF0  6E11               	movwf	qualified@y+1,c
  3225  007BF2  0104               	movlb	4	; () banked
  3226  007BF4  0E00               	movlw	low fuzzy_system_single1@qualified_cons_mf3
  3227  007BF6  6E10               	movwf	qualified@y,c
  3228  007BF8  0103               	movlb	3	; () banked
  3229  007BFA  0E03               	movlw	high fuzzy_system_single1@cons_mf1
  3230  007BFC  6E13               	movwf	qualified@x+1,c
  3231  007BFE  0103               	movlb	3	; () banked
  3232  007C00  0E00               	movlw	low fuzzy_system_single1@cons_mf1
  3233  007C02  6E12               	movwf	qualified@x,c
  3234  007C04  C05C  F014         	movff	fuzzy_system_single1@w3,qualified@w
  3235  007C08  C05D  F015         	movff	fuzzy_system_single1@w3+1,qualified@w+1
  3236  007C0C  C05E  F016         	movff	fuzzy_system_single1@w3+2,qualified@w+2
  3237  007C10  ECD7  F036         	call	_qualified	;wreg free
  3238                           
  3239                           ;fuzzy.c: 307: out_mf(overall_out_mf,qualified_cons_mf1,qualified_cons_mf2,qualified_con
      +                          s_mf3);
  3240  007C14  0105               	movlb	5	; () banked
  3241  007C16  0E05               	movlw	high fuzzy_system_single1@overall_out_mf
  3242  007C18  6E11               	movwf	out_mf@result+1,c
  3243  007C1A  0105               	movlb	5	; () banked
  3244  007C1C  0E78               	movlw	low fuzzy_system_single1@overall_out_mf
  3245  007C1E  6E10               	movwf	out_mf@result,c
  3246  007C20  0103               	movlb	3	; () banked
  3247  007C22  0E03               	movlw	high fuzzy_system_single1@qualified_cons_mf1
  3248  007C24  6E13               	movwf	out_mf@x+1,c
  3249  007C26  0103               	movlb	3	; () banked
  3250  007C28  0E78               	movlw	low fuzzy_system_single1@qualified_cons_mf1
  3251  007C2A  6E12               	movwf	out_mf@x,c
  3252  007C2C  0104               	movlb	4	; () banked
  3253  007C2E  0E04               	movlw	high fuzzy_system_single1@qualified_cons_mf2
  3254  007C30  6E15               	movwf	out_mf@y+1,c
  3255  007C32  0104               	movlb	4	; () banked
  3256  007C34  0E78               	movlw	low fuzzy_system_single1@qualified_cons_mf2
  3257  007C36  6E14               	movwf	out_mf@y,c
  3258  007C38  0104               	movlb	4	; () banked
  3259  007C3A  0E04               	movlw	high fuzzy_system_single1@qualified_cons_mf3
  3260  007C3C  6E17               	movwf	out_mf@z+1,c
  3261  007C3E  0104               	movlb	4	; () banked
  3262  007C40  0E00               	movlw	low fuzzy_system_single1@qualified_cons_mf3
  3263  007C42  6E16               	movwf	out_mf@z,c
  3264  007C44  EC51  F03B         	call	_out_mf	;wreg free
  3265                           
  3266                           ;fuzzy.c: 308: output= defuzzy(y,overall_out_mf);
  3267  007C48  0106               	movlb	6	; () banked
  3268  007C4A  0E06               	movlw	high fuzzy_system_single1@y
  3269  007C4C  6E38               	movwf	defuzzy@x+1,c
  3270  007C4E  0106               	movlb	6	; () banked
  3271  007C50  0E78               	movlw	low fuzzy_system_single1@y
  3272  007C52  6E37               	movwf	defuzzy@x,c
  3273  007C54  0105               	movlb	5	; () banked
  3274  007C56  0E05               	movlw	high fuzzy_system_single1@overall_out_mf
  3275  007C58  6E3A               	movwf	defuzzy@mf+1,c
  3276  007C5A  0105               	movlb	5	; () banked
  3277  007C5C  0E78               	movlw	low fuzzy_system_single1@overall_out_mf
  3278  007C5E  6E39               	movwf	defuzzy@mf,c
  3279  007C60  ECD7  F038         	call	_defuzzy	;wreg free
  3280  007C64  C037  F0DA         	movff	?_defuzzy,fuzzy_system_single1@output
  3281  007C68  C038  F0DB         	movff	?_defuzzy+1,fuzzy_system_single1@output+1
  3282  007C6C  C039  F0DC         	movff	?_defuzzy+2,fuzzy_system_single1@output+2
  3283                           
  3284                           ;fuzzy.c: 309: return output;
  3285  007C70  C0DA  F053         	movff	fuzzy_system_single1@output,?_fuzzy_system_single1
  3286  007C74  C0DB  F054         	movff	fuzzy_system_single1@output+1,?_fuzzy_system_single1+1
  3287  007C78  C0DC  F055         	movff	fuzzy_system_single1@output+2,?_fuzzy_system_single1+2
  3288  007C7C  0012               	return	
  3289  007C7E                     __end_of_fuzzy_system_single1:
  3290                           	opt stack 0
  3291                           tblptru	equ	0xFF8
  3292                           tblptrh	equ	0xFF7
  3293                           tblptrl	equ	0xFF6
  3294                           tablat	equ	0xFF5
  3295                           wreg	equ	0xFE8
  3296                           status	equ	0xFD8
  3297                           
  3298 ;; *************** function _tri_mf *****************
  3299 ;; Defined at:
  3300 ;;		line 64 in file "fuzzy.c"
  3301 ;; Parameters:    Size  Location     Type
  3302 ;;  t_value         2   69[COMRAM] PTR 
  3303 ;;		 -> fuzzy_system_single1@cons_mf3(120), fuzzy_system_single1@cons_mf2(120), fuzzy_system_single1@cons_mf1(120), fuzz
      +y_system_single1@ante_mf3(120), 
  3304 ;;		 -> fuzzy_system_single1@ante_mf2(120), fuzzy_system_single1@ante_mf1(120), fuzzy_system_single2@cons_mf3(120), fuzz
      +y_system_single2@cons_mf2(120), 
  3305 ;;		 -> fuzzy_system_single2@cons_mf1(120), fuzzy_system_single2@ante_mf3(120), fuzzy_system_single2@ante_mf2(120), fuzz
      +y_system_single2@ante_mf1(120), 
  3306 ;;  x               2   71[COMRAM] PTR 
  3307 ;;		 -> fuzzy_system_single1@y(120), fuzzy_system_single1@x(120), fuzzy_system_single2@y(120), fuzzy_system_single2@x(12
      +0), 
  3308 ;;  a               3   73[COMRAM] PTR 
  3309 ;;  b               3   76[COMRAM] PTR 
  3310 ;;  c               3   79[COMRAM] PTR 
  3311 ;; Auto vars:     Size  Location     Type
  3312 ;;  temp          120    0[BANK0 ] [40]
  3313 ;;  i               2  120[BANK0 ] int 
  3314 ;; Return value:  Size  Location     Type
  3315 ;;		None               void
  3316 ;; Registers used:
  3317 ;;		wreg, fsr1l, fsr1h, fsr2l, fsr2h, status,2, status,0, prodl, prodh, cstack
  3318 ;; Tracked objects:
  3319 ;;		On entry : 0/0
  3320 ;;		On exit  : 0/0
  3321 ;;		Unchanged: 0/0
  3322 ;; Data sizes:     COMRAM   BANK0   BANK1   BANK2   BANK3   BANK4   BANK5   BANK6   BANK7
  3323 ;;      Params:        13       0       0       0       0       0       0       0       0
  3324 ;;      Locals:         0     122       0       0       0       0       0       0       0
  3325 ;;      Temps:          0       0       0       0       0       0       0       0       0
  3326 ;;      Totals:        13     122       0       0       0       0       0       0       0
  3327 ;;Total ram usage:      135 bytes
  3328 ;; Hardware stack levels used:    1
  3329 ;; Hardware stack levels required when called:    3
  3330 ;; This function calls:
  3331 ;;		___wmul
  3332 ;;		_triangular
  3333 ;; This function is called by:
  3334 ;;		_fuzzy_system_single2
  3335 ;;		_fuzzy_system_single1
  3336 ;; This function uses a non-reentrant model
  3337 ;;
  3338                           
  3339                           	psect	text18
  3340  00708C                     __ptext18:
  3341                           	opt stack 0
  3342  00708C                     _tri_mf:
  3343                           	opt stack 26
  3344                           
  3345                           ;fuzzy.c: 66: int i;
  3346                           ;fuzzy.c: 67: double temp[40];
  3347                           ;fuzzy.c: 68: for(i=0; i<40; i++)
  3348                           
  3349                           ;incstack = 0
  3350  00708C  0E00               	movlw	0
  3351  00708E  0100               	movlb	0	; () banked
  3352  007090  6FD9               	movwf	(tri_mf@i+1)& (0+255),b
  3353  007092  0E00               	movlw	0
  3354  007094  0100               	movlb	0	; () banked
  3355  007096  6FD8               	movwf	tri_mf@i& (0+255),b
  3356  007098                     
  3357                           ; BSR set to: 0
  3358  007098  0100               	movlb	0	; () banked
  3359  00709A  51D9               	movf	(tri_mf@i+1)& (0+255),w,b
  3360  00709C  0A80               	xorlw	128
  3361  00709E  0F80               	addlw	-128
  3362  0070A0  0E28               	movlw	40
  3363  0070A2  B4D8               	btfsc	status,2,c
  3364  0070A4  5DD8               	subwf	tri_mf@i& (0+255),w,b
  3365  0070A6  B0D8               	btfsc	status,0,c
  3366  0070A8  D02D               	goto	l2271
  3367                           
  3368                           ; BSR set to: 0
  3369                           ;fuzzy.c: 69: temp[i]= x[i];
  3370                           
  3371                           ; BSR set to: 0
  3372                           
  3373                           ; BSR set to: 0
  3374  0070AA  C0D8  F001         	movff	tri_mf@i,___wmul@multiplier
  3375  0070AE  C0D9  F002         	movff	tri_mf@i+1,___wmul@multiplier+1
  3376  0070B2  0E00               	movlw	0
  3377  0070B4  6E04               	movwf	___wmul@multiplicand+1,c
  3378  0070B6  0E03               	movlw	3
  3379  0070B8  6E03               	movwf	___wmul@multiplicand,c
  3380  0070BA  EC29  F033         	call	___wmul	;wreg free
  3381  0070BE  5001               	movf	?___wmul,w,c
  3382  0070C0  2448               	addwf	tri_mf@x,w,c
  3383  0070C2  6ED9               	movwf	fsr2l,c
  3384  0070C4  5002               	movf	?___wmul+1,w,c
  3385  0070C6  2049               	addwfc	tri_mf@x+1,w,c
  3386  0070C8  6EDA               	movwf	fsr2h,c
  3387  0070CA  C0D8  F001         	movff	tri_mf@i,___wmul@multiplier
  3388  0070CE  C0D9  F002         	movff	tri_mf@i+1,___wmul@multiplier+1
  3389  0070D2  0E00               	movlw	0
  3390  0070D4  6E04               	movwf	___wmul@multiplicand+1,c
  3391  0070D6  0E03               	movlw	3
  3392  0070D8  6E03               	movwf	___wmul@multiplicand,c
  3393  0070DA  EC29  F033         	call	___wmul	;wreg free
  3394  0070DE  0100               	movlb	0	; () banked
  3395  0070E0  0E60               	movlw	low tri_mf@temp
  3396  0070E2  2401               	addwf	?___wmul,w,c
  3397  0070E4  6EE1               	movwf	fsr1l,c
  3398  0070E6  0100               	movlb	0	; () banked
  3399  0070E8  0E00               	movlw	high tri_mf@temp
  3400  0070EA  2002               	addwfc	?___wmul+1,w,c
  3401  0070EC  6EE2               	movwf	fsr1h,c
  3402  0070EE  CFDE FFE6          	movff	postinc2,postinc1
  3403  0070F2  CFDE FFE6          	movff	postinc2,postinc1
  3404  0070F6  CFDE FFE5          	movff	postinc2,postdec1
  3405  0070FA  52E5               	movf	postdec1,f,c
  3406                           
  3407                           ; BSR set to: 0
  3408  0070FC  0100               	movlb	0	; () banked
  3409  0070FE  4BD8               	infsnz	tri_mf@i& (0+255),f,b
  3410  007100  2BD9               	incf	(tri_mf@i+1)& (0+255),f,b
  3411  007102  D7CA               	goto	L6
  3412  007104                     l2271:
  3413                           
  3414                           ; BSR set to: 0
  3415                           ;fuzzy.c: 70: for(i=0; i<40; i++)
  3416  007104  0E00               	movlw	0
  3417  007106  0100               	movlb	0	; () banked
  3418  007108  6FD9               	movwf	(tri_mf@i+1)& (0+255),b
  3419  00710A  0E00               	movlw	0
  3420  00710C  0100               	movlb	0	; () banked
  3421  00710E  6FD8               	movwf	tri_mf@i& (0+255),b
  3422  007110                     
  3423                           ; BSR set to: 0
  3424  007110  0100               	movlb	0	; () banked
  3425  007112  51D9               	movf	(tri_mf@i+1)& (0+255),w,b
  3426  007114  0A80               	xorlw	128
  3427  007116  0F80               	addlw	-128
  3428  007118  0E28               	movlw	40
  3429  00711A  B4D8               	btfsc	status,2,c
  3430  00711C  5DD8               	subwf	tri_mf@i& (0+255),w,b
  3431  00711E  B0D8               	btfsc	status,0,c
  3432  007120  D045               	goto	l99
  3433                           
  3434                           ; BSR set to: 0
  3435                           ;fuzzy.c: 71: t_value[i]= triangular(a,b,c,x[i]);
  3436                           
  3437                           ; BSR set to: 0
  3438                           
  3439                           ; BSR set to: 0
  3440  007122  C0D8  F001         	movff	tri_mf@i,___wmul@multiplier
  3441  007126  C0D9  F002         	movff	tri_mf@i+1,___wmul@multiplier+1
  3442  00712A  0E00               	movlw	0
  3443  00712C  6E04               	movwf	___wmul@multiplicand+1,c
  3444  00712E  0E03               	movlw	3
  3445  007130  6E03               	movwf	___wmul@multiplicand,c
  3446  007132  EC29  F033         	call	___wmul	;wreg free
  3447  007136  5001               	movf	?___wmul,w,c
  3448  007138  2446               	addwf	tri_mf@t_value,w,c
  3449  00713A  6ED9               	movwf	fsr2l,c
  3450  00713C  5002               	movf	?___wmul+1,w,c
  3451  00713E  2047               	addwfc	tri_mf@t_value+1,w,c
  3452  007140  6EDA               	movwf	fsr2h,c
  3453  007142  C04A  F037         	movff	tri_mf@a,triangular@a
  3454  007146  C04B  F038         	movff	tri_mf@a+1,triangular@a+1
  3455  00714A  C04C  F039         	movff	tri_mf@a+2,triangular@a+2
  3456  00714E  C04D  F03A         	movff	tri_mf@b,triangular@b
  3457  007152  C04E  F03B         	movff	tri_mf@b+1,triangular@b+1
  3458  007156  C04F  F03C         	movff	tri_mf@b+2,triangular@b+2
  3459  00715A  C050  F03D         	movff	tri_mf@c,triangular@c
  3460  00715E  C051  F03E         	movff	tri_mf@c+1,triangular@c+1
  3461  007162  C052  F03F         	movff	tri_mf@c+2,triangular@c+2
  3462  007166  C0D8  F001         	movff	tri_mf@i,___wmul@multiplier
  3463  00716A  C0D9  F002         	movff	tri_mf@i+1,___wmul@multiplier+1
  3464  00716E  0E00               	movlw	0
  3465  007170  6E04               	movwf	___wmul@multiplicand+1,c
  3466  007172  0E03               	movlw	3
  3467  007174  6E03               	movwf	___wmul@multiplicand,c
  3468  007176  EC29  F033         	call	___wmul	;wreg free
  3469  00717A  5001               	movf	?___wmul,w,c
  3470  00717C  2448               	addwf	tri_mf@x,w,c
  3471  00717E  6EE1               	movwf	fsr1l,c
  3472  007180  5002               	movf	?___wmul+1,w,c
  3473  007182  2049               	addwfc	tri_mf@x+1,w,c
  3474  007184  6EE2               	movwf	fsr1h,c
  3475  007186  CFE6 F040          	movff	postinc1,triangular@x
  3476  00718A  CFE6 F041          	movff	postinc1,triangular@x+1
  3477  00718E  CFE5 F042          	movff	postdec1,triangular@x+2
  3478  007192  EC5E  F03A         	call	_triangular	;wreg free
  3479  007196  C037  FFDE         	movff	?_triangular,postinc2
  3480  00719A  C038  FFDE         	movff	?_triangular+1,postinc2
  3481  00719E  C039  FFDD         	movff	?_triangular+2,postdec2
  3482  0071A2  52DD               	movf	postdec2,f,c
  3483  0071A4  0100               	movlb	0	; () banked
  3484  0071A6  4BD8               	infsnz	tri_mf@i& (0+255),f,b
  3485  0071A8  2BD9               	incf	(tri_mf@i+1)& (0+255),f,b
  3486  0071AA  D7B2               	goto	L7
  3487  0071AC                     l99:
  3488                           
  3489                           ; BSR set to: 0
  3490  0071AC  0012               	return	
  3491  0071AE                     __end_of_tri_mf:
  3492                           	opt stack 0
  3493                           tblptru	equ	0xFF8
  3494                           tblptrh	equ	0xFF7
  3495                           tblptrl	equ	0xFF6
  3496                           tablat	equ	0xFF5
  3497                           wreg	equ	0xFE8
  3498                           postinc1	equ	0xFE6
  3499                           postdec1	equ	0xFE5
  3500                           fsr1h	equ	0xFE2
  3501                           fsr1l	equ	0xFE1
  3502                           postinc2	equ	0xFDE
  3503                           postdec2	equ	0xFDD
  3504                           fsr2h	equ	0xFDA
  3505                           fsr2l	equ	0xFD9
  3506                           status	equ	0xFD8
  3507                           
  3508 ;; *************** function _triangular *****************
  3509 ;; Defined at:
  3510 ;;		line 46 in file "fuzzy.c"
  3511 ;; Parameters:    Size  Location     Type
  3512 ;;  a               3   54[COMRAM] int 
  3513 ;;  b               3   57[COMRAM] int 
  3514 ;;  c               3   60[COMRAM] int 
  3515 ;;  x               3   63[COMRAM] int 
  3516 ;; Auto vars:     Size  Location     Type
  3517 ;;  ux              3   66[COMRAM] int 
  3518 ;; Return value:  Size  Location     Type
  3519 ;;                  3   54[COMRAM] int 
  3520 ;; Registers used:
  3521 ;;		wreg, status,2, status,0, cstack
  3522 ;; Tracked objects:
  3523 ;;		On entry : 0/0
  3524 ;;		On exit  : 0/0
  3525 ;;		Unchanged: 0/0
  3526 ;; Data sizes:     COMRAM   BANK0   BANK1   BANK2   BANK3   BANK4   BANK5   BANK6   BANK7
  3527 ;;      Params:        12       0       0       0       0       0       0       0       0
  3528 ;;      Locals:         3       0       0       0       0       0       0       0       0
  3529 ;;      Temps:          0       0       0       0       0       0       0       0       0
  3530 ;;      Totals:        15       0       0       0       0       0       0       0       0
  3531 ;;Total ram usage:       15 bytes
  3532 ;; Hardware stack levels used:    1
  3533 ;; Hardware stack levels required when called:    2
  3534 ;; This function calls:
  3535 ;;		___ftadd
  3536 ;;		___ftdiv
  3537 ;;		___ftge
  3538 ;;		___ftneg
  3539 ;; This function is called by:
  3540 ;;		_tri_mf
  3541 ;;		_fuzzy_system_single2
  3542 ;;		_fuzzy_system_single1
  3543 ;; This function uses a non-reentrant model
  3544 ;;
  3545                           
  3546                           	psect	text19
  3547  0074BC                     __ptext19:
  3548                           	opt stack 0
  3549  0074BC                     _triangular:
  3550                           	opt stack 27
  3551                           
  3552                           ;fuzzy.c: 48: double ux=0;
  3553                           
  3554                           ; BSR set to: 0
  3555                           ;incstack = 0
  3556  0074BC  0E00               	movlw	0
  3557  0074BE  6E43               	movwf	triangular@ux,c
  3558  0074C0  0E00               	movlw	0
  3559  0074C2  6E44               	movwf	triangular@ux+1,c
  3560  0074C4  0E00               	movlw	0
  3561  0074C6  6E45               	movwf	triangular@ux+2,c
  3562                           
  3563                           ;fuzzy.c: 49: if(x<=a){
  3564  0074C8  C037  F007         	movff	triangular@a,___ftge@ff1
  3565  0074CC  C038  F008         	movff	triangular@a+1,___ftge@ff1+1
  3566  0074D0  C039  F009         	movff	triangular@a+2,___ftge@ff1+2
  3567  0074D4  C040  F00A         	movff	triangular@x,___ftge@ff2
  3568  0074D8  C041  F00B         	movff	triangular@x+1,___ftge@ff2+1
  3569  0074DC  C042  F00C         	movff	triangular@x+2,___ftge@ff2+2
  3570  0074E0  EC49  F034         	call	___ftge	;wreg free
  3571  0074E4  A0D8               	btfss	status,0,c
  3572  0074E6  D006               	goto	l2039
  3573                           
  3574                           ;fuzzy.c: 50: ux=0;
  3575  0074E8  0E00               	movlw	0
  3576  0074EA  6E43               	movwf	triangular@ux,c
  3577  0074EC  0E00               	movlw	0
  3578  0074EE  6E44               	movwf	triangular@ux+1,c
  3579  0074F0  0E00               	movlw	0
  3580  0074F2  6E45               	movwf	triangular@ux+2,c
  3581  0074F4                     l2039:
  3582                           
  3583                           ;fuzzy.c: 51: }
  3584                           ;fuzzy.c: 52: if(x>a && x<b){
  3585  0074F4  C037  F007         	movff	triangular@a,___ftge@ff1
  3586  0074F8  C038  F008         	movff	triangular@a+1,___ftge@ff1+1
  3587  0074FC  C039  F009         	movff	triangular@a+2,___ftge@ff1+2
  3588  007500  C040  F00A         	movff	triangular@x,___ftge@ff2
  3589  007504  C041  F00B         	movff	triangular@x+1,___ftge@ff2+1
  3590  007508  C042  F00C         	movff	triangular@x+2,___ftge@ff2+2
  3591  00750C  EC49  F034         	call	___ftge	;wreg free
  3592  007510  B0D8               	btfsc	status,0,c
  3593  007512  D050               	goto	l2045
  3594  007514  C040  F007         	movff	triangular@x,___ftge@ff1
  3595  007518  C041  F008         	movff	triangular@x+1,___ftge@ff1+1
  3596  00751C  C042  F009         	movff	triangular@x+2,___ftge@ff1+2
  3597  007520  C03A  F00A         	movff	triangular@b,___ftge@ff2
  3598  007524  C03B  F00B         	movff	triangular@b+1,___ftge@ff2+1
  3599  007528  C03C  F00C         	movff	triangular@b+2,___ftge@ff2+2
  3600  00752C  EC49  F034         	call	___ftge	;wreg free
  3601  007530  B0D8               	btfsc	status,0,c
  3602  007532  D040               	goto	l2045
  3603                           
  3604                           ;fuzzy.c: 53: ux=(x-a)/(b-a);
  3605  007534  C040  F01F         	movff	triangular@x,___ftadd@f2
  3606  007538  C041  F020         	movff	triangular@x+1,___ftadd@f2+1
  3607  00753C  C042  F021         	movff	triangular@x+2,___ftadd@f2+2
  3608  007540  C037  F001         	movff	triangular@a,___ftneg@f1
  3609  007544  C038  F002         	movff	triangular@a+1,___ftneg@f1+1
  3610  007548  C039  F003         	movff	triangular@a+2,___ftneg@f1+2
  3611  00754C  EC3C  F033         	call	___ftneg	;wreg free
  3612  007550  C001  F01C         	movff	?___ftneg,___ftadd@f1
  3613  007554  C002  F01D         	movff	?___ftneg+1,___ftadd@f1+1
  3614  007558  C003  F01E         	movff	?___ftneg+2,___ftadd@f1+2
  3615  00755C  EC88  F039         	call	___ftadd	;wreg free
  3616  007560  C01C  F028         	movff	?___ftadd,___ftdiv@f1
  3617  007564  C01D  F029         	movff	?___ftadd+1,___ftdiv@f1+1
  3618  007568  C01E  F02A         	movff	?___ftadd+2,___ftdiv@f1+2
  3619  00756C  C03A  F01F         	movff	triangular@b,___ftadd@f2
  3620  007570  C03B  F020         	movff	triangular@b+1,___ftadd@f2+1
  3621  007574  C03C  F021         	movff	triangular@b+2,___ftadd@f2+2
  3622  007578  C037  F001         	movff	triangular@a,___ftneg@f1
  3623  00757C  C038  F002         	movff	triangular@a+1,___ftneg@f1+1
  3624  007580  C039  F003         	movff	triangular@a+2,___ftneg@f1+2
  3625  007584  EC3C  F033         	call	___ftneg	;wreg free
  3626  007588  C001  F01C         	movff	?___ftneg,___ftadd@f1
  3627  00758C  C002  F01D         	movff	?___ftneg+1,___ftadd@f1+1
  3628  007590  C003  F01E         	movff	?___ftneg+2,___ftadd@f1+2
  3629  007594  EC88  F039         	call	___ftadd	;wreg free
  3630  007598  C01C  F02B         	movff	?___ftadd,___ftdiv@f2
  3631  00759C  C01D  F02C         	movff	?___ftadd+1,___ftdiv@f2+1
  3632  0075A0  C01E  F02D         	movff	?___ftadd+2,___ftdiv@f2+2
  3633  0075A4  ECFA  F035         	call	___ftdiv	;wreg free
  3634  0075A8  C028  F043         	movff	?___ftdiv,triangular@ux
  3635  0075AC  C029  F044         	movff	?___ftdiv+1,triangular@ux+1
  3636  0075B0  C02A  F045         	movff	?___ftdiv+2,triangular@ux+2
  3637  0075B4                     l2045:
  3638                           
  3639                           ;fuzzy.c: 54: }
  3640                           ;fuzzy.c: 55: if(x==b){
  3641  0075B4  503C               	movf	triangular@b+2,w,c
  3642  0075B6  1842               	xorwf	triangular@x+2,w,c
  3643  0075B8  E105               	bnz	u1915
  3644  0075BA  503B               	movf	triangular@b+1,w,c
  3645  0075BC  1841               	xorwf	triangular@x+1,w,c
  3646  0075BE  E102               	bnz	u1915
  3647  0075C0  503A               	movf	triangular@b,w,c
  3648  0075C2  1840               	xorwf	triangular@x,w,c
  3649  0075C4                     u1915:
  3650  0075C4  A4D8               	btfss	status,2,c
  3651  0075C6  D006               	goto	l2049
  3652                           
  3653                           ;fuzzy.c: 56: ux=1;
  3654  0075C8  0E00               	movlw	0
  3655  0075CA  6E43               	movwf	triangular@ux,c
  3656  0075CC  0E80               	movlw	128
  3657  0075CE  6E44               	movwf	triangular@ux+1,c
  3658  0075D0  0E3F               	movlw	63
  3659  0075D2  6E45               	movwf	triangular@ux+2,c
  3660  0075D4                     l2049:
  3661                           
  3662                           ;fuzzy.c: 57: }
  3663                           ;fuzzy.c: 58: if(x>b && x<c){
  3664  0075D4  C03A  F007         	movff	triangular@b,___ftge@ff1
  3665  0075D8  C03B  F008         	movff	triangular@b+1,___ftge@ff1+1
  3666  0075DC  C03C  F009         	movff	triangular@b+2,___ftge@ff1+2
  3667  0075E0  C040  F00A         	movff	triangular@x,___ftge@ff2
  3668  0075E4  C041  F00B         	movff	triangular@x+1,___ftge@ff2+1
  3669  0075E8  C042  F00C         	movff	triangular@x+2,___ftge@ff2+2
  3670  0075EC  EC49  F034         	call	___ftge	;wreg free
  3671  0075F0  B0D8               	btfsc	status,0,c
  3672  0075F2  D050               	goto	l2055
  3673  0075F4  C040  F007         	movff	triangular@x,___ftge@ff1
  3674  0075F8  C041  F008         	movff	triangular@x+1,___ftge@ff1+1
  3675  0075FC  C042  F009         	movff	triangular@x+2,___ftge@ff1+2
  3676  007600  C03D  F00A         	movff	triangular@c,___ftge@ff2
  3677  007604  C03E  F00B         	movff	triangular@c+1,___ftge@ff2+1
  3678  007608  C03F  F00C         	movff	triangular@c+2,___ftge@ff2+2
  3679  00760C  EC49  F034         	call	___ftge	;wreg free
  3680  007610  B0D8               	btfsc	status,0,c
  3681  007612  D040               	goto	l2055
  3682                           
  3683                           ;fuzzy.c: 59: ux = (c-x)/(c-b);
  3684  007614  C03D  F01F         	movff	triangular@c,___ftadd@f2
  3685  007618  C03E  F020         	movff	triangular@c+1,___ftadd@f2+1
  3686  00761C  C03F  F021         	movff	triangular@c+2,___ftadd@f2+2
  3687  007620  C040  F001         	movff	triangular@x,___ftneg@f1
  3688  007624  C041  F002         	movff	triangular@x+1,___ftneg@f1+1
  3689  007628  C042  F003         	movff	triangular@x+2,___ftneg@f1+2
  3690  00762C  EC3C  F033         	call	___ftneg	;wreg free
  3691  007630  C001  F01C         	movff	?___ftneg,___ftadd@f1
  3692  007634  C002  F01D         	movff	?___ftneg+1,___ftadd@f1+1
  3693  007638  C003  F01E         	movff	?___ftneg+2,___ftadd@f1+2
  3694  00763C  EC88  F039         	call	___ftadd	;wreg free
  3695  007640  C01C  F028         	movff	?___ftadd,___ftdiv@f1
  3696  007644  C01D  F029         	movff	?___ftadd+1,___ftdiv@f1+1
  3697  007648  C01E  F02A         	movff	?___ftadd+2,___ftdiv@f1+2
  3698  00764C  C03D  F01F         	movff	triangular@c,___ftadd@f2
  3699  007650  C03E  F020         	movff	triangular@c+1,___ftadd@f2+1
  3700  007654  C03F  F021         	movff	triangular@c+2,___ftadd@f2+2
  3701  007658  C03A  F001         	movff	triangular@b,___ftneg@f1
  3702  00765C  C03B  F002         	movff	triangular@b+1,___ftneg@f1+1
  3703  007660  C03C  F003         	movff	triangular@b+2,___ftneg@f1+2
  3704  007664  EC3C  F033         	call	___ftneg	;wreg free
  3705  007668  C001  F01C         	movff	?___ftneg,___ftadd@f1
  3706  00766C  C002  F01D         	movff	?___ftneg+1,___ftadd@f1+1
  3707  007670  C003  F01E         	movff	?___ftneg+2,___ftadd@f1+2
  3708  007674  EC88  F039         	call	___ftadd	;wreg free
  3709  007678  C01C  F02B         	movff	?___ftadd,___ftdiv@f2
  3710  00767C  C01D  F02C         	movff	?___ftadd+1,___ftdiv@f2+1
  3711  007680  C01E  F02D         	movff	?___ftadd+2,___ftdiv@f2+2
  3712  007684  ECFA  F035         	call	___ftdiv	;wreg free
  3713  007688  C028  F043         	movff	?___ftdiv,triangular@ux
  3714  00768C  C029  F044         	movff	?___ftdiv+1,triangular@ux+1
  3715  007690  C02A  F045         	movff	?___ftdiv+2,triangular@ux+2
  3716  007694                     l2055:
  3717                           
  3718                           ;fuzzy.c: 60: }
  3719                           ;fuzzy.c: 61: return ux;
  3720  007694  C043  F037         	movff	triangular@ux,?_triangular
  3721  007698  C044  F038         	movff	triangular@ux+1,?_triangular+1
  3722  00769C  C045  F039         	movff	triangular@ux+2,?_triangular+2
  3723  0076A0  0012               	return	
  3724  0076A2                     __end_of_triangular:
  3725                           	opt stack 0
  3726                           tblptru	equ	0xFF8
  3727                           tblptrh	equ	0xFF7
  3728                           tblptrl	equ	0xFF6
  3729                           tablat	equ	0xFF5
  3730                           wreg	equ	0xFE8
  3731                           postinc1	equ	0xFE6
  3732                           postdec1	equ	0xFE5
  3733                           fsr1h	equ	0xFE2
  3734                           fsr1l	equ	0xFE1
  3735                           postinc2	equ	0xFDE
  3736                           postdec2	equ	0xFDD
  3737                           fsr2h	equ	0xFDA
  3738                           fsr2l	equ	0xFD9
  3739                           status	equ	0xFD8
  3740                           
  3741 ;; *************** function ___ftneg *****************
  3742 ;; Defined at:
  3743 ;;		line 15 in file "C:\Program Files\Microchip\xc8\v1.33\sources\common\ftneg.c"
  3744 ;; Parameters:    Size  Location     Type
  3745 ;;  f1              3    0[COMRAM] float 
  3746 ;; Auto vars:     Size  Location     Type
  3747 ;;		None
  3748 ;; Return value:  Size  Location     Type
  3749 ;;                  3    0[COMRAM] float 
  3750 ;; Registers used:
  3751 ;;		wreg, status,2, status,0
  3752 ;; Tracked objects:
  3753 ;;		On entry : 0/0
  3754 ;;		On exit  : 0/0
  3755 ;;		Unchanged: 0/0
  3756 ;; Data sizes:     COMRAM   BANK0   BANK1   BANK2   BANK3   BANK4   BANK5   BANK6   BANK7
  3757 ;;      Params:         3       0       0       0       0       0       0       0       0
  3758 ;;      Locals:         0       0       0       0       0       0       0       0       0
  3759 ;;      Temps:          0       0       0       0       0       0       0       0       0
  3760 ;;      Totals:         3       0       0       0       0       0       0       0       0
  3761 ;;Total ram usage:        3 bytes
  3762 ;; Hardware stack levels used:    1
  3763 ;; This function calls:
  3764 ;;		Nothing
  3765 ;; This function is called by:
  3766 ;;		_triangular
  3767 ;;		_trapezoidal
  3768 ;; This function uses a non-reentrant model
  3769 ;;
  3770                           
  3771                           	psect	text20
  3772  006678                     __ptext20:
  3773                           	opt stack 0
  3774  006678                     ___ftneg:
  3775                           	opt stack 28
  3776                           
  3777                           ;incstack = 0
  3778  006678  0E7F               	movlw	127
  3779  00667A  1403               	andwf	___ftneg@f1+2,w,c
  3780  00667C  1002               	iorwf	___ftneg@f1+1,w,c
  3781  00667E  1001               	iorwf	___ftneg@f1,w,c
  3782  006680  B4D8               	btfsc	status,2,c
  3783  006682  D006               	goto	l708
  3784  006684  0E00               	movlw	0
  3785  006686  1A01               	xorwf	___ftneg@f1,f,c
  3786  006688  0E00               	movlw	0
  3787  00668A  1A02               	xorwf	___ftneg@f1+1,f,c
  3788  00668C  0E80               	movlw	128
  3789  00668E  1A03               	xorwf	___ftneg@f1+2,f,c
  3790  006690                     l708:
  3791  006690  C001  F001         	movff	___ftneg@f1,?___ftneg
  3792  006694  C002  F002         	movff	___ftneg@f1+1,?___ftneg+1
  3793  006698  C003  F003         	movff	___ftneg@f1+2,?___ftneg+2
  3794  00669C  0012               	return	
  3795  00669E                     __end_of___ftneg:
  3796                           	opt stack 0
  3797                           tblptru	equ	0xFF8
  3798                           tblptrh	equ	0xFF7
  3799                           tblptrl	equ	0xFF6
  3800                           tablat	equ	0xFF5
  3801                           wreg	equ	0xFE8
  3802                           postinc1	equ	0xFE6
  3803                           postdec1	equ	0xFE5
  3804                           fsr1h	equ	0xFE2
  3805                           fsr1l	equ	0xFE1
  3806                           postinc2	equ	0xFDE
  3807                           postdec2	equ	0xFDD
  3808                           fsr2h	equ	0xFDA
  3809                           fsr2l	equ	0xFD9
  3810                           status	equ	0xFD8
  3811                           
  3812 ;; *************** function _qualified *****************
  3813 ;; Defined at:
  3814 ;;		line 108 in file "fuzzy.c"
  3815 ;; Parameters:    Size  Location     Type
  3816 ;;  y               2   15[COMRAM] PTR 
  3817 ;;		 -> fuzzy_system_single1@qualified_cons_mf3(120), fuzzy_system_single1@qualified_cons_mf2(120), fuzzy_system_single1
      +@qualified_cons_mf1(120), fuzzy_system_single2@qualified_cons_mf3(120), 
  3818 ;;		 -> fuzzy_system_single2@qualified_cons_mf2(120), fuzzy_system_single2@qualified_cons_mf1(120), fuzzy_system_single@
      +qualified_cons_mf3(120), fuzzy_system_single@qualified_cons_mf2(120), 
  3819 ;;		 -> fuzzy_system_single@qualified_cons_mf1(120), fuzzy_system@qualified_cons_mf3(120), fuzzy_system@qualified_cons_m
      +f2(120), fuzzy_system@qualified_cons_mf1(120), 
  3820 ;;  x               2   17[COMRAM] PTR 
  3821 ;;		 -> fuzzy_system_single1@cons_mf3(120), fuzzy_system_single1@cons_mf1(120), fuzzy_system_single2@cons_mf3(120), fuzz
      +y_system_single2@cons_mf1(120), 
  3822 ;;		 -> fuzzy_system_single@cons_mf3(120), fuzzy_system_single@cons_mf2(120), fuzzy_system_single@cons_mf1(120), fuzzy_s
      +ystem@cons_mf3(120), 
  3823 ;;		 -> fuzzy_system@cons_mf2(120), fuzzy_system@cons_mf1(120), 
  3824 ;;  w               3   19[COMRAM] PTR 
  3825 ;; Auto vars:     Size  Location     Type
  3826 ;;  min             3   22[COMRAM] PTR 
  3827 ;;  i               2   25[COMRAM] int 
  3828 ;; Return value:  Size  Location     Type
  3829 ;;		None               void
  3830 ;; Registers used:
  3831 ;;		wreg, fsr1l, fsr1h, fsr2l, fsr2h, status,2, status,0, prodl, prodh, cstack
  3832 ;; Tracked objects:
  3833 ;;		On entry : 0/0
  3834 ;;		On exit  : 0/0
  3835 ;;		Unchanged: 0/0
  3836 ;; Data sizes:     COMRAM   BANK0   BANK1   BANK2   BANK3   BANK4   BANK5   BANK6   BANK7
  3837 ;;      Params:         7       0       0       0       0       0       0       0       0
  3838 ;;      Locals:         5       0       0       0       0       0       0       0       0
  3839 ;;      Temps:          0       0       0       0       0       0       0       0       0
  3840 ;;      Totals:        12       0       0       0       0       0       0       0       0
  3841 ;;Total ram usage:       12 bytes
  3842 ;; Hardware stack levels used:    1
  3843 ;; Hardware stack levels required when called:    1
  3844 ;; This function calls:
  3845 ;;		___ftge
  3846 ;;		___wmul
  3847 ;; This function is called by:
  3848 ;;		_fuzzy_system_single2
  3849 ;;		_fuzzy_system_single1
  3850 ;;		_fuzzy_system
  3851 ;;		_fuzzy_system_single
  3852 ;; This function uses a non-reentrant model
  3853 ;;
  3854                           
  3855                           	psect	text21
  3856  006DAE                     __ptext21:
  3857                           	opt stack 0
  3858  006DAE                     _qualified:
  3859                           	opt stack 28
  3860                           
  3861                           ;fuzzy.c: 110: double min;
  3862                           ;fuzzy.c: 111: int i;
  3863                           ;fuzzy.c: 112: min=w;
  3864                           
  3865                           ;incstack = 0
  3866  006DAE  C014  F017         	movff	qualified@w,qualified@min
  3867  006DB2  C015  F018         	movff	qualified@w+1,qualified@min+1
  3868  006DB6  C016  F019         	movff	qualified@w+2,qualified@min+2
  3869                           
  3870                           ;fuzzy.c: 113: for(i=0;i<40;i++){
  3871  006DBA  0E00               	movlw	0
  3872  006DBC  6E1B               	movwf	qualified@i+1,c
  3873  006DBE  0E00               	movlw	0
  3874  006DC0  6E1A               	movwf	qualified@i,c
  3875  006DC2  501B               	movf	qualified@i+1,w,c
  3876  006DC4  0A80               	xorlw	128
  3877  006DC6  0F80               	addlw	-128
  3878  006DC8  0E28               	movlw	40
  3879  006DCA  B4D8               	btfsc	status,2,c
  3880  006DCC  5C1A               	subwf	qualified@i,w,c
  3881  006DCE  B0D8               	btfsc	status,0,c
  3882  006DD0  D061               	goto	l121
  3883                           
  3884                           ;fuzzy.c: 114: if (x[i] < w)
  3885  006DD2  C01A  F001         	movff	qualified@i,___wmul@multiplier
  3886  006DD6  C01B  F002         	movff	qualified@i+1,___wmul@multiplier+1
  3887  006DDA  0E00               	movlw	0
  3888  006DDC  6E04               	movwf	___wmul@multiplicand+1,c
  3889  006DDE  0E03               	movlw	3
  3890  006DE0  6E03               	movwf	___wmul@multiplicand,c
  3891  006DE2  EC29  F033         	call	___wmul	;wreg free
  3892  006DE6  5001               	movf	?___wmul,w,c
  3893  006DE8  2412               	addwf	qualified@x,w,c
  3894  006DEA  6ED9               	movwf	fsr2l,c
  3895  006DEC  5002               	movf	?___wmul+1,w,c
  3896  006DEE  2013               	addwfc	qualified@x+1,w,c
  3897  006DF0  6EDA               	movwf	fsr2h,c
  3898  006DF2  CFDE F007          	movff	postinc2,___ftge@ff1
  3899  006DF6  CFDE F008          	movff	postinc2,___ftge@ff1+1
  3900  006DFA  CFDD F009          	movff	postdec2,___ftge@ff1+2
  3901  006DFE  C014  F00A         	movff	qualified@w,___ftge@ff2
  3902  006E02  C015  F00B         	movff	qualified@w+1,___ftge@ff2+1
  3903  006E06  C016  F00C         	movff	qualified@w+2,___ftge@ff2+2
  3904  006E0A  EC49  F034         	call	___ftge	;wreg free
  3905  006E0E  B0D8               	btfsc	status,0,c
  3906  006E10  D028               	goto	l2323
  3907                           
  3908                           ;fuzzy.c: 115: y[i] = x[i];
  3909  006E12  C01A  F001         	movff	qualified@i,___wmul@multiplier
  3910  006E16  C01B  F002         	movff	qualified@i+1,___wmul@multiplier+1
  3911  006E1A  0E00               	movlw	0
  3912  006E1C  6E04               	movwf	___wmul@multiplicand+1,c
  3913  006E1E  0E03               	movlw	3
  3914  006E20  6E03               	movwf	___wmul@multiplicand,c
  3915  006E22  EC29  F033         	call	___wmul	;wreg free
  3916  006E26  5001               	movf	?___wmul,w,c
  3917  006E28  2412               	addwf	qualified@x,w,c
  3918  006E2A  6ED9               	movwf	fsr2l,c
  3919  006E2C  5002               	movf	?___wmul+1,w,c
  3920  006E2E  2013               	addwfc	qualified@x+1,w,c
  3921  006E30  6EDA               	movwf	fsr2h,c
  3922  006E32  C01A  F001         	movff	qualified@i,___wmul@multiplier
  3923  006E36  C01B  F002         	movff	qualified@i+1,___wmul@multiplier+1
  3924  006E3A  0E00               	movlw	0
  3925  006E3C  6E04               	movwf	___wmul@multiplicand+1,c
  3926  006E3E  0E03               	movlw	3
  3927  006E40  6E03               	movwf	___wmul@multiplicand,c
  3928  006E42  EC29  F033         	call	___wmul	;wreg free
  3929  006E46  5001               	movf	?___wmul,w,c
  3930  006E48  2410               	addwf	qualified@y,w,c
  3931  006E4A  6EE1               	movwf	fsr1l,c
  3932  006E4C  5002               	movf	?___wmul+1,w,c
  3933  006E4E  2011               	addwfc	qualified@y+1,w,c
  3934  006E50  6EE2               	movwf	fsr1h,c
  3935  006E52  CFDE FFE6          	movff	postinc2,postinc1
  3936  006E56  CFDE FFE6          	movff	postinc2,postinc1
  3937  006E5A  CFDE FFE5          	movff	postinc2,postdec1
  3938  006E5E  52E5               	movf	postdec1,f,c
  3939  006E60  D016               	goto	l2325
  3940  006E62                     l2323:
  3941                           
  3942                           ;fuzzy.c: 116: else
  3943                           ;fuzzy.c: 117: y[i] = w;
  3944  006E62  C01A  F001         	movff	qualified@i,___wmul@multiplier
  3945  006E66  C01B  F002         	movff	qualified@i+1,___wmul@multiplier+1
  3946  006E6A  0E00               	movlw	0
  3947  006E6C  6E04               	movwf	___wmul@multiplicand+1,c
  3948  006E6E  0E03               	movlw	3
  3949  006E70  6E03               	movwf	___wmul@multiplicand,c
  3950  006E72  EC29  F033         	call	___wmul	;wreg free
  3951  006E76  5001               	movf	?___wmul,w,c
  3952  006E78  2410               	addwf	qualified@y,w,c
  3953  006E7A  6ED9               	movwf	fsr2l,c
  3954  006E7C  5002               	movf	?___wmul+1,w,c
  3955  006E7E  2011               	addwfc	qualified@y+1,w,c
  3956  006E80  6EDA               	movwf	fsr2h,c
  3957  006E82  C014  FFDE         	movff	qualified@w,postinc2
  3958  006E86  C015  FFDE         	movff	qualified@w+1,postinc2
  3959  006E8A  C016  FFDD         	movff	qualified@w+2,postdec2
  3960  006E8E                     l2325:
  3961  006E8E  4A1A               	infsnz	qualified@i,f,c
  3962  006E90  2A1B               	incf	qualified@i+1,f,c
  3963  006E92  D797               	goto	L8
  3964  006E94                     l121:
  3965  006E94  0012               	return	
  3966  006E96                     __end_of_qualified:
  3967                           	opt stack 0
  3968                           tblptru	equ	0xFF8
  3969                           tblptrh	equ	0xFF7
  3970                           tblptrl	equ	0xFF6
  3971                           tablat	equ	0xFF5
  3972                           wreg	equ	0xFE8
  3973                           postinc1	equ	0xFE6
  3974                           postdec1	equ	0xFE5
  3975                           fsr1h	equ	0xFE2
  3976                           fsr1l	equ	0xFE1
  3977                           postinc2	equ	0xFDE
  3978                           postdec2	equ	0xFDD
  3979                           fsr2h	equ	0xFDA
  3980                           fsr2l	equ	0xFD9
  3981                           status	equ	0xFD8
  3982                           
  3983 ;; *************** function _out_mf *****************
  3984 ;; Defined at:
  3985 ;;		line 123 in file "fuzzy.c"
  3986 ;; Parameters:    Size  Location     Type
  3987 ;;  result          2   15[COMRAM] PTR 
  3988 ;;		 -> fuzzy_system_single1@overall_out_mf(120), fuzzy_system_single2@overall_out_mf(120), fuzzy_system_single@overall_
      +out_mf(120), fuzzy_system@overall_out_mf(120), 
  3989 ;;  x               2   17[COMRAM] PTR 
  3990 ;;		 -> fuzzy_system_single1@qualified_cons_mf1(120), fuzzy_system_single2@qualified_cons_mf1(120), fuzzy_system_single@
      +qualified_cons_mf1(120), fuzzy_system@qualified_cons_mf1(120), 
  3991 ;;  y               2   19[COMRAM] PTR 
  3992 ;;		 -> fuzzy_system_single1@qualified_cons_mf2(120), fuzzy_system_single2@qualified_cons_mf2(120), fuzzy_system_single@
      +qualified_cons_mf2(120), fuzzy_system@qualified_cons_mf2(120), 
  3993 ;;  z               2   21[COMRAM] PTR 
  3994 ;;		 -> fuzzy_system_single1@qualified_cons_mf3(120), fuzzy_system_single2@qualified_cons_mf3(120), fuzzy_system_single@
      +qualified_cons_mf3(120), fuzzy_system@qualified_cons_mf3(120), 
  3995 ;; Auto vars:     Size  Location     Type
  3996 ;;  i               2   23[COMRAM] int 
  3997 ;; Return value:  Size  Location     Type
  3998 ;;		None               void
  3999 ;; Registers used:
  4000 ;;		wreg, fsr1l, fsr1h, fsr2l, fsr2h, status,2, status,0, prodl, prodh, cstack
  4001 ;; Tracked objects:
  4002 ;;		On entry : 0/0
  4003 ;;		On exit  : 0/0
  4004 ;;		Unchanged: 0/0
  4005 ;; Data sizes:     COMRAM   BANK0   BANK1   BANK2   BANK3   BANK4   BANK5   BANK6   BANK7
  4006 ;;      Params:         8       0       0       0       0       0       0       0       0
  4007 ;;      Locals:         2       0       0       0       0       0       0       0       0
  4008 ;;      Temps:          0       0       0       0       0       0       0       0       0
  4009 ;;      Totals:        10       0       0       0       0       0       0       0       0
  4010 ;;Total ram usage:       10 bytes
  4011 ;; Hardware stack levels used:    1
  4012 ;; Hardware stack levels required when called:    1
  4013 ;; This function calls:
  4014 ;;		___ftge
  4015 ;;		___wmul
  4016 ;; This function is called by:
  4017 ;;		_fuzzy_system_single2
  4018 ;;		_fuzzy_system_single1
  4019 ;;		_fuzzy_system
  4020 ;;		_fuzzy_system_single
  4021 ;; This function uses a non-reentrant model
  4022 ;;
  4023                           
  4024                           	psect	text22
  4025  0076A2                     __ptext22:
  4026                           	opt stack 0
  4027  0076A2                     _out_mf:
  4028                           	opt stack 28
  4029                           
  4030                           ;fuzzy.c: 125: int i;
  4031                           ;fuzzy.c: 126: for(i=0; i<40;i++){
  4032                           
  4033                           ;incstack = 0
  4034  0076A2  0E00               	movlw	0
  4035  0076A4  6E19               	movwf	out_mf@i+1,c
  4036  0076A6  0E00               	movlw	0
  4037  0076A8  6E18               	movwf	out_mf@i,c
  4038  0076AA  5019               	movf	out_mf@i+1,w,c
  4039  0076AC  0A80               	xorlw	128
  4040  0076AE  0F80               	addlw	-128
  4041  0076B0  0E28               	movlw	40
  4042  0076B2  B4D8               	btfsc	status,2,c
  4043  0076B4  5C18               	subwf	out_mf@i,w,c
  4044  0076B6  B0D8               	btfsc	status,0,c
  4045  0076B8  D120               	goto	l130
  4046                           
  4047                           ;fuzzy.c: 127: if(x[i] > y[i] && x[i] > z[i])
  4048  0076BA  C018  F001         	movff	out_mf@i,___wmul@multiplier
  4049  0076BE  C019  F002         	movff	out_mf@i+1,___wmul@multiplier+1
  4050  0076C2  0E00               	movlw	0
  4051  0076C4  6E04               	movwf	___wmul@multiplicand+1,c
  4052  0076C6  0E03               	movlw	3
  4053  0076C8  6E03               	movwf	___wmul@multiplicand,c
  4054  0076CA  EC29  F033         	call	___wmul	;wreg free
  4055  0076CE  5001               	movf	?___wmul,w,c
  4056  0076D0  2414               	addwf	out_mf@y,w,c
  4057  0076D2  6ED9               	movwf	fsr2l,c
  4058  0076D4  5002               	movf	?___wmul+1,w,c
  4059  0076D6  2015               	addwfc	out_mf@y+1,w,c
  4060  0076D8  6EDA               	movwf	fsr2h,c
  4061  0076DA  CFDE F007          	movff	postinc2,___ftge@ff1
  4062  0076DE  CFDE F008          	movff	postinc2,___ftge@ff1+1
  4063  0076E2  CFDD F009          	movff	postdec2,___ftge@ff1+2
  4064  0076E6  C018  F001         	movff	out_mf@i,___wmul@multiplier
  4065  0076EA  C019  F002         	movff	out_mf@i+1,___wmul@multiplier+1
  4066  0076EE  0E00               	movlw	0
  4067  0076F0  6E04               	movwf	___wmul@multiplicand+1,c
  4068  0076F2  0E03               	movlw	3
  4069  0076F4  6E03               	movwf	___wmul@multiplicand,c
  4070  0076F6  EC29  F033         	call	___wmul	;wreg free
  4071  0076FA  5001               	movf	?___wmul,w,c
  4072  0076FC  2412               	addwf	out_mf@x,w,c
  4073  0076FE  6ED9               	movwf	fsr2l,c
  4074  007700  5002               	movf	?___wmul+1,w,c
  4075  007702  2013               	addwfc	out_mf@x+1,w,c
  4076  007704  6EDA               	movwf	fsr2h,c
  4077  007706  CFDE F00A          	movff	postinc2,___ftge@ff2
  4078  00770A  CFDE F00B          	movff	postinc2,___ftge@ff2+1
  4079  00770E  CFDD F00C          	movff	postdec2,___ftge@ff2+2
  4080  007712  EC49  F034         	call	___ftge	;wreg free
  4081  007716  B0D8               	btfsc	status,0,c
  4082  007718  D04B               	goto	l2341
  4083  00771A  C018  F001         	movff	out_mf@i,___wmul@multiplier
  4084  00771E  C019  F002         	movff	out_mf@i+1,___wmul@multiplier+1
  4085  007722  0E00               	movlw	0
  4086  007724  6E04               	movwf	___wmul@multiplicand+1,c
  4087  007726  0E03               	movlw	3
  4088  007728  6E03               	movwf	___wmul@multiplicand,c
  4089  00772A  EC29  F033         	call	___wmul	;wreg free
  4090  00772E  5001               	movf	?___wmul,w,c
  4091  007730  2416               	addwf	out_mf@z,w,c
  4092  007732  6ED9               	movwf	fsr2l,c
  4093  007734  5002               	movf	?___wmul+1,w,c
  4094  007736  2017               	addwfc	out_mf@z+1,w,c
  4095  007738  6EDA               	movwf	fsr2h,c
  4096  00773A  CFDE F007          	movff	postinc2,___ftge@ff1
  4097  00773E  CFDE F008          	movff	postinc2,___ftge@ff1+1
  4098  007742  CFDD F009          	movff	postdec2,___ftge@ff1+2
  4099  007746  C018  F001         	movff	out_mf@i,___wmul@multiplier
  4100  00774A  C019  F002         	movff	out_mf@i+1,___wmul@multiplier+1
  4101  00774E  0E00               	movlw	0
  4102  007750  6E04               	movwf	___wmul@multiplicand+1,c
  4103  007752  0E03               	movlw	3
  4104  007754  6E03               	movwf	___wmul@multiplicand,c
  4105  007756  EC29  F033         	call	___wmul	;wreg free
  4106  00775A  5001               	movf	?___wmul,w,c
  4107  00775C  2412               	addwf	out_mf@x,w,c
  4108  00775E  6ED9               	movwf	fsr2l,c
  4109  007760  5002               	movf	?___wmul+1,w,c
  4110  007762  2013               	addwfc	out_mf@x+1,w,c
  4111  007764  6EDA               	movwf	fsr2h,c
  4112  007766  CFDE F00A          	movff	postinc2,___ftge@ff2
  4113  00776A  CFDE F00B          	movff	postinc2,___ftge@ff2+1
  4114  00776E  CFDD F00C          	movff	postdec2,___ftge@ff2+2
  4115  007772  EC49  F034         	call	___ftge	;wreg free
  4116  007776  B0D8               	btfsc	status,0,c
  4117  007778  D01B               	goto	l2341
  4118                           
  4119                           ;fuzzy.c: 128: {
  4120                           ;fuzzy.c: 130: result[i]=x[i];
  4121  00777A  C018  F001         	movff	out_mf@i,___wmul@multiplier
  4122  00777E  C019  F002         	movff	out_mf@i+1,___wmul@multiplier+1
  4123  007782  0E00               	movlw	0
  4124  007784  6E04               	movwf	___wmul@multiplicand+1,c
  4125  007786  0E03               	movlw	3
  4126  007788  6E03               	movwf	___wmul@multiplicand,c
  4127  00778A  EC29  F033         	call	___wmul	;wreg free
  4128  00778E  5001               	movf	?___wmul,w,c
  4129  007790  2412               	addwf	out_mf@x,w,c
  4130  007792  6ED9               	movwf	fsr2l,c
  4131  007794  5002               	movf	?___wmul+1,w,c
  4132  007796  2013               	addwfc	out_mf@x+1,w,c
  4133  007798  6EDA               	movwf	fsr2h,c
  4134  00779A  C018  F001         	movff	out_mf@i,___wmul@multiplier
  4135  00779E  C019  F002         	movff	out_mf@i+1,___wmul@multiplier+1
  4136  0077A2  0E00               	movlw	0
  4137  0077A4  6E04               	movwf	___wmul@multiplicand+1,c
  4138  0077A6  0E03               	movlw	3
  4139  0077A8  6E03               	movwf	___wmul@multiplicand,c
  4140  0077AA  EC29  F033         	call	___wmul	;wreg free
  4141  0077AE  D095               	goto	L10
  4142  0077B0                     l2341:
  4143                           
  4144                           ;fuzzy.c: 132: else
  4145                           ;fuzzy.c: 133: {
  4146                           ;fuzzy.c: 134: if( y[i] > x[i] && y[i] > z[i]){
  4147  0077B0  C018  F001         	movff	out_mf@i,___wmul@multiplier
  4148  0077B4  C019  F002         	movff	out_mf@i+1,___wmul@multiplier+1
  4149  0077B8  0E00               	movlw	0
  4150  0077BA  6E04               	movwf	___wmul@multiplicand+1,c
  4151  0077BC  0E03               	movlw	3
  4152  0077BE  6E03               	movwf	___wmul@multiplicand,c
  4153  0077C0  EC29  F033         	call	___wmul	;wreg free
  4154  0077C4  5001               	movf	?___wmul,w,c
  4155  0077C6  2412               	addwf	out_mf@x,w,c
  4156  0077C8  6ED9               	movwf	fsr2l,c
  4157  0077CA  5002               	movf	?___wmul+1,w,c
  4158  0077CC  2013               	addwfc	out_mf@x+1,w,c
  4159  0077CE  6EDA               	movwf	fsr2h,c
  4160  0077D0  CFDE F007          	movff	postinc2,___ftge@ff1
  4161  0077D4  CFDE F008          	movff	postinc2,___ftge@ff1+1
  4162  0077D8  CFDD F009          	movff	postdec2,___ftge@ff1+2
  4163  0077DC  C018  F001         	movff	out_mf@i,___wmul@multiplier
  4164  0077E0  C019  F002         	movff	out_mf@i+1,___wmul@multiplier+1
  4165  0077E4  0E00               	movlw	0
  4166  0077E6  6E04               	movwf	___wmul@multiplicand+1,c
  4167  0077E8  0E03               	movlw	3
  4168  0077EA  6E03               	movwf	___wmul@multiplicand,c
  4169  0077EC  EC29  F033         	call	___wmul	;wreg free
  4170  0077F0  5001               	movf	?___wmul,w,c
  4171  0077F2  2414               	addwf	out_mf@y,w,c
  4172  0077F4  6ED9               	movwf	fsr2l,c
  4173  0077F6  5002               	movf	?___wmul+1,w,c
  4174  0077F8  2015               	addwfc	out_mf@y+1,w,c
  4175  0077FA  6EDA               	movwf	fsr2h,c
  4176  0077FC  CFDE F00A          	movff	postinc2,___ftge@ff2
  4177  007800  CFDE F00B          	movff	postinc2,___ftge@ff2+1
  4178  007804  CFDD F00C          	movff	postdec2,___ftge@ff2+2
  4179  007808  EC49  F034         	call	___ftge	;wreg free
  4180  00780C  B0D8               	btfsc	status,0,c
  4181  00780E  D04B               	goto	l2347
  4182  007810  C018  F001         	movff	out_mf@i,___wmul@multiplier
  4183  007814  C019  F002         	movff	out_mf@i+1,___wmul@multiplier+1
  4184  007818  0E00               	movlw	0
  4185  00781A  6E04               	movwf	___wmul@multiplicand+1,c
  4186  00781C  0E03               	movlw	3
  4187  00781E  6E03               	movwf	___wmul@multiplicand,c
  4188  007820  EC29  F033         	call	___wmul	;wreg free
  4189  007824  5001               	movf	?___wmul,w,c
  4190  007826  2416               	addwf	out_mf@z,w,c
  4191  007828  6ED9               	movwf	fsr2l,c
  4192  00782A  5002               	movf	?___wmul+1,w,c
  4193  00782C  2017               	addwfc	out_mf@z+1,w,c
  4194  00782E  6EDA               	movwf	fsr2h,c
  4195  007830  CFDE F007          	movff	postinc2,___ftge@ff1
  4196  007834  CFDE F008          	movff	postinc2,___ftge@ff1+1
  4197  007838  CFDD F009          	movff	postdec2,___ftge@ff1+2
  4198  00783C  C018  F001         	movff	out_mf@i,___wmul@multiplier
  4199  007840  C019  F002         	movff	out_mf@i+1,___wmul@multiplier+1
  4200  007844  0E00               	movlw	0
  4201  007846  6E04               	movwf	___wmul@multiplicand+1,c
  4202  007848  0E03               	movlw	3
  4203  00784A  6E03               	movwf	___wmul@multiplicand,c
  4204  00784C  EC29  F033         	call	___wmul	;wreg free
  4205  007850  5001               	movf	?___wmul,w,c
  4206  007852  2414               	addwf	out_mf@y,w,c
  4207  007854  6ED9               	movwf	fsr2l,c
  4208  007856  5002               	movf	?___wmul+1,w,c
  4209  007858  2015               	addwfc	out_mf@y+1,w,c
  4210  00785A  6EDA               	movwf	fsr2h,c
  4211  00785C  CFDE F00A          	movff	postinc2,___ftge@ff2
  4212  007860  CFDE F00B          	movff	postinc2,___ftge@ff2+1
  4213  007864  CFDD F00C          	movff	postdec2,___ftge@ff2+2
  4214  007868  EC49  F034         	call	___ftge	;wreg free
  4215  00786C  B0D8               	btfsc	status,0,c
  4216  00786E  D01B               	goto	l2347
  4217                           
  4218                           ;fuzzy.c: 136: result[i]=y[i];
  4219  007870  C018  F001         	movff	out_mf@i,___wmul@multiplier
  4220  007874  C019  F002         	movff	out_mf@i+1,___wmul@multiplier+1
  4221  007878  0E00               	movlw	0
  4222  00787A  6E04               	movwf	___wmul@multiplicand+1,c
  4223  00787C  0E03               	movlw	3
  4224  00787E  6E03               	movwf	___wmul@multiplicand,c
  4225  007880  EC29  F033         	call	___wmul	;wreg free
  4226  007884  5001               	movf	?___wmul,w,c
  4227  007886  2414               	addwf	out_mf@y,w,c
  4228  007888  6ED9               	movwf	fsr2l,c
  4229  00788A  5002               	movf	?___wmul+1,w,c
  4230  00788C  2015               	addwfc	out_mf@y+1,w,c
  4231  00788E  6EDA               	movwf	fsr2h,c
  4232  007890  C018  F001         	movff	out_mf@i,___wmul@multiplier
  4233  007894  C019  F002         	movff	out_mf@i+1,___wmul@multiplier+1
  4234  007898  0E00               	movlw	0
  4235  00789A  6E04               	movwf	___wmul@multiplicand+1,c
  4236  00789C  0E03               	movlw	3
  4237  00789E  6E03               	movwf	___wmul@multiplicand,c
  4238  0078A0  EC29  F033         	call	___wmul	;wreg free
  4239  0078A4  D01A               	goto	L10
  4240  0078A6                     l2347:
  4241                           
  4242                           ;fuzzy.c: 138: else
  4243                           ;fuzzy.c: 139: {
  4244                           ;fuzzy.c: 141: result[i]=z[i];
  4245  0078A6  C018  F001         	movff	out_mf@i,___wmul@multiplier
  4246  0078AA  C019  F002         	movff	out_mf@i+1,___wmul@multiplier+1
  4247  0078AE  0E00               	movlw	0
  4248  0078B0  6E04               	movwf	___wmul@multiplicand+1,c
  4249  0078B2  0E03               	movlw	3
  4250  0078B4  6E03               	movwf	___wmul@multiplicand,c
  4251  0078B6  EC29  F033         	call	___wmul	;wreg free
  4252  0078BA  5001               	movf	?___wmul,w,c
  4253  0078BC  2416               	addwf	out_mf@z,w,c
  4254  0078BE  6ED9               	movwf	fsr2l,c
  4255  0078C0  5002               	movf	?___wmul+1,w,c
  4256  0078C2  2017               	addwfc	out_mf@z+1,w,c
  4257  0078C4  6EDA               	movwf	fsr2h,c
  4258  0078C6  C018  F001         	movff	out_mf@i,___wmul@multiplier
  4259  0078CA  C019  F002         	movff	out_mf@i+1,___wmul@multiplier+1
  4260  0078CE  0E00               	movlw	0
  4261  0078D0  6E04               	movwf	___wmul@multiplicand+1,c
  4262  0078D2  0E03               	movlw	3
  4263  0078D4  6E03               	movwf	___wmul@multiplicand,c
  4264  0078D6  EC29  F033         	call	___wmul	;wreg free
  4265  0078DA                     L10:
  4266  0078DA  5001               	movf	?___wmul,w,c
  4267  0078DC  2410               	addwf	out_mf@result,w,c
  4268  0078DE  6EE1               	movwf	fsr1l,c
  4269  0078E0  5002               	movf	?___wmul+1,w,c
  4270  0078E2  2011               	addwfc	out_mf@result+1,w,c
  4271  0078E4  6EE2               	movwf	fsr1h,c
  4272  0078E6  CFDE FFE6          	movff	postinc2,postinc1
  4273  0078EA  CFDE FFE6          	movff	postinc2,postinc1
  4274  0078EE  CFDE FFE5          	movff	postinc2,postdec1
  4275  0078F2  52E5               	movf	postdec1,f,c
  4276  0078F4  4A18               	infsnz	out_mf@i,f,c
  4277  0078F6  2A19               	incf	out_mf@i+1,f,c
  4278  0078F8  D6D8               	goto	L11
  4279  0078FA                     l130:
  4280  0078FA  0012               	return	
  4281  0078FC                     __end_of_out_mf:
  4282                           	opt stack 0
  4283                           tblptru	equ	0xFF8
  4284                           tblptrh	equ	0xFF7
  4285                           tblptrl	equ	0xFF6
  4286                           tablat	equ	0xFF5
  4287                           wreg	equ	0xFE8
  4288                           postinc1	equ	0xFE6
  4289                           postdec1	equ	0xFE5
  4290                           fsr1h	equ	0xFE2
  4291                           fsr1l	equ	0xFE1
  4292                           postinc2	equ	0xFDE
  4293                           postdec2	equ	0xFDD
  4294                           fsr2h	equ	0xFDA
  4295                           fsr2l	equ	0xFD9
  4296                           status	equ	0xFD8
  4297                           
  4298 ;; *************** function ___ftge *****************
  4299 ;; Defined at:
  4300 ;;		line 4 in file "C:\Program Files\Microchip\xc8\v1.33\sources\common\ftge.c"
  4301 ;; Parameters:    Size  Location     Type
  4302 ;;  ff1             3    6[COMRAM] float 
  4303 ;;  ff2             3    9[COMRAM] float 
  4304 ;; Auto vars:     Size  Location     Type
  4305 ;;		None
  4306 ;; Return value:  Size  Location     Type
  4307 ;;		None               void
  4308 ;; Registers used:
  4309 ;;		wreg, status,2, status,0
  4310 ;; Tracked objects:
  4311 ;;		On entry : 0/0
  4312 ;;		On exit  : 0/0
  4313 ;;		Unchanged: 0/0
  4314 ;; Data sizes:     COMRAM   BANK0   BANK1   BANK2   BANK3   BANK4   BANK5   BANK6   BANK7
  4315 ;;      Params:         6       0       0       0       0       0       0       0       0
  4316 ;;      Locals:         0       0       0       0       0       0       0       0       0
  4317 ;;      Temps:          3       0       0       0       0       0       0       0       0
  4318 ;;      Totals:         9       0       0       0       0       0       0       0       0
  4319 ;;Total ram usage:        9 bytes
  4320 ;; Hardware stack levels used:    1
  4321 ;; This function calls:
  4322 ;;		Nothing
  4323 ;; This function is called by:
  4324 ;;		_triangular
  4325 ;;		_qualified
  4326 ;;		_out_mf
  4327 ;;		_minimo
  4328 ;;		_maximo
  4329 ;;		_trapezoidal
  4330 ;; This function uses a non-reentrant model
  4331 ;;
  4332                           
  4333                           	psect	text23
  4334  006892                     __ptext23:
  4335                           	opt stack 0
  4336  006892                     ___ftge:
  4337                           	opt stack 28
  4338                           
  4339                           ;incstack = 0
  4340  006892  AE09               	btfss	___ftge@ff1+2,7,c
  4341  006894  D016               	goto	l2015
  4342  006896  C007  F00D         	movff	___ftge@ff1,??___ftge
  4343  00689A  C008  F00E         	movff	___ftge@ff1+1,??___ftge+1
  4344  00689E  C009  F00F         	movff	___ftge@ff1+2,??___ftge+2
  4345  0068A2  1E0D               	comf	??___ftge,f,c
  4346  0068A4  1E0E               	comf	??___ftge+1,f,c
  4347  0068A6  1E0F               	comf	??___ftge+2,f,c
  4348  0068A8  2A0D               	incf	??___ftge,f,c
  4349  0068AA  0E00               	movlw	0
  4350  0068AC  220E               	addwfc	??___ftge+1,f,c
  4351  0068AE  220F               	addwfc	??___ftge+2,f,c
  4352  0068B0  0E00               	movlw	0
  4353  0068B2  240D               	addwf	??___ftge,w,c
  4354  0068B4  6E07               	movwf	___ftge@ff1,c
  4355  0068B6  0E00               	movlw	0
  4356  0068B8  200E               	addwfc	??___ftge+1,w,c
  4357  0068BA  6E08               	movwf	___ftge@ff1+1,c
  4358  0068BC  0E80               	movlw	128
  4359  0068BE  200F               	addwfc	??___ftge+2,w,c
  4360  0068C0  6E09               	movwf	___ftge@ff1+2,c
  4361  0068C2                     l2015:
  4362  0068C2  AE0C               	btfss	___ftge@ff2+2,7,c
  4363  0068C4  D016               	goto	l2019
  4364  0068C6  C00A  F00D         	movff	___ftge@ff2,??___ftge
  4365  0068CA  C00B  F00E         	movff	___ftge@ff2+1,??___ftge+1
  4366  0068CE  C00C  F00F         	movff	___ftge@ff2+2,??___ftge+2
  4367  0068D2  1E0D               	comf	??___ftge,f,c
  4368  0068D4  1E0E               	comf	??___ftge+1,f,c
  4369  0068D6  1E0F               	comf	??___ftge+2,f,c
  4370  0068D8  2A0D               	incf	??___ftge,f,c
  4371  0068DA  0E00               	movlw	0
  4372  0068DC  220E               	addwfc	??___ftge+1,f,c
  4373  0068DE  220F               	addwfc	??___ftge+2,f,c
  4374  0068E0  0E00               	movlw	0
  4375  0068E2  240D               	addwf	??___ftge,w,c
  4376  0068E4  6E0A               	movwf	___ftge@ff2,c
  4377  0068E6  0E00               	movlw	0
  4378  0068E8  200E               	addwfc	??___ftge+1,w,c
  4379  0068EA  6E0B               	movwf	___ftge@ff2+1,c
  4380  0068EC  0E80               	movlw	128
  4381  0068EE  200F               	addwfc	??___ftge+2,w,c
  4382  0068F0  6E0C               	movwf	___ftge@ff2+2,c
  4383  0068F2                     l2019:
  4384  0068F2  0E00               	movlw	0
  4385  0068F4  1A07               	xorwf	___ftge@ff1,f,c
  4386  0068F6  0E00               	movlw	0
  4387  0068F8  1A08               	xorwf	___ftge@ff1+1,f,c
  4388  0068FA  0E80               	movlw	128
  4389  0068FC  1A09               	xorwf	___ftge@ff1+2,f,c
  4390  0068FE  0E00               	movlw	0
  4391  006900  1A0A               	xorwf	___ftge@ff2,f,c
  4392  006902  0E00               	movlw	0
  4393  006904  1A0B               	xorwf	___ftge@ff2+1,f,c
  4394  006906  0E80               	movlw	128
  4395  006908  1A0C               	xorwf	___ftge@ff2+2,f,c
  4396  00690A  500A               	movf	___ftge@ff2,w,c
  4397  00690C  5C07               	subwf	___ftge@ff1,w,c
  4398  00690E  500B               	movf	___ftge@ff2+1,w,c
  4399  006910  5808               	subwfb	___ftge@ff1+1,w,c
  4400  006912  500C               	movf	___ftge@ff2+2,w,c
  4401  006914  5809               	subwfb	___ftge@ff1+2,w,c
  4402  006916  B0D8               	btfsc	status,0,c
  4403  006918  D002               	goto	l2025
  4404  00691A  90D8               	bcf	status,0,c
  4405  00691C  D001               	goto	l692
  4406  00691E                     l2025:
  4407  00691E  80D8               	bsf	status,0,c
  4408  006920                     l692:
  4409  006920  0012               	return	
  4410  006922                     __end_of___ftge:
  4411                           	opt stack 0
  4412                           tblptru	equ	0xFF8
  4413                           tblptrh	equ	0xFF7
  4414                           tblptrl	equ	0xFF6
  4415                           tablat	equ	0xFF5
  4416                           wreg	equ	0xFE8
  4417                           postinc1	equ	0xFE6
  4418                           postdec1	equ	0xFE5
  4419                           fsr1h	equ	0xFE2
  4420                           fsr1l	equ	0xFE1
  4421                           postinc2	equ	0xFDE
  4422                           postdec2	equ	0xFDD
  4423                           fsr2h	equ	0xFDA
  4424                           fsr2l	equ	0xFD9
  4425                           status	equ	0xFD8
  4426                           
  4427 ;; *************** function _linspace *****************
  4428 ;; Defined at:
  4429 ;;		line 12 in file "fuzzy.c"
  4430 ;; Parameters:    Size  Location     Type
  4431 ;;  x               2   54[COMRAM] PTR 
  4432 ;;		 -> fuzzy_system_single1@y(120), fuzzy_system_single1@x(120), fuzzy_system_single2@y(120), fuzzy_system_single2@x(12
      +0), 
  4433 ;;		 -> fuzzy_system_single@y(120), fuzzy_system_single@x(120), fuzzy_system@y(120), fuzzy_system@x(120), 
  4434 ;;  start           3   56[COMRAM] PTR 
  4435 ;;  end             3   59[COMRAM] PTR 
  4436 ;;  size            2   62[COMRAM] int 
  4437 ;; Auto vars:     Size  Location     Type
  4438 ;;  i               2   66[COMRAM] int 
  4439 ;; Return value:  Size  Location     Type
  4440 ;;		None               void
  4441 ;; Registers used:
  4442 ;;		wreg, fsr2l, fsr2h, status,2, status,0, prodl, prodh, cstack
  4443 ;; Tracked objects:
  4444 ;;		On entry : 0/0
  4445 ;;		On exit  : 0/0
  4446 ;;		Unchanged: 0/0
  4447 ;; Data sizes:     COMRAM   BANK0   BANK1   BANK2   BANK3   BANK4   BANK5   BANK6   BANK7
  4448 ;;      Params:        10       0       0       0       0       0       0       0       0
  4449 ;;      Locals:         2       0       0       0       0       0       0       0       0
  4450 ;;      Temps:          2       0       0       0       0       0       0       0       0
  4451 ;;      Totals:        14       0       0       0       0       0       0       0       0
  4452 ;;Total ram usage:       14 bytes
  4453 ;; Hardware stack levels used:    1
  4454 ;; Hardware stack levels required when called:    2
  4455 ;; This function calls:
  4456 ;;		___awtoft
  4457 ;;		___ftadd
  4458 ;;		___ftdiv
  4459 ;;		___ftmul
  4460 ;;		___wmul
  4461 ;; This function is called by:
  4462 ;;		_fuzzy_system_single2
  4463 ;;		_fuzzy_system_single1
  4464 ;;		_fuzzy_system
  4465 ;;		_fuzzy_system_single
  4466 ;; This function uses a non-reentrant model
  4467 ;;
  4468                           
  4469                           	psect	text24
  4470  006F8A                     __ptext24:
  4471                           	opt stack 0
  4472  006F8A                     _linspace:
  4473                           	opt stack 27
  4474                           
  4475                           ;fuzzy.c: 14: int i;
  4476                           ;fuzzy.c: 15: for (i=0; i<size; i++)
  4477                           
  4478                           ;incstack = 0
  4479  006F8A  0E00               	movlw	0
  4480  006F8C  6E44               	movwf	linspace@i+1,c
  4481  006F8E  0E00               	movlw	0
  4482  006F90  6E43               	movwf	linspace@i,c
  4483  006F92  D071               	goto	l2257
  4484  006F94                     l2253:
  4485                           
  4486                           ;fuzzy.c: 16: x[i] = ( i*end + (size-1-i)*start ) / (size-1);
  4487  006F94  C043  F001         	movff	linspace@i,___wmul@multiplier
  4488  006F98  C044  F002         	movff	linspace@i+1,___wmul@multiplier+1
  4489  006F9C  0E00               	movlw	0
  4490  006F9E  6E04               	movwf	___wmul@multiplicand+1,c
  4491  006FA0  0E03               	movlw	3
  4492  006FA2  6E03               	movwf	___wmul@multiplicand,c
  4493  006FA4  EC29  F033         	call	___wmul	;wreg free
  4494  006FA8  5001               	movf	?___wmul,w,c
  4495  006FAA  2437               	addwf	linspace@x,w,c
  4496  006FAC  6ED9               	movwf	fsr2l,c
  4497  006FAE  5002               	movf	?___wmul+1,w,c
  4498  006FB0  2038               	addwfc	linspace@x+1,w,c
  4499  006FB2  6EDA               	movwf	fsr2h,c
  4500  006FB4  C039  F010         	movff	linspace@start,___ftmul@f2
  4501  006FB8  C03A  F011         	movff	linspace@start+1,___ftmul@f2+1
  4502  006FBC  C03B  F012         	movff	linspace@start+2,___ftmul@f2+2
  4503  006FC0  0E01               	movlw	1
  4504  006FC2  2443               	addwf	linspace@i,w,c
  4505  006FC4  6E41               	movwf	??_linspace& (0+255),c
  4506  006FC6  0E00               	movlw	0
  4507  006FC8  2044               	addwfc	linspace@i+1,w,c
  4508  006FCA  6E42               	movwf	(??_linspace+1)& (0+255),c
  4509  006FCC  1E41               	comf	??_linspace,f,c
  4510  006FCE  1E42               	comf	??_linspace+1,f,c
  4511  006FD0  4A41               	infsnz	??_linspace,f,c
  4512  006FD2  2A42               	incf	??_linspace+1,f,c
  4513  006FD4  503F               	movf	linspace@size,w,c
  4514  006FD6  2441               	addwf	??_linspace,w,c
  4515  006FD8  6E09               	movwf	___awtoft@c,c
  4516  006FDA  5040               	movf	linspace@size+1,w,c
  4517  006FDC  2042               	addwfc	??_linspace+1,w,c
  4518  006FDE  6E0A               	movwf	___awtoft@c+1,c
  4519  006FE0  ECBB  F033         	call	___awtoft	;wreg free
  4520  006FE4  C009  F00D         	movff	?___awtoft,___ftmul@f1
  4521  006FE8  C00A  F00E         	movff	?___awtoft+1,___ftmul@f1+1
  4522  006FEC  C00B  F00F         	movff	?___awtoft+2,___ftmul@f1+2
  4523  006FF0  EC65  F036         	call	___ftmul	;wreg free
  4524  006FF4  C00D  F01F         	movff	?___ftmul,___ftadd@f2
  4525  006FF8  C00E  F020         	movff	?___ftmul+1,___ftadd@f2+1
  4526  006FFC  C00F  F021         	movff	?___ftmul+2,___ftadd@f2+2
  4527  007000  C03C  F010         	movff	linspace@end,___ftmul@f2
  4528  007004  C03D  F011         	movff	linspace@end+1,___ftmul@f2+1
  4529  007008  C03E  F012         	movff	linspace@end+2,___ftmul@f2+2
  4530  00700C  C043  F009         	movff	linspace@i,___awtoft@c
  4531  007010  C044  F00A         	movff	linspace@i+1,___awtoft@c+1
  4532  007014  ECBB  F033         	call	___awtoft	;wreg free
  4533  007018  C009  F00D         	movff	?___awtoft,___ftmul@f1
  4534  00701C  C00A  F00E         	movff	?___awtoft+1,___ftmul@f1+1
  4535  007020  C00B  F00F         	movff	?___awtoft+2,___ftmul@f1+2
  4536  007024  EC65  F036         	call	___ftmul	;wreg free
  4537  007028  C00D  F01C         	movff	?___ftmul,___ftadd@f1
  4538  00702C  C00E  F01D         	movff	?___ftmul+1,___ftadd@f1+1
  4539  007030  C00F  F01E         	movff	?___ftmul+2,___ftadd@f1+2
  4540  007034  EC88  F039         	call	___ftadd	;wreg free
  4541  007038  C01C  F028         	movff	?___ftadd,___ftdiv@f1
  4542  00703C  C01D  F029         	movff	?___ftadd+1,___ftdiv@f1+1
  4543  007040  C01E  F02A         	movff	?___ftadd+2,___ftdiv@f1+2
  4544  007044  0EFF               	movlw	255
  4545  007046  243F               	addwf	linspace@size,w,c
  4546  007048  6E09               	movwf	___awtoft@c,c
  4547  00704A  0EFF               	movlw	255
  4548  00704C  2040               	addwfc	linspace@size+1,w,c
  4549  00704E  6E0A               	movwf	___awtoft@c+1,c
  4550  007050  ECBB  F033         	call	___awtoft	;wreg free
  4551  007054  C009  F02B         	movff	?___awtoft,___ftdiv@f2
  4552  007058  C00A  F02C         	movff	?___awtoft+1,___ftdiv@f2+1
  4553  00705C  C00B  F02D         	movff	?___awtoft+2,___ftdiv@f2+2
  4554  007060  ECFA  F035         	call	___ftdiv	;wreg free
  4555  007064  C028  FFDE         	movff	?___ftdiv,postinc2
  4556  007068  C029  FFDE         	movff	?___ftdiv+1,postinc2
  4557  00706C  C02A  FFDD         	movff	?___ftdiv+2,postdec2
  4558  007070  52DD               	movf	postdec2,f,c
  4559  007072  4A43               	infsnz	linspace@i,f,c
  4560  007074  2A44               	incf	linspace@i+1,f,c
  4561  007076                     l2257:
  4562  007076  5044               	movf	linspace@i+1,w,c
  4563  007078  0A80               	xorlw	128
  4564  00707A  6E41               	movwf	??_linspace& (0+255),c
  4565  00707C  503F               	movf	linspace@size,w,c
  4566  00707E  5C43               	subwf	linspace@i,w,c
  4567  007080  5040               	movf	linspace@size+1,w,c
  4568  007082  0A80               	xorlw	128
  4569  007084  5841               	subwfb	??_linspace& (0+255),w,c
  4570  007086  B0D8               	btfsc	status,0,c
  4571                           
  4572                           ;fuzzy.c: 17: return;
  4573  007088  0012               	return	
  4574  00708A  D784               	goto	l2253
  4575  00708C                     __end_of_linspace:
  4576                           	opt stack 0
  4577                           tblptru	equ	0xFF8
  4578                           tblptrh	equ	0xFF7
  4579                           tblptrl	equ	0xFF6
  4580                           tablat	equ	0xFF5
  4581                           wreg	equ	0xFE8
  4582                           postinc1	equ	0xFE6
  4583                           postdec1	equ	0xFE5
  4584                           fsr1h	equ	0xFE2
  4585                           fsr1l	equ	0xFE1
  4586                           postinc2	equ	0xFDE
  4587                           postdec2	equ	0xFDD
  4588                           fsr2h	equ	0xFDA
  4589                           fsr2l	equ	0xFD9
  4590                           status	equ	0xFD8
  4591                           
  4592 ;; *************** function ___awtoft *****************
  4593 ;; Defined at:
  4594 ;;		line 32 in file "C:\Program Files\Microchip\xc8\v1.33\sources\common\awtoft.c"
  4595 ;; Parameters:    Size  Location     Type
  4596 ;;  c               2    8[COMRAM] int 
  4597 ;; Auto vars:     Size  Location     Type
  4598 ;;  sign            1   11[COMRAM] unsigned char 
  4599 ;; Return value:  Size  Location     Type
  4600 ;;                  3    8[COMRAM] float 
  4601 ;; Registers used:
  4602 ;;		wreg, status,2, status,0, prodl, cstack
  4603 ;; Tracked objects:
  4604 ;;		On entry : 0/0
  4605 ;;		On exit  : 0/0
  4606 ;;		Unchanged: 0/0
  4607 ;; Data sizes:     COMRAM   BANK0   BANK1   BANK2   BANK3   BANK4   BANK5   BANK6   BANK7
  4608 ;;      Params:         3       0       0       0       0       0       0       0       0
  4609 ;;      Locals:         1       0       0       0       0       0       0       0       0
  4610 ;;      Temps:          0       0       0       0       0       0       0       0       0
  4611 ;;      Totals:         4       0       0       0       0       0       0       0       0
  4612 ;;Total ram usage:        4 bytes
  4613 ;; Hardware stack levels used:    1
  4614 ;; Hardware stack levels required when called:    1
  4615 ;; This function calls:
  4616 ;;		___ftpack
  4617 ;; This function is called by:
  4618 ;;		_main
  4619 ;;		_linspace
  4620 ;; This function uses a non-reentrant model
  4621 ;;
  4622                           
  4623                           	psect	text25
  4624  006776                     __ptext25:
  4625                           	opt stack 0
  4626  006776                     ___awtoft:
  4627                           	opt stack 27
  4628                           
  4629                           ;incstack = 0
  4630  006776  0E00               	movlw	0
  4631  006778  6E0C               	movwf	___awtoft@sign,c
  4632  00677A  500A               	movf	___awtoft@c+1,w,c
  4633  00677C  0A80               	xorlw	128
  4634  00677E  6EF3               	movwf	prodl,c
  4635  006780  0E80               	movlw	128
  4636  006782  5CF3               	subwf	prodl,w,c
  4637  006784  0E00               	movlw	0
  4638  006786  B4D8               	btfsc	status,2,c
  4639  006788  5C09               	subwf	___awtoft@c,w,c
  4640  00678A  B0D8               	btfsc	status,0,c
  4641  00678C  D006               	goto	l2149
  4642  00678E  6C09               	negf	___awtoft@c,c
  4643  006790  1E0A               	comf	___awtoft@c+1,f,c
  4644  006792  B0D8               	btfsc	status,0,c
  4645  006794  2A0A               	incf	___awtoft@c+1,f,c
  4646  006796  0E01               	movlw	1
  4647  006798  6E0C               	movwf	___awtoft@sign,c
  4648  00679A                     l2149:
  4649  00679A  C009  F001         	movff	___awtoft@c,___ftpack@arg
  4650  00679E  C00A  F002         	movff	___awtoft@c+1,___ftpack@arg+1
  4651  0067A2  6A03               	clrf	___ftpack@arg+2,c
  4652  0067A4  0E8E               	movlw	142
  4653  0067A6  6E04               	movwf	___ftpack@exp,c
  4654  0067A8  C00C  F005         	movff	___awtoft@sign,___ftpack@sign
  4655  0067AC  ECE0  F034         	call	___ftpack	;wreg free
  4656  0067B0  C001  F009         	movff	?___ftpack,?___awtoft
  4657  0067B4  C002  F00A         	movff	?___ftpack+1,?___awtoft+1
  4658  0067B8  C003  F00B         	movff	?___ftpack+2,?___awtoft+2
  4659  0067BC  0012               	return	
  4660  0067BE                     __end_of___awtoft:
  4661                           	opt stack 0
  4662                           tblptru	equ	0xFF8
  4663                           tblptrh	equ	0xFF7
  4664                           tblptrl	equ	0xFF6
  4665                           tablat	equ	0xFF5
  4666                           prodl	equ	0xFF3
  4667                           wreg	equ	0xFE8
  4668                           postinc1	equ	0xFE6
  4669                           postdec1	equ	0xFE5
  4670                           fsr1h	equ	0xFE2
  4671                           fsr1l	equ	0xFE1
  4672                           postinc2	equ	0xFDE
  4673                           postdec2	equ	0xFDD
  4674                           fsr2h	equ	0xFDA
  4675                           fsr2l	equ	0xFD9
  4676                           status	equ	0xFD8
  4677                           
  4678 ;; *************** function _defuzzy *****************
  4679 ;; Defined at:
  4680 ;;		line 147 in file "fuzzy.c"
  4681 ;; Parameters:    Size  Location     Type
  4682 ;;  x               2   54[COMRAM] PTR 
  4683 ;;		 -> fuzzy_system_single1@y(120), fuzzy_system_single2@y(120), fuzzy_system_single@y(120), fuzzy_system@y(120), 
  4684 ;;  mf              2   56[COMRAM] PTR 
  4685 ;;		 -> fuzzy_system_single1@overall_out_mf(120), fuzzy_system_single2@overall_out_mf(120), fuzzy_system_single@overall_
      +out_mf(120), fuzzy_system@overall_out_mf(120), 
  4686 ;; Auto vars:     Size  Location     Type
  4687 ;;  sum2            3   64[COMRAM] PTR 
  4688 ;;  sum1            3   61[COMRAM] PTR 
  4689 ;;  out             3   58[COMRAM] PTR 
  4690 ;;  i               2   67[COMRAM] int 
  4691 ;; Return value:  Size  Location     Type
  4692 ;;                  3   54[COMRAM] int 
  4693 ;; Registers used:
  4694 ;;		wreg, fsr2l, fsr2h, status,2, status,0, prodl, prodh, cstack
  4695 ;; Tracked objects:
  4696 ;;		On entry : 0/0
  4697 ;;		On exit  : 0/0
  4698 ;;		Unchanged: 0/0
  4699 ;; Data sizes:     COMRAM   BANK0   BANK1   BANK2   BANK3   BANK4   BANK5   BANK6   BANK7
  4700 ;;      Params:         4       0       0       0       0       0       0       0       0
  4701 ;;      Locals:        11       0       0       0       0       0       0       0       0
  4702 ;;      Temps:          0       0       0       0       0       0       0       0       0
  4703 ;;      Totals:        15       0       0       0       0       0       0       0       0
  4704 ;;Total ram usage:       15 bytes
  4705 ;; Hardware stack levels used:    1
  4706 ;; Hardware stack levels required when called:    2
  4707 ;; This function calls:
  4708 ;;		___ftadd
  4709 ;;		___ftdiv
  4710 ;;		___ftmul
  4711 ;;		___wmul
  4712 ;; This function is called by:
  4713 ;;		_fuzzy_system_single2
  4714 ;;		_fuzzy_system_single1
  4715 ;;		_fuzzy_system
  4716 ;;		_fuzzy_system_single
  4717 ;; This function uses a non-reentrant model
  4718 ;;
  4719                           
  4720                           	psect	text26
  4721  0071AE                     __ptext26:
  4722                           	opt stack 0
  4723  0071AE                     _defuzzy:
  4724                           	opt stack 27
  4725                           
  4726                           ;fuzzy.c: 149: double sum1=0, sum2=0,out=0;
  4727                           
  4728                           ;incstack = 0
  4729  0071AE  0E00               	movlw	0
  4730  0071B0  6E3E               	movwf	defuzzy@sum1,c
  4731  0071B2  0E00               	movlw	0
  4732  0071B4  6E3F               	movwf	defuzzy@sum1+1,c
  4733  0071B6  0E00               	movlw	0
  4734  0071B8  6E40               	movwf	defuzzy@sum1+2,c
  4735  0071BA  0E00               	movlw	0
  4736  0071BC  6E41               	movwf	defuzzy@sum2,c
  4737  0071BE  0E00               	movlw	0
  4738  0071C0  6E42               	movwf	defuzzy@sum2+1,c
  4739  0071C2  0E00               	movlw	0
  4740  0071C4  6E43               	movwf	defuzzy@sum2+2,c
  4741  0071C6  0E00               	movlw	0
  4742  0071C8  6E3B               	movwf	defuzzy@out,c
  4743  0071CA  0E00               	movlw	0
  4744  0071CC  6E3C               	movwf	defuzzy@out+1,c
  4745  0071CE  0E00               	movlw	0
  4746  0071D0  6E3D               	movwf	defuzzy@out+2,c
  4747                           
  4748                           ;fuzzy.c: 150: int i;
  4749                           ;fuzzy.c: 151: for(i=0;i<40; i++)
  4750  0071D2  0E00               	movlw	0
  4751  0071D4  6E45               	movwf	defuzzy@i+1,c
  4752  0071D6  0E00               	movlw	0
  4753  0071D8  6E44               	movwf	defuzzy@i,c
  4754  0071DA  5045               	movf	defuzzy@i+1,w,c
  4755  0071DC  0A80               	xorlw	128
  4756  0071DE  0F80               	addlw	-128
  4757  0071E0  0E28               	movlw	40
  4758  0071E2  B4D8               	btfsc	status,2,c
  4759  0071E4  5C44               	subwf	defuzzy@i,w,c
  4760  0071E6  B0D8               	btfsc	status,0,c
  4761  0071E8  D045               	goto	l2365
  4762                           
  4763                           ;fuzzy.c: 152: sum1+=x[i]*mf[i];
  4764  0071EA  C03E  F01C         	movff	defuzzy@sum1,___ftadd@f1
  4765  0071EE  C03F  F01D         	movff	defuzzy@sum1+1,___ftadd@f1+1
  4766  0071F2  C040  F01E         	movff	defuzzy@sum1+2,___ftadd@f1+2
  4767  0071F6  C044  F001         	movff	defuzzy@i,___wmul@multiplier
  4768  0071FA  C045  F002         	movff	defuzzy@i+1,___wmul@multiplier+1
  4769  0071FE  0E00               	movlw	0
  4770  007200  6E04               	movwf	___wmul@multiplicand+1,c
  4771  007202  0E03               	movlw	3
  4772  007204  6E03               	movwf	___wmul@multiplicand,c
  4773  007206  EC29  F033         	call	___wmul	;wreg free
  4774  00720A  5001               	movf	?___wmul,w,c
  4775  00720C  2439               	addwf	defuzzy@mf,w,c
  4776  00720E  6ED9               	movwf	fsr2l,c
  4777  007210  5002               	movf	?___wmul+1,w,c
  4778  007212  203A               	addwfc	defuzzy@mf+1,w,c
  4779  007214  6EDA               	movwf	fsr2h,c
  4780  007216  CFDE F010          	movff	postinc2,___ftmul@f2
  4781  00721A  CFDE F011          	movff	postinc2,___ftmul@f2+1
  4782  00721E  CFDD F012          	movff	postdec2,___ftmul@f2+2
  4783  007222  C044  F001         	movff	defuzzy@i,___wmul@multiplier
  4784  007226  C045  F002         	movff	defuzzy@i+1,___wmul@multiplier+1
  4785  00722A  0E00               	movlw	0
  4786  00722C  6E04               	movwf	___wmul@multiplicand+1,c
  4787  00722E  0E03               	movlw	3
  4788  007230  6E03               	movwf	___wmul@multiplicand,c
  4789  007232  EC29  F033         	call	___wmul	;wreg free
  4790  007236  5001               	movf	?___wmul,w,c
  4791  007238  2437               	addwf	defuzzy@x,w,c
  4792  00723A  6ED9               	movwf	fsr2l,c
  4793  00723C  5002               	movf	?___wmul+1,w,c
  4794  00723E  2038               	addwfc	defuzzy@x+1,w,c
  4795  007240  6EDA               	movwf	fsr2h,c
  4796  007242  CFDE F00D          	movff	postinc2,___ftmul@f1
  4797  007246  CFDE F00E          	movff	postinc2,___ftmul@f1+1
  4798  00724A  CFDD F00F          	movff	postdec2,___ftmul@f1+2
  4799  00724E  EC65  F036         	call	___ftmul	;wreg free
  4800  007252  C00D  F01F         	movff	?___ftmul,___ftadd@f2
  4801  007256  C00E  F020         	movff	?___ftmul+1,___ftadd@f2+1
  4802  00725A  C00F  F021         	movff	?___ftmul+2,___ftadd@f2+2
  4803  00725E  EC88  F039         	call	___ftadd	;wreg free
  4804  007262  C01C  F03E         	movff	?___ftadd,defuzzy@sum1
  4805  007266  C01D  F03F         	movff	?___ftadd+1,defuzzy@sum1+1
  4806  00726A  C01E  F040         	movff	?___ftadd+2,defuzzy@sum1+2
  4807  00726E  4A44               	infsnz	defuzzy@i,f,c
  4808  007270  2A45               	incf	defuzzy@i+1,f,c
  4809  007272  D7B3               	goto	L12
  4810  007274                     l2365:
  4811                           
  4812                           ;fuzzy.c: 153: for(i=0;i<40; i++)
  4813  007274  0E00               	movlw	0
  4814  007276  6E45               	movwf	defuzzy@i+1,c
  4815  007278  0E00               	movlw	0
  4816  00727A  6E44               	movwf	defuzzy@i,c
  4817  00727C  5045               	movf	defuzzy@i+1,w,c
  4818  00727E  0A80               	xorlw	128
  4819  007280  0F80               	addlw	-128
  4820  007282  0E28               	movlw	40
  4821  007284  B4D8               	btfsc	status,2,c
  4822  007286  5C44               	subwf	defuzzy@i,w,c
  4823  007288  B0D8               	btfsc	status,0,c
  4824  00728A  D027               	goto	l2377
  4825                           
  4826                           ;fuzzy.c: 154: sum2+=mf[i];
  4827  00728C  C041  F01C         	movff	defuzzy@sum2,___ftadd@f1
  4828  007290  C042  F01D         	movff	defuzzy@sum2+1,___ftadd@f1+1
  4829  007294  C043  F01E         	movff	defuzzy@sum2+2,___ftadd@f1+2
  4830  007298  C044  F001         	movff	defuzzy@i,___wmul@multiplier
  4831  00729C  C045  F002         	movff	defuzzy@i+1,___wmul@multiplier+1
  4832  0072A0  0E00               	movlw	0
  4833  0072A2  6E04               	movwf	___wmul@multiplicand+1,c
  4834  0072A4  0E03               	movlw	3
  4835  0072A6  6E03               	movwf	___wmul@multiplicand,c
  4836  0072A8  EC29  F033         	call	___wmul	;wreg free
  4837  0072AC  5001               	movf	?___wmul,w,c
  4838  0072AE  2439               	addwf	defuzzy@mf,w,c
  4839  0072B0  6ED9               	movwf	fsr2l,c
  4840  0072B2  5002               	movf	?___wmul+1,w,c
  4841  0072B4  203A               	addwfc	defuzzy@mf+1,w,c
  4842  0072B6  6EDA               	movwf	fsr2h,c
  4843  0072B8  CFDE F01F          	movff	postinc2,___ftadd@f2
  4844  0072BC  CFDE F020          	movff	postinc2,___ftadd@f2+1
  4845  0072C0  CFDD F021          	movff	postdec2,___ftadd@f2+2
  4846  0072C4  EC88  F039         	call	___ftadd	;wreg free
  4847  0072C8  C01C  F041         	movff	?___ftadd,defuzzy@sum2
  4848  0072CC  C01D  F042         	movff	?___ftadd+1,defuzzy@sum2+1
  4849  0072D0  C01E  F043         	movff	?___ftadd+2,defuzzy@sum2+2
  4850  0072D4  4A44               	infsnz	defuzzy@i,f,c
  4851  0072D6  2A45               	incf	defuzzy@i+1,f,c
  4852  0072D8  D7D1               	goto	L13
  4853  0072DA                     l2377:
  4854                           
  4855                           ;fuzzy.c: 155: out=sum1/sum2;
  4856  0072DA  C03E  F028         	movff	defuzzy@sum1,___ftdiv@f1
  4857  0072DE  C03F  F029         	movff	defuzzy@sum1+1,___ftdiv@f1+1
  4858  0072E2  C040  F02A         	movff	defuzzy@sum1+2,___ftdiv@f1+2
  4859  0072E6  C041  F02B         	movff	defuzzy@sum2,___ftdiv@f2
  4860  0072EA  C042  F02C         	movff	defuzzy@sum2+1,___ftdiv@f2+1
  4861  0072EE  C043  F02D         	movff	defuzzy@sum2+2,___ftdiv@f2+2
  4862  0072F2  ECFA  F035         	call	___ftdiv	;wreg free
  4863  0072F6  C028  F03B         	movff	?___ftdiv,defuzzy@out
  4864  0072FA  C029  F03C         	movff	?___ftdiv+1,defuzzy@out+1
  4865  0072FE  C02A  F03D         	movff	?___ftdiv+2,defuzzy@out+2
  4866                           
  4867                           ;fuzzy.c: 156: return out;
  4868  007302  C03B  F037         	movff	defuzzy@out,?_defuzzy
  4869  007306  C03C  F038         	movff	defuzzy@out+1,?_defuzzy+1
  4870  00730A  C03D  F039         	movff	defuzzy@out+2,?_defuzzy+2
  4871  00730E  0012               	return	
  4872  007310                     __end_of_defuzzy:
  4873                           	opt stack 0
  4874                           tblptru	equ	0xFF8
  4875                           tblptrh	equ	0xFF7
  4876                           tblptrl	equ	0xFF6
  4877                           tablat	equ	0xFF5
  4878                           prodl	equ	0xFF3
  4879                           wreg	equ	0xFE8
  4880                           postinc1	equ	0xFE6
  4881                           postdec1	equ	0xFE5
  4882                           fsr1h	equ	0xFE2
  4883                           fsr1l	equ	0xFE1
  4884                           postinc2	equ	0xFDE
  4885                           postdec2	equ	0xFDD
  4886                           fsr2h	equ	0xFDA
  4887                           fsr2l	equ	0xFD9
  4888                           status	equ	0xFD8
  4889                           
  4890 ;; *************** function ___wmul *****************
  4891 ;; Defined at:
  4892 ;;		line 15 in file "C:\Program Files\Microchip\xc8\v1.33\sources\common\Umul16.c"
  4893 ;; Parameters:    Size  Location     Type
  4894 ;;  multiplier      2    0[COMRAM] unsigned int 
  4895 ;;  multiplicand    2    2[COMRAM] unsigned int 
  4896 ;; Auto vars:     Size  Location     Type
  4897 ;;  product         2    4[COMRAM] unsigned int 
  4898 ;; Return value:  Size  Location     Type
  4899 ;;                  2    0[COMRAM] unsigned int 
  4900 ;; Registers used:
  4901 ;;		wreg, status,2, status,0, prodl, prodh
  4902 ;; Tracked objects:
  4903 ;;		On entry : 0/0
  4904 ;;		On exit  : 0/0
  4905 ;;		Unchanged: 0/0
  4906 ;; Data sizes:     COMRAM   BANK0   BANK1   BANK2   BANK3   BANK4   BANK5   BANK6   BANK7
  4907 ;;      Params:         4       0       0       0       0       0       0       0       0
  4908 ;;      Locals:         2       0       0       0       0       0       0       0       0
  4909 ;;      Temps:          0       0       0       0       0       0       0       0       0
  4910 ;;      Totals:         6       0       0       0       0       0       0       0       0
  4911 ;;Total ram usage:        6 bytes
  4912 ;; Hardware stack levels used:    1
  4913 ;; This function calls:
  4914 ;;		Nothing
  4915 ;; This function is called by:
  4916 ;;		_linspace
  4917 ;;		_tri_mf
  4918 ;;		_qualified
  4919 ;;		_out_mf
  4920 ;;		_defuzzy
  4921 ;;		_minimo
  4922 ;;		_maximo
  4923 ;;		_trap_mf
  4924 ;;		_fuzzy_system
  4925 ;; This function uses a non-reentrant model
  4926 ;;
  4927                           
  4928                           	psect	text27
  4929  006652                     __ptext27:
  4930                           	opt stack 0
  4931  006652                     ___wmul:
  4932                           	opt stack 28
  4933                           
  4934                           ;incstack = 0
  4935  006652  5001               	movf	___wmul@multiplier,w,c
  4936  006654  0203               	mulwf	___wmul@multiplicand,c
  4937  006656  CFF3 F005          	movff	prodl,___wmul@product
  4938  00665A  CFF4 F006          	movff	prodh,___wmul@product+1
  4939  00665E  5001               	movf	___wmul@multiplier,w,c
  4940  006660  0204               	mulwf	___wmul@multiplicand+1,c
  4941  006662  50F3               	movf	prodl,w,c
  4942  006664  2606               	addwf	___wmul@product+1,f,c
  4943  006666  5002               	movf	___wmul@multiplier+1,w,c
  4944  006668  0203               	mulwf	___wmul@multiplicand,c
  4945  00666A  50F3               	movf	prodl,w,c
  4946  00666C  2606               	addwf	___wmul@product+1,f,c
  4947  00666E  C005  F001         	movff	___wmul@product,?___wmul
  4948  006672  C006  F002         	movff	___wmul@product+1,?___wmul+1
  4949  006676  0012               	return	
  4950  006678                     __end_of___wmul:
  4951                           	opt stack 0
  4952                           tblptru	equ	0xFF8
  4953                           tblptrh	equ	0xFF7
  4954                           tblptrl	equ	0xFF6
  4955                           tablat	equ	0xFF5
  4956                           prodh	equ	0xFF4
  4957                           prodl	equ	0xFF3
  4958                           wreg	equ	0xFE8
  4959                           postinc1	equ	0xFE6
  4960                           postdec1	equ	0xFE5
  4961                           fsr1h	equ	0xFE2
  4962                           fsr1l	equ	0xFE1
  4963                           postinc2	equ	0xFDE
  4964                           postdec2	equ	0xFDD
  4965                           fsr2h	equ	0xFDA
  4966                           fsr2l	equ	0xFD9
  4967                           status	equ	0xFD8
  4968                           
  4969 ;; *************** function ___ftmul *****************
  4970 ;; Defined at:
  4971 ;;		line 62 in file "C:\Program Files\Microchip\xc8\v1.33\sources\common\ftmul.c"
  4972 ;; Parameters:    Size  Location     Type
  4973 ;;  f1              3   12[COMRAM] float 
  4974 ;;  f2              3   15[COMRAM] float 
  4975 ;; Auto vars:     Size  Location     Type
  4976 ;;  f3_as_produc    3   22[COMRAM] unsigned um
  4977 ;;  sign            1   26[COMRAM] unsigned char 
  4978 ;;  cntr            1   25[COMRAM] unsigned char 
  4979 ;;  exp             1   21[COMRAM] unsigned char 
  4980 ;; Return value:  Size  Location     Type
  4981 ;;                  3   12[COMRAM] float 
  4982 ;; Registers used:
  4983 ;;		wreg, status,2, status,0, cstack
  4984 ;; Tracked objects:
  4985 ;;		On entry : 0/0
  4986 ;;		On exit  : 0/0
  4987 ;;		Unchanged: 0/0
  4988 ;; Data sizes:     COMRAM   BANK0   BANK1   BANK2   BANK3   BANK4   BANK5   BANK6   BANK7
  4989 ;;      Params:         6       0       0       0       0       0       0       0       0
  4990 ;;      Locals:         6       0       0       0       0       0       0       0       0
  4991 ;;      Temps:          3       0       0       0       0       0       0       0       0
  4992 ;;      Totals:        15       0       0       0       0       0       0       0       0
  4993 ;;Total ram usage:       15 bytes
  4994 ;; Hardware stack levels used:    1
  4995 ;; Hardware stack levels required when called:    1
  4996 ;; This function calls:
  4997 ;;		___ftpack
  4998 ;; This function is called by:
  4999 ;;		_linspace
  5000 ;;		_defuzzy
  5001 ;;		_PWM_DutyCycle1
  5002 ;;		_PWM_DutyCycle2
  5003 ;; This function uses a non-reentrant model
  5004 ;;
  5005                           
  5006                           	psect	text28
  5007  006CCA                     __ptext28:
  5008                           	opt stack 0
  5009  006CCA                     ___ftmul:
  5010                           	opt stack 27
  5011                           
  5012                           ;incstack = 0
  5013  006CCA  C00F  F013         	movff	___ftmul@f1+2,??___ftmul
  5014  006CCE  6A14               	clrf	(??___ftmul+1)& (0+255),c
  5015  006CD0  6A15               	clrf	(??___ftmul+2)& (0+255),c
  5016  006CD2  340E               	rlcf	___ftmul@f1+1,w,c
  5017  006CD4  3613               	rlcf	??___ftmul& (0+255),f,c
  5018  006CD6  E301               	bnc	u1981
  5019  006CD8  8014               	bsf	(??___ftmul+1)& (0+255),0,c
  5020  006CDA                     u1981:
  5021  006CDA  5013               	movf	??___ftmul,w,c
  5022  006CDC  6E16               	movwf	___ftmul@exp,c
  5023  006CDE  6616               	tstfsz	___ftmul@exp& (0+255),c
  5024  006CE0  D001               	goto	l2099
  5025  006CE2  D00C               	goto	u2010
  5026  006CE4                     l2099:
  5027  006CE4  C012  F013         	movff	___ftmul@f2+2,??___ftmul
  5028  006CE8  6A14               	clrf	(??___ftmul+1)& (0+255),c
  5029  006CEA  6A15               	clrf	(??___ftmul+2)& (0+255),c
  5030  006CEC  3411               	rlcf	___ftmul@f2+1,w,c
  5031  006CEE  3613               	rlcf	??___ftmul& (0+255),f,c
  5032  006CF0  E301               	bnc	u2001
  5033  006CF2  8014               	bsf	(??___ftmul+1)& (0+255),0,c
  5034  006CF4                     u2001:
  5035  006CF4  5013               	movf	??___ftmul,w,c
  5036  006CF6  6E1B               	movwf	___ftmul@sign,c
  5037  006CF8  661B               	tstfsz	___ftmul@sign& (0+255),c
  5038  006CFA  D007               	goto	l2105
  5039  006CFC                     u2010:
  5040  006CFC  0E00               	movlw	0
  5041  006CFE  6E0D               	movwf	?___ftmul,c
  5042  006D00  0E00               	movlw	0
  5043  006D02  6E0E               	movwf	?___ftmul+1,c
  5044  006D04  0E00               	movlw	0
  5045  006D06  6E0F               	movwf	?___ftmul+2,c
  5046  006D08  D051               	goto	l698
  5047  006D0A                     l2105:
  5048  006D0A  501B               	movf	___ftmul@sign,w,c
  5049  006D0C  0F7B               	addlw	123
  5050  006D0E  2616               	addwf	___ftmul@exp,f,c
  5051  006D10  C00F  F01B         	movff	___ftmul@f1+2,___ftmul@sign
  5052  006D14  5012               	movf	___ftmul@f2+2,w,c
  5053  006D16  1A1B               	xorwf	___ftmul@sign,f,c
  5054  006D18  0E80               	movlw	128
  5055  006D1A  161B               	andwf	___ftmul@sign,f,c
  5056  006D1C  8E0E               	bsf	___ftmul@f1+1,7,c
  5057  006D1E  8E11               	bsf	___ftmul@f2+1,7,c
  5058  006D20  0EFF               	movlw	255
  5059  006D22  1610               	andwf	___ftmul@f2,f,c
  5060  006D24  0EFF               	movlw	255
  5061  006D26  1611               	andwf	___ftmul@f2+1,f,c
  5062  006D28  0E00               	movlw	0
  5063  006D2A  1612               	andwf	___ftmul@f2+2,f,c
  5064  006D2C  0E00               	movlw	0
  5065  006D2E  6E17               	movwf	___ftmul@f3_as_product,c
  5066  006D30  0E00               	movlw	0
  5067  006D32  6E18               	movwf	___ftmul@f3_as_product+1,c
  5068  006D34  0E00               	movlw	0
  5069  006D36  6E19               	movwf	___ftmul@f3_as_product+2,c
  5070  006D38  0E07               	movlw	7
  5071  006D3A  6E1A               	movwf	___ftmul@cntr,c
  5072  006D3C                     l2119:
  5073  006D3C  A00D               	btfss	___ftmul@f1,0,c
  5074  006D3E  D006               	goto	l2123
  5075  006D40  5010               	movf	___ftmul@f2,w,c
  5076  006D42  2617               	addwf	___ftmul@f3_as_product,f,c
  5077  006D44  5011               	movf	___ftmul@f2+1,w,c
  5078  006D46  2218               	addwfc	___ftmul@f3_as_product+1,f,c
  5079  006D48  5012               	movf	___ftmul@f2+2,w,c
  5080  006D4A  2219               	addwfc	___ftmul@f3_as_product+2,f,c
  5081  006D4C                     l2123:
  5082  006D4C  90D8               	bcf	status,0,c
  5083  006D4E  320F               	rrcf	___ftmul@f1+2,f,c
  5084  006D50  320E               	rrcf	___ftmul@f1+1,f,c
  5085  006D52  320D               	rrcf	___ftmul@f1,f,c
  5086  006D54  90D8               	bcf	status,0,c
  5087  006D56  3610               	rlcf	___ftmul@f2,f,c
  5088  006D58  3611               	rlcf	___ftmul@f2+1,f,c
  5089  006D5A  3612               	rlcf	___ftmul@f2+2,f,c
  5090  006D5C  2E1A               	decfsz	___ftmul@cntr,f,c
  5091  006D5E  D7EE               	goto	l2119
  5092  006D60  0E09               	movlw	9
  5093  006D62  6E1A               	movwf	___ftmul@cntr,c
  5094  006D64                     l2129:
  5095  006D64  A00D               	btfss	___ftmul@f1,0,c
  5096  006D66  D006               	goto	l2133
  5097  006D68  5010               	movf	___ftmul@f2,w,c
  5098  006D6A  2617               	addwf	___ftmul@f3_as_product,f,c
  5099  006D6C  5011               	movf	___ftmul@f2+1,w,c
  5100  006D6E  2218               	addwfc	___ftmul@f3_as_product+1,f,c
  5101  006D70  5012               	movf	___ftmul@f2+2,w,c
  5102  006D72  2219               	addwfc	___ftmul@f3_as_product+2,f,c
  5103  006D74                     l2133:
  5104  006D74  90D8               	bcf	status,0,c
  5105  006D76  320F               	rrcf	___ftmul@f1+2,f,c
  5106  006D78  320E               	rrcf	___ftmul@f1+1,f,c
  5107  006D7A  320D               	rrcf	___ftmul@f1,f,c
  5108  006D7C  90D8               	bcf	status,0,c
  5109  006D7E  3219               	rrcf	___ftmul@f3_as_product+2,f,c
  5110  006D80  3218               	rrcf	___ftmul@f3_as_product+1,f,c
  5111  006D82  3217               	rrcf	___ftmul@f3_as_product,f,c
  5112  006D84  2E1A               	decfsz	___ftmul@cntr,f,c
  5113  006D86  D7EE               	goto	l2129
  5114  006D88  C017  F001         	movff	___ftmul@f3_as_product,___ftpack@arg
  5115  006D8C  C018  F002         	movff	___ftmul@f3_as_product+1,___ftpack@arg+1
  5116  006D90  C019  F003         	movff	___ftmul@f3_as_product+2,___ftpack@arg+2
  5117  006D94  C016  F004         	movff	___ftmul@exp,___ftpack@exp
  5118  006D98  C01B  F005         	movff	___ftmul@sign,___ftpack@sign
  5119  006D9C  ECE0  F034         	call	___ftpack	;wreg free
  5120  006DA0  C001  F00D         	movff	?___ftpack,?___ftmul
  5121  006DA4  C002  F00E         	movff	?___ftpack+1,?___ftmul+1
  5122  006DA8  C003  F00F         	movff	?___ftpack+2,?___ftmul+2
  5123  006DAC                     l698:
  5124  006DAC  0012               	return	
  5125  006DAE                     __end_of___ftmul:
  5126                           	opt stack 0
  5127                           tblptru	equ	0xFF8
  5128                           tblptrh	equ	0xFF7
  5129                           tblptrl	equ	0xFF6
  5130                           tablat	equ	0xFF5
  5131                           prodh	equ	0xFF4
  5132                           prodl	equ	0xFF3
  5133                           wreg	equ	0xFE8
  5134                           postinc1	equ	0xFE6
  5135                           postdec1	equ	0xFE5
  5136                           fsr1h	equ	0xFE2
  5137                           fsr1l	equ	0xFE1
  5138                           postinc2	equ	0xFDE
  5139                           postdec2	equ	0xFDD
  5140                           fsr2h	equ	0xFDA
  5141                           fsr2l	equ	0xFD9
  5142                           status	equ	0xFD8
  5143                           
  5144 ;; *************** function ___ftdiv *****************
  5145 ;; Defined at:
  5146 ;;		line 49 in file "C:\Program Files\Microchip\xc8\v1.33\sources\common\ftdiv.c"
  5147 ;; Parameters:    Size  Location     Type
  5148 ;;  f1              3   39[COMRAM] float 
  5149 ;;  f2              3   42[COMRAM] float 
  5150 ;; Auto vars:     Size  Location     Type
  5151 ;;  f3              3   49[COMRAM] float 
  5152 ;;  sign            1   53[COMRAM] unsigned char 
  5153 ;;  exp             1   52[COMRAM] unsigned char 
  5154 ;;  cntr            1   48[COMRAM] unsigned char 
  5155 ;; Return value:  Size  Location     Type
  5156 ;;                  3   39[COMRAM] float 
  5157 ;; Registers used:
  5158 ;;		wreg, status,2, status,0, cstack
  5159 ;; Tracked objects:
  5160 ;;		On entry : 0/0
  5161 ;;		On exit  : 0/0
  5162 ;;		Unchanged: 0/0
  5163 ;; Data sizes:     COMRAM   BANK0   BANK1   BANK2   BANK3   BANK4   BANK5   BANK6   BANK7
  5164 ;;      Params:         6       0       0       0       0       0       0       0       0
  5165 ;;      Locals:         6       0       0       0       0       0       0       0       0
  5166 ;;      Temps:          3       0       0       0       0       0       0       0       0
  5167 ;;      Totals:        15       0       0       0       0       0       0       0       0
  5168 ;;Total ram usage:       15 bytes
  5169 ;; Hardware stack levels used:    1
  5170 ;; Hardware stack levels required when called:    1
  5171 ;; This function calls:
  5172 ;;		___ftpack
  5173 ;; This function is called by:
  5174 ;;		_linspace
  5175 ;;		_triangular
  5176 ;;		_defuzzy
  5177 ;;		_trapezoidal
  5178 ;; This function uses a non-reentrant model
  5179 ;;
  5180                           
  5181                           	psect	text29
  5182  006BF4                     __ptext29:
  5183                           	opt stack 0
  5184  006BF4                     ___ftdiv:
  5185                           	opt stack 27
  5186                           
  5187                           ;incstack = 0
  5188  006BF4  C02A  F02E         	movff	___ftdiv@f1+2,??___ftdiv
  5189  006BF8  6A2F               	clrf	(??___ftdiv+1)& (0+255),c
  5190  006BFA  6A30               	clrf	(??___ftdiv+2)& (0+255),c
  5191  006BFC  3429               	rlcf	___ftdiv@f1+1,w,c
  5192  006BFE  362E               	rlcf	??___ftdiv& (0+255),f,c
  5193  006C00  E301               	bnc	u1791
  5194  006C02  802F               	bsf	(??___ftdiv+1)& (0+255),0,c
  5195  006C04                     u1791:
  5196  006C04  502E               	movf	??___ftdiv,w,c
  5197  006C06  6E35               	movwf	___ftdiv@exp,c
  5198  006C08  6635               	tstfsz	___ftdiv@exp& (0+255),c
  5199  006C0A  D001               	goto	l1971
  5200  006C0C  D00C               	goto	u1820
  5201  006C0E                     l1971:
  5202  006C0E  C02D  F02E         	movff	___ftdiv@f2+2,??___ftdiv
  5203  006C12  6A2F               	clrf	(??___ftdiv+1)& (0+255),c
  5204  006C14  6A30               	clrf	(??___ftdiv+2)& (0+255),c
  5205  006C16  342C               	rlcf	___ftdiv@f2+1,w,c
  5206  006C18  362E               	rlcf	??___ftdiv& (0+255),f,c
  5207  006C1A  E301               	bnc	u1811
  5208  006C1C  802F               	bsf	(??___ftdiv+1)& (0+255),0,c
  5209  006C1E                     u1811:
  5210  006C1E  502E               	movf	??___ftdiv,w,c
  5211  006C20  6E36               	movwf	___ftdiv@sign,c
  5212  006C22  6636               	tstfsz	___ftdiv@sign& (0+255),c
  5213  006C24  D007               	goto	l1977
  5214  006C26                     u1820:
  5215  006C26  0E00               	movlw	0
  5216  006C28  6E28               	movwf	?___ftdiv,c
  5217  006C2A  0E00               	movlw	0
  5218  006C2C  6E29               	movwf	?___ftdiv+1,c
  5219  006C2E  0E00               	movlw	0
  5220  006C30  6E2A               	movwf	?___ftdiv+2,c
  5221  006C32  D04A               	goto	l683
  5222  006C34                     l1977:
  5223  006C34  0E00               	movlw	0
  5224  006C36  6E32               	movwf	___ftdiv@f3,c
  5225  006C38  0E00               	movlw	0
  5226  006C3A  6E33               	movwf	___ftdiv@f3+1,c
  5227  006C3C  0E00               	movlw	0
  5228  006C3E  6E34               	movwf	___ftdiv@f3+2,c
  5229  006C40  5036               	movf	___ftdiv@sign,w,c
  5230  006C42  0F89               	addlw	137
  5231  006C44  5E35               	subwf	___ftdiv@exp,f,c
  5232  006C46  C02A  F036         	movff	___ftdiv@f1+2,___ftdiv@sign
  5233  006C4A  502D               	movf	___ftdiv@f2+2,w,c
  5234  006C4C  1A36               	xorwf	___ftdiv@sign,f,c
  5235  006C4E  0E80               	movlw	128
  5236  006C50  1636               	andwf	___ftdiv@sign,f,c
  5237  006C52  8E29               	bsf	___ftdiv@f1+1,7,c
  5238  006C54  0EFF               	movlw	255
  5239  006C56  1628               	andwf	___ftdiv@f1,f,c
  5240  006C58  0EFF               	movlw	255
  5241  006C5A  1629               	andwf	___ftdiv@f1+1,f,c
  5242  006C5C  0E00               	movlw	0
  5243  006C5E  162A               	andwf	___ftdiv@f1+2,f,c
  5244  006C60  8E2C               	bsf	___ftdiv@f2+1,7,c
  5245  006C62  0EFF               	movlw	255
  5246  006C64  162B               	andwf	___ftdiv@f2,f,c
  5247  006C66  0EFF               	movlw	255
  5248  006C68  162C               	andwf	___ftdiv@f2+1,f,c
  5249  006C6A  0E00               	movlw	0
  5250  006C6C  162D               	andwf	___ftdiv@f2+2,f,c
  5251  006C6E  0E18               	movlw	24
  5252  006C70  6E31               	movwf	___ftdiv@cntr,c
  5253  006C72                     l1997:
  5254  006C72  90D8               	bcf	status,0,c
  5255  006C74  3632               	rlcf	___ftdiv@f3,f,c
  5256  006C76  3633               	rlcf	___ftdiv@f3+1,f,c
  5257  006C78  3634               	rlcf	___ftdiv@f3+2,f,c
  5258  006C7A  502B               	movf	___ftdiv@f2,w,c
  5259  006C7C  5C28               	subwf	___ftdiv@f1,w,c
  5260  006C7E  502C               	movf	___ftdiv@f2+1,w,c
  5261  006C80  5829               	subwfb	___ftdiv@f1+1,w,c
  5262  006C82  502D               	movf	___ftdiv@f2+2,w,c
  5263  006C84  582A               	subwfb	___ftdiv@f1+2,w,c
  5264  006C86  A0D8               	btfss	status,0,c
  5265  006C88  D007               	goto	l686
  5266  006C8A  502B               	movf	___ftdiv@f2,w,c
  5267  006C8C  5E28               	subwf	___ftdiv@f1,f,c
  5268  006C8E  502C               	movf	___ftdiv@f2+1,w,c
  5269  006C90  5A29               	subwfb	___ftdiv@f1+1,f,c
  5270  006C92  502D               	movf	___ftdiv@f2+2,w,c
  5271  006C94  5A2A               	subwfb	___ftdiv@f1+2,f,c
  5272  006C96  8032               	bsf	___ftdiv@f3,0,c
  5273  006C98                     l686:
  5274  006C98  90D8               	bcf	status,0,c
  5275  006C9A  3628               	rlcf	___ftdiv@f1,f,c
  5276  006C9C  3629               	rlcf	___ftdiv@f1+1,f,c
  5277  006C9E  362A               	rlcf	___ftdiv@f1+2,f,c
  5278  006CA0  2E31               	decfsz	___ftdiv@cntr,f,c
  5279  006CA2  D7E7               	goto	l1997
  5280  006CA4  C032  F001         	movff	___ftdiv@f3,___ftpack@arg
  5281  006CA8  C033  F002         	movff	___ftdiv@f3+1,___ftpack@arg+1
  5282  006CAC  C034  F003         	movff	___ftdiv@f3+2,___ftpack@arg+2
  5283  006CB0  C035  F004         	movff	___ftdiv@exp,___ftpack@exp
  5284  006CB4  C036  F005         	movff	___ftdiv@sign,___ftpack@sign
  5285  006CB8  ECE0  F034         	call	___ftpack	;wreg free
  5286  006CBC  C001  F028         	movff	?___ftpack,?___ftdiv
  5287  006CC0  C002  F029         	movff	?___ftpack+1,?___ftdiv+1
  5288  006CC4  C003  F02A         	movff	?___ftpack+2,?___ftdiv+2
  5289  006CC8                     l683:
  5290  006CC8  0012               	return	
  5291  006CCA                     __end_of___ftdiv:
  5292                           	opt stack 0
  5293                           tblptru	equ	0xFF8
  5294                           tblptrh	equ	0xFF7
  5295                           tblptrl	equ	0xFF6
  5296                           tablat	equ	0xFF5
  5297                           prodh	equ	0xFF4
  5298                           prodl	equ	0xFF3
  5299                           wreg	equ	0xFE8
  5300                           postinc1	equ	0xFE6
  5301                           postdec1	equ	0xFE5
  5302                           fsr1h	equ	0xFE2
  5303                           fsr1l	equ	0xFE1
  5304                           postinc2	equ	0xFDE
  5305                           postdec2	equ	0xFDD
  5306                           fsr2h	equ	0xFDA
  5307                           fsr2l	equ	0xFD9
  5308                           status	equ	0xFD8
  5309                           
  5310 ;; *************** function ___ftadd *****************
  5311 ;; Defined at:
  5312 ;;		line 86 in file "C:\Program Files\Microchip\xc8\v1.33\sources\common\ftadd.c"
  5313 ;; Parameters:    Size  Location     Type
  5314 ;;  f1              3   27[COMRAM] float 
  5315 ;;  f2              3   30[COMRAM] float 
  5316 ;; Auto vars:     Size  Location     Type
  5317 ;;  exp1            1   38[COMRAM] unsigned char 
  5318 ;;  exp2            1   37[COMRAM] unsigned char 
  5319 ;;  sign            1   36[COMRAM] unsigned char 
  5320 ;; Return value:  Size  Location     Type
  5321 ;;                  3   27[COMRAM] float 
  5322 ;; Registers used:
  5323 ;;		wreg, status,2, status,0, cstack
  5324 ;; Tracked objects:
  5325 ;;		On entry : 0/0
  5326 ;;		On exit  : 0/0
  5327 ;;		Unchanged: 0/0
  5328 ;; Data sizes:     COMRAM   BANK0   BANK1   BANK2   BANK3   BANK4   BANK5   BANK6   BANK7
  5329 ;;      Params:         6       0       0       0       0       0       0       0       0
  5330 ;;      Locals:         3       0       0       0       0       0       0       0       0
  5331 ;;      Temps:          3       0       0       0       0       0       0       0       0
  5332 ;;      Totals:        12       0       0       0       0       0       0       0       0
  5333 ;;Total ram usage:       12 bytes
  5334 ;; Hardware stack levels used:    1
  5335 ;; Hardware stack levels required when called:    1
  5336 ;; This function calls:
  5337 ;;		___ftpack
  5338 ;; This function is called by:
  5339 ;;		_linspace
  5340 ;;		_triangular
  5341 ;;		_defuzzy
  5342 ;;		_trapezoidal
  5343 ;; This function uses a non-reentrant model
  5344 ;;
  5345                           
  5346                           	psect	text30
  5347  007310                     __ptext30:
  5348                           	opt stack 0
  5349  007310                     ___ftadd:
  5350                           	opt stack 27
  5351                           
  5352                           ;incstack = 0
  5353  007310  C01E  F022         	movff	___ftadd@f1+2,??___ftadd
  5354  007314  6A23               	clrf	(??___ftadd+1)& (0+255),c
  5355  007316  6A24               	clrf	(??___ftadd+2)& (0+255),c
  5356  007318  341D               	rlcf	___ftadd@f1+1,w,c
  5357  00731A  3622               	rlcf	??___ftadd& (0+255),f,c
  5358  00731C  E301               	bnc	u1581
  5359  00731E  8023               	bsf	(??___ftadd+1)& (0+255),0,c
  5360  007320                     u1581:
  5361  007320  5022               	movf	??___ftadd,w,c
  5362  007322  6E27               	movwf	___ftadd@exp1,c
  5363  007324  C021  F022         	movff	___ftadd@f2+2,??___ftadd
  5364  007328  6A23               	clrf	(??___ftadd+1)& (0+255),c
  5365  00732A  6A24               	clrf	(??___ftadd+2)& (0+255),c
  5366  00732C  3420               	rlcf	___ftadd@f2+1,w,c
  5367  00732E  3622               	rlcf	??___ftadd& (0+255),f,c
  5368  007330  E301               	bnc	u1591
  5369  007332  8023               	bsf	(??___ftadd+1)& (0+255),0,c
  5370  007334                     u1591:
  5371  007334  5022               	movf	??___ftadd,w,c
  5372  007336  6E26               	movwf	___ftadd@exp2,c
  5373  007338  5027               	movf	___ftadd@exp1,w,c
  5374  00733A  B4D8               	btfsc	status,2,c
  5375  00733C  D00C               	goto	l651
  5376  00733E  5026               	movf	___ftadd@exp2,w,c
  5377  007340  5C27               	subwf	___ftadd@exp1,w,c
  5378  007342  B0D8               	btfsc	status,0,c
  5379  007344  D00F               	goto	l1903
  5380  007346  5027               	movf	___ftadd@exp1,w,c
  5381  007348  0800               	sublw	0
  5382  00734A  2426               	addwf	___ftadd@exp2,w,c
  5383  00734C  6E22               	movwf	??___ftadd& (0+255),c
  5384  00734E  0E19               	movlw	25
  5385  007350  5C22               	subwf	??___ftadd,w,c
  5386  007352  A0D8               	btfss	status,0,c
  5387  007354  D007               	goto	l1903
  5388  007356                     l651:
  5389  007356  C01F  F01C         	movff	___ftadd@f2,?___ftadd
  5390  00735A  C020  F01D         	movff	___ftadd@f2+1,?___ftadd+1
  5391  00735E  C021  F01E         	movff	___ftadd@f2+2,?___ftadd+2
  5392  007362  D0AB               	goto	l652
  5393  007364                     l1903:
  5394  007364  5026               	movf	___ftadd@exp2,w,c
  5395  007366  B4D8               	btfsc	status,2,c
  5396  007368  D00C               	goto	l655
  5397  00736A  5027               	movf	___ftadd@exp1,w,c
  5398  00736C  5C26               	subwf	___ftadd@exp2,w,c
  5399  00736E  B0D8               	btfsc	status,0,c
  5400  007370  D00F               	goto	l1909
  5401  007372  5026               	movf	___ftadd@exp2,w,c
  5402  007374  0800               	sublw	0
  5403  007376  2427               	addwf	___ftadd@exp1,w,c
  5404  007378  6E22               	movwf	??___ftadd& (0+255),c
  5405  00737A  0E19               	movlw	25
  5406  00737C  5C22               	subwf	??___ftadd,w,c
  5407  00737E  A0D8               	btfss	status,0,c
  5408  007380  D007               	goto	l1909
  5409  007382                     l655:
  5410  007382  C01C  F01C         	movff	___ftadd@f1,?___ftadd
  5411  007386  C01D  F01D         	movff	___ftadd@f1+1,?___ftadd+1
  5412  00738A  C01E  F01E         	movff	___ftadd@f1+2,?___ftadd+2
  5413  00738E  D095               	goto	l652
  5414  007390                     l1909:
  5415  007390  0E06               	movlw	6
  5416  007392  6E25               	movwf	___ftadd@sign,c
  5417  007394  BE1E               	btfsc	___ftadd@f1+2,7,c
  5418  007396  8E25               	bsf	___ftadd@sign,7,c
  5419  007398  BE21               	btfsc	___ftadd@f2+2,7,c
  5420  00739A  8C25               	bsf	___ftadd@sign,6,c
  5421  00739C  8E1D               	bsf	___ftadd@f1+1,7,c
  5422  00739E  0EFF               	movlw	255
  5423  0073A0  161C               	andwf	___ftadd@f1,f,c
  5424  0073A2  0EFF               	movlw	255
  5425  0073A4  161D               	andwf	___ftadd@f1+1,f,c
  5426  0073A6  0E00               	movlw	0
  5427  0073A8  161E               	andwf	___ftadd@f1+2,f,c
  5428  0073AA  8E20               	bsf	___ftadd@f2+1,7,c
  5429  0073AC  0EFF               	movlw	255
  5430  0073AE  161F               	andwf	___ftadd@f2,f,c
  5431  0073B0  0EFF               	movlw	255
  5432  0073B2  1620               	andwf	___ftadd@f2+1,f,c
  5433  0073B4  0E00               	movlw	0
  5434  0073B6  1621               	andwf	___ftadd@f2+2,f,c
  5435  0073B8  5026               	movf	___ftadd@exp2,w,c
  5436  0073BA  5C27               	subwf	___ftadd@exp1,w,c
  5437  0073BC  B0D8               	btfsc	status,0,c
  5438  0073BE  D01A               	goto	l1935
  5439  0073C0                     l1925:
  5440  0073C0  90D8               	bcf	status,0,c
  5441  0073C2  361F               	rlcf	___ftadd@f2,f,c
  5442  0073C4  3620               	rlcf	___ftadd@f2+1,f,c
  5443  0073C6  3621               	rlcf	___ftadd@f2+2,f,c
  5444  0073C8  0626               	decf	___ftadd@exp2,f,c
  5445  0073CA  5026               	movf	___ftadd@exp2,w,c
  5446  0073CC  1827               	xorwf	___ftadd@exp1,w,c
  5447  0073CE  B4D8               	btfsc	status,2,c
  5448  0073D0  D00D               	goto	l1933
  5449  0073D2  0625               	decf	___ftadd@sign,f,c
  5450  0073D4  C025  F022         	movff	___ftadd@sign,??___ftadd
  5451  0073D8  0E07               	movlw	7
  5452  0073DA  1622               	andwf	??___ftadd,f,c
  5453  0073DC  B4D8               	btfsc	status,2,c
  5454  0073DE  D006               	goto	l1933
  5455  0073E0  D7EF               	goto	l1925
  5456  0073E2                     l1931:
  5457  0073E2  90D8               	bcf	status,0,c
  5458  0073E4  321E               	rrcf	___ftadd@f1+2,f,c
  5459  0073E6  321D               	rrcf	___ftadd@f1+1,f,c
  5460  0073E8  321C               	rrcf	___ftadd@f1,f,c
  5461  0073EA  2A27               	incf	___ftadd@exp1,f,c
  5462  0073EC                     l1933:
  5463  0073EC  5026               	movf	___ftadd@exp2,w,c
  5464  0073EE  6227               	cpfseq	___ftadd@exp1,c
  5465  0073F0  D7F8               	goto	l1931
  5466  0073F2  D01D               	goto	l666
  5467  0073F4                     l1935:
  5468  0073F4  5027               	movf	___ftadd@exp1,w,c
  5469  0073F6  5C26               	subwf	___ftadd@exp2,w,c
  5470  0073F8  B0D8               	btfsc	status,0,c
  5471  0073FA  D019               	goto	l666
  5472  0073FC                     l1937:
  5473  0073FC  90D8               	bcf	status,0,c
  5474  0073FE  361C               	rlcf	___ftadd@f1,f,c
  5475  007400  361D               	rlcf	___ftadd@f1+1,f,c
  5476  007402  361E               	rlcf	___ftadd@f1+2,f,c
  5477  007404  0627               	decf	___ftadd@exp1,f,c
  5478  007406  5026               	movf	___ftadd@exp2,w,c
  5479  007408  1827               	xorwf	___ftadd@exp1,w,c
  5480  00740A  B4D8               	btfsc	status,2,c
  5481  00740C  D00D               	goto	l1945
  5482  00740E  0625               	decf	___ftadd@sign,f,c
  5483  007410  C025  F022         	movff	___ftadd@sign,??___ftadd
  5484  007414  0E07               	movlw	7
  5485  007416  1622               	andwf	??___ftadd,f,c
  5486  007418  B4D8               	btfsc	status,2,c
  5487  00741A  D006               	goto	l1945
  5488  00741C  D7EF               	goto	l1937
  5489  00741E                     l1943:
  5490  00741E  90D8               	bcf	status,0,c
  5491  007420  3221               	rrcf	___ftadd@f2+2,f,c
  5492  007422  3220               	rrcf	___ftadd@f2+1,f,c
  5493  007424  321F               	rrcf	___ftadd@f2,f,c
  5494  007426  2A26               	incf	___ftadd@exp2,f,c
  5495  007428                     l1945:
  5496  007428  5026               	movf	___ftadd@exp2,w,c
  5497  00742A  6227               	cpfseq	___ftadd@exp1,c
  5498  00742C  D7F8               	goto	l1943
  5499  00742E                     l666:
  5500  00742E  AE25               	btfss	___ftadd@sign,7,c
  5501  007430  D00C               	goto	l675
  5502  007432  0EFF               	movlw	255
  5503  007434  1A1C               	xorwf	___ftadd@f1,f,c
  5504  007436  0EFF               	movlw	255
  5505  007438  1A1D               	xorwf	___ftadd@f1+1,f,c
  5506  00743A  0EFF               	movlw	255
  5507  00743C  1A1E               	xorwf	___ftadd@f1+2,f,c
  5508  00743E  0E01               	movlw	1
  5509  007440  261C               	addwf	___ftadd@f1,f,c
  5510  007442  0E00               	movlw	0
  5511  007444  221D               	addwfc	___ftadd@f1+1,f,c
  5512  007446  0E00               	movlw	0
  5513  007448  221E               	addwfc	___ftadd@f1+2,f,c
  5514  00744A                     l675:
  5515  00744A  AC25               	btfss	___ftadd@sign,6,c
  5516  00744C  D00C               	goto	l1951
  5517  00744E  0EFF               	movlw	255
  5518  007450  1A1F               	xorwf	___ftadd@f2,f,c
  5519  007452  0EFF               	movlw	255
  5520  007454  1A20               	xorwf	___ftadd@f2+1,f,c
  5521  007456  0EFF               	movlw	255
  5522  007458  1A21               	xorwf	___ftadd@f2+2,f,c
  5523  00745A  0E01               	movlw	1
  5524  00745C  261F               	addwf	___ftadd@f2,f,c
  5525  00745E  0E00               	movlw	0
  5526  007460  2220               	addwfc	___ftadd@f2+1,f,c
  5527  007462  0E00               	movlw	0
  5528  007464  2221               	addwfc	___ftadd@f2+2,f,c
  5529  007466                     l1951:
  5530  007466  0E00               	movlw	0
  5531  007468  6E25               	movwf	___ftadd@sign,c
  5532  00746A  501C               	movf	___ftadd@f1,w,c
  5533  00746C  261F               	addwf	___ftadd@f2,f,c
  5534  00746E  501D               	movf	___ftadd@f1+1,w,c
  5535  007470  2220               	addwfc	___ftadd@f2+1,f,c
  5536  007472  501E               	movf	___ftadd@f1+2,w,c
  5537  007474  2221               	addwfc	___ftadd@f2+2,f,c
  5538  007476  AE21               	btfss	___ftadd@f2+2,7,c
  5539  007478  D00E               	goto	l1961
  5540  00747A  0EFF               	movlw	255
  5541  00747C  1A1F               	xorwf	___ftadd@f2,f,c
  5542  00747E  0EFF               	movlw	255
  5543  007480  1A20               	xorwf	___ftadd@f2+1,f,c
  5544  007482  0EFF               	movlw	255
  5545  007484  1A21               	xorwf	___ftadd@f2+2,f,c
  5546  007486  0E01               	movlw	1
  5547  007488  261F               	addwf	___ftadd@f2,f,c
  5548  00748A  0E00               	movlw	0
  5549  00748C  2220               	addwfc	___ftadd@f2+1,f,c
  5550  00748E  0E00               	movlw	0
  5551  007490  2221               	addwfc	___ftadd@f2+2,f,c
  5552  007492  0E01               	movlw	1
  5553  007494  6E25               	movwf	___ftadd@sign,c
  5554  007496                     l1961:
  5555  007496  C01F  F001         	movff	___ftadd@f2,___ftpack@arg
  5556  00749A  C020  F002         	movff	___ftadd@f2+1,___ftpack@arg+1
  5557  00749E  C021  F003         	movff	___ftadd@f2+2,___ftpack@arg+2
  5558  0074A2  C027  F004         	movff	___ftadd@exp1,___ftpack@exp
  5559  0074A6  C025  F005         	movff	___ftadd@sign,___ftpack@sign
  5560  0074AA  ECE0  F034         	call	___ftpack	;wreg free
  5561  0074AE  C001  F01C         	movff	?___ftpack,?___ftadd
  5562  0074B2  C002  F01D         	movff	?___ftpack+1,?___ftadd+1
  5563  0074B6  C003  F01E         	movff	?___ftpack+2,?___ftadd+2
  5564  0074BA                     l652:
  5565  0074BA  0012               	return	
  5566  0074BC                     __end_of___ftadd:
  5567                           	opt stack 0
  5568                           tblptru	equ	0xFF8
  5569                           tblptrh	equ	0xFF7
  5570                           tblptrl	equ	0xFF6
  5571                           tablat	equ	0xFF5
  5572                           prodh	equ	0xFF4
  5573                           prodl	equ	0xFF3
  5574                           wreg	equ	0xFE8
  5575                           postinc1	equ	0xFE6
  5576                           postdec1	equ	0xFE5
  5577                           fsr1h	equ	0xFE2
  5578                           fsr1l	equ	0xFE1
  5579                           postinc2	equ	0xFDE
  5580                           postdec2	equ	0xFDD
  5581                           fsr2h	equ	0xFDA
  5582                           fsr2l	equ	0xFD9
  5583                           status	equ	0xFD8
  5584                           
  5585 ;; *************** function ___ftpack *****************
  5586 ;; Defined at:
  5587 ;;		line 62 in file "C:\Program Files\Microchip\xc8\v1.33\sources\common\float.c"
  5588 ;; Parameters:    Size  Location     Type
  5589 ;;  arg             3    0[COMRAM] unsigned um
  5590 ;;  exp             1    3[COMRAM] unsigned char 
  5591 ;;  sign            1    4[COMRAM] unsigned char 
  5592 ;; Auto vars:     Size  Location     Type
  5593 ;;		None
  5594 ;; Return value:  Size  Location     Type
  5595 ;;                  3    0[COMRAM] float 
  5596 ;; Registers used:
  5597 ;;		wreg, status,2, status,0
  5598 ;; Tracked objects:
  5599 ;;		On entry : 0/0
  5600 ;;		On exit  : 0/0
  5601 ;;		Unchanged: 0/0
  5602 ;; Data sizes:     COMRAM   BANK0   BANK1   BANK2   BANK3   BANK4   BANK5   BANK6   BANK7
  5603 ;;      Params:         5       0       0       0       0       0       0       0       0
  5604 ;;      Locals:         0       0       0       0       0       0       0       0       0
  5605 ;;      Temps:          3       0       0       0       0       0       0       0       0
  5606 ;;      Totals:         8       0       0       0       0       0       0       0       0
  5607 ;;Total ram usage:        8 bytes
  5608 ;; Hardware stack levels used:    1
  5609 ;; This function calls:
  5610 ;;		Nothing
  5611 ;; This function is called by:
  5612 ;;		___awtoft
  5613 ;;		___ftadd
  5614 ;;		___ftdiv
  5615 ;;		___ftmul
  5616 ;;		___lbtoft
  5617 ;; This function uses a non-reentrant model
  5618 ;;
  5619                           
  5620                           	psect	text31
  5621  0069C0                     __ptext31:
  5622                           	opt stack 0
  5623  0069C0                     ___ftpack:
  5624                           	opt stack 27
  5625                           
  5626                           ;incstack = 0
  5627  0069C0  5004               	movf	___ftpack@exp,w,c
  5628  0069C2  B4D8               	btfsc	status,2,c
  5629  0069C4  D005               	goto	l1865
  5630  0069C6  5001               	movf	___ftpack@arg,w,c
  5631  0069C8  1002               	iorwf	___ftpack@arg+1,w,c
  5632  0069CA  1003               	iorwf	___ftpack@arg+2,w,c
  5633  0069CC  A4D8               	btfss	status,2,c
  5634  0069CE  D00C               	goto	l1871
  5635  0069D0                     l1865:
  5636  0069D0  0E00               	movlw	0
  5637  0069D2  6E01               	movwf	?___ftpack,c
  5638  0069D4  0E00               	movlw	0
  5639  0069D6  6E02               	movwf	?___ftpack+1,c
  5640  0069D8  0E00               	movlw	0
  5641  0069DA  6E03               	movwf	?___ftpack+2,c
  5642  0069DC  D044               	goto	l614
  5643  0069DE                     l1869:
  5644  0069DE  2A04               	incf	___ftpack@exp,f,c
  5645  0069E0  90D8               	bcf	status,0,c
  5646  0069E2  3203               	rrcf	___ftpack@arg+2,f,c
  5647  0069E4  3202               	rrcf	___ftpack@arg+1,f,c
  5648  0069E6  3201               	rrcf	___ftpack@arg,f,c
  5649  0069E8                     l1871:
  5650  0069E8  0E00               	movlw	0
  5651  0069EA  1401               	andwf	___ftpack@arg,w,c
  5652  0069EC  6E06               	movwf	??___ftpack& (0+255),c
  5653  0069EE  0E00               	movlw	0
  5654  0069F0  1402               	andwf	___ftpack@arg+1,w,c
  5655  0069F2  6E07               	movwf	(??___ftpack+1)& (0+255),c
  5656  0069F4  0EFE               	movlw	254
  5657  0069F6  1403               	andwf	___ftpack@arg+2,w,c
  5658  0069F8  6E08               	movwf	(??___ftpack+2)& (0+255),c
  5659  0069FA  5006               	movf	??___ftpack,w,c
  5660  0069FC  1007               	iorwf	??___ftpack+1,w,c
  5661  0069FE  1008               	iorwf	??___ftpack+2,w,c
  5662  006A00  B4D8               	btfsc	status,2,c
  5663  006A02  D00C               	goto	l1877
  5664  006A04  D7EC               	goto	l1869
  5665  006A06                     l1873:
  5666  006A06  2A04               	incf	___ftpack@exp,f,c
  5667  006A08  0E01               	movlw	1
  5668  006A0A  2601               	addwf	___ftpack@arg,f,c
  5669  006A0C  0E00               	movlw	0
  5670  006A0E  2202               	addwfc	___ftpack@arg+1,f,c
  5671  006A10  0E00               	movlw	0
  5672  006A12  2203               	addwfc	___ftpack@arg+2,f,c
  5673  006A14  90D8               	bcf	status,0,c
  5674  006A16  3203               	rrcf	___ftpack@arg+2,f,c
  5675  006A18  3202               	rrcf	___ftpack@arg+1,f,c
  5676  006A1A  3201               	rrcf	___ftpack@arg,f,c
  5677  006A1C                     l1877:
  5678  006A1C  0E00               	movlw	0
  5679  006A1E  1401               	andwf	___ftpack@arg,w,c
  5680  006A20  6E06               	movwf	??___ftpack& (0+255),c
  5681  006A22  0E00               	movlw	0
  5682  006A24  1402               	andwf	___ftpack@arg+1,w,c
  5683  006A26  6E07               	movwf	(??___ftpack+1)& (0+255),c
  5684  006A28  0EFF               	movlw	255
  5685  006A2A  1403               	andwf	___ftpack@arg+2,w,c
  5686  006A2C  6E08               	movwf	(??___ftpack+2)& (0+255),c
  5687  006A2E  5006               	movf	??___ftpack,w,c
  5688  006A30  1007               	iorwf	??___ftpack+1,w,c
  5689  006A32  1008               	iorwf	??___ftpack+2,w,c
  5690  006A34  B4D8               	btfsc	status,2,c
  5691  006A36  D006               	goto	l1881
  5692  006A38  D7E6               	goto	l1873
  5693  006A3A                     l1879:
  5694  006A3A  0604               	decf	___ftpack@exp,f,c
  5695  006A3C  90D8               	bcf	status,0,c
  5696  006A3E  3601               	rlcf	___ftpack@arg,f,c
  5697  006A40  3602               	rlcf	___ftpack@arg+1,f,c
  5698  006A42  3603               	rlcf	___ftpack@arg+2,f,c
  5699  006A44                     l1881:
  5700  006A44  AE02               	btfss	___ftpack@arg+1,7,c
  5701  006A46  D7F9               	goto	l1879
  5702  006A48  A004               	btfss	___ftpack@exp,0,c
  5703  006A4A  9E02               	bcf	___ftpack@arg+1,7,c
  5704  006A4C  90D8               	bcf	status,0,c
  5705  006A4E  3204               	rrcf	___ftpack@exp,f,c
  5706  006A50  5004               	movf	___ftpack@exp,w,c
  5707  006A52  1203               	iorwf	___ftpack@arg+2,f,c
  5708  006A54  5005               	movf	___ftpack@sign,w,c
  5709  006A56  A4D8               	btfss	status,2,c
  5710  006A58  8E03               	bsf	___ftpack@arg+2,7,c
  5711  006A5A  C001  F001         	movff	___ftpack@arg,?___ftpack
  5712  006A5E  C002  F002         	movff	___ftpack@arg+1,?___ftpack+1
  5713  006A62  C003  F003         	movff	___ftpack@arg+2,?___ftpack+2
  5714  006A66                     l614:
  5715  006A66  0012               	return	
  5716  006A68                     __end_of___ftpack:
  5717                           	opt stack 0
  5718  0000                     tblptru	equ	0xFF8
  5719                           tblptrh	equ	0xFF7
  5720                           tblptrl	equ	0xFF6
  5721                           tablat	equ	0xFF5
  5722                           prodh	equ	0xFF4
  5723                           prodl	equ	0xFF3
  5724                           wreg	equ	0xFE8
  5725                           postinc1	equ	0xFE6
  5726                           postdec1	equ	0xFE5
  5727                           fsr1h	equ	0xFE2
  5728                           fsr1l	equ	0xFE1
  5729                           postinc2	equ	0xFDE
  5730                           postdec2	equ	0xFDD
  5731                           fsr2h	equ	0xFDA
  5732                           fsr2l	equ	0xFD9
  5733                           status	equ	0xFD8
  5734                           tblptru	equ	0xFF8
  5735                           tblptrh	equ	0xFF7
  5736                           tblptrl	equ	0xFF6
  5737                           tablat	equ	0xFF5
  5738                           prodh	equ	0xFF4
  5739                           prodl	equ	0xFF3
  5740                           wreg	equ	0xFE8
  5741                           postinc1	equ	0xFE6
  5742                           postdec1	equ	0xFE5
  5743                           fsr1h	equ	0xFE2
  5744                           fsr1l	equ	0xFE1
  5745                           postinc2	equ	0xFDE
  5746                           postdec2	equ	0xFDD
  5747                           fsr2h	equ	0xFDA
  5748                           fsr2l	equ	0xFD9
  5749                           status	equ	0xFD8
  5750                           
  5751                           	psect	rparam
  5752  0000                     tblptru	equ	0xFF8
  5753                           tblptrh	equ	0xFF7
  5754                           tblptrl	equ	0xFF6
  5755                           tablat	equ	0xFF5
  5756                           prodh	equ	0xFF4
  5757                           prodl	equ	0xFF3
  5758                           wreg	equ	0xFE8
  5759                           postinc1	equ	0xFE6
  5760                           postdec1	equ	0xFE5
  5761                           fsr1h	equ	0xFE2
  5762                           fsr1l	equ	0xFE1
  5763                           postinc2	equ	0xFDE
  5764                           postdec2	equ	0xFDD
  5765                           fsr2h	equ	0xFDA
  5766                           fsr2l	equ	0xFD9
  5767                           status	equ	0xFD8


Data Sizes:
    Strings     0
    Constant    0
    Data        2
    BSS         5
    Persistent  0
    Stack       0

Auto Spaces:
    Space          Size  Autos    Used
    COMRAM           95     94      95
    BANK0           160    143     149
    BANK1           256    240     240
    BANK2           256    240     240
    BANK3           256    240     240
    BANK4           256    240     240
    BANK5           256    240     240
    BANK6           256    240     240
    BANK7           256      0       0

Pointer List with Targets:

    defuzzy@mf	PTR  size(2) Largest target is 120
		 -> fuzzy_system_single1@overall_out_mf(BANK5[120]), fuzzy_system_single2@overall_out_mf(BANK5[120]), fuzzy_system_single@overall_out_mf(BANK0[120]), fuzzy_system@overall_out_mf(BANK0[120]), 

    defuzzy@x	PTR  size(2) Largest target is 120
		 -> fuzzy_system_single1@y(BANK6[120]), fuzzy_system_single2@y(BANK6[120]), fuzzy_system_single@y(BANK0[120]), fuzzy_system@y(BANK0[120]), 

    out_mf@result	PTR  size(2) Largest target is 120
		 -> fuzzy_system_single1@overall_out_mf(BANK5[120]), fuzzy_system_single2@overall_out_mf(BANK5[120]), fuzzy_system_single@overall_out_mf(BANK0[120]), fuzzy_system@overall_out_mf(BANK0[120]), 

    out_mf@z	PTR  size(2) Largest target is 120
		 -> fuzzy_system_single1@qualified_cons_mf3(BANK4[120]), fuzzy_system_single2@qualified_cons_mf3(BANK4[120]), fuzzy_system_single@qualified_cons_mf3(BANK0[120]), fuzzy_system@qualified_cons_mf3(BANK0[120]), 

    out_mf@y	PTR  size(2) Largest target is 120
		 -> fuzzy_system_single1@qualified_cons_mf2(BANK4[120]), fuzzy_system_single2@qualified_cons_mf2(BANK4[120]), fuzzy_system_single@qualified_cons_mf2(BANK0[120]), fuzzy_system@qualified_cons_mf2(BANK0[120]), 

    out_mf@x	PTR  size(2) Largest target is 120
		 -> fuzzy_system_single1@qualified_cons_mf1(BANK3[120]), fuzzy_system_single2@qualified_cons_mf1(BANK3[120]), fuzzy_system_single@qualified_cons_mf1(BANK0[120]), fuzzy_system@qualified_cons_mf1(BANK0[120]), 

    qualified@y	PTR  size(2) Largest target is 120
		 -> fuzzy_system_single1@qualified_cons_mf3(BANK4[120]), fuzzy_system_single1@qualified_cons_mf2(BANK4[120]), fuzzy_system_single1@qualified_cons_mf1(BANK3[120]), fuzzy_system_single2@qualified_cons_mf3(BANK4[120]), 
		 -> fuzzy_system_single2@qualified_cons_mf2(BANK4[120]), fuzzy_system_single2@qualified_cons_mf1(BANK3[120]), fuzzy_system_single@qualified_cons_mf3(BANK0[120]), fuzzy_system_single@qualified_cons_mf2(BANK0[120]), 
		 -> fuzzy_system_single@qualified_cons_mf1(BANK0[120]), fuzzy_system@qualified_cons_mf3(BANK0[120]), fuzzy_system@qualified_cons_mf2(BANK0[120]), fuzzy_system@qualified_cons_mf1(BANK0[120]), 

    qualified@x	PTR  size(2) Largest target is 120
		 -> fuzzy_system_single1@cons_mf3(BANK5[120]), fuzzy_system_single1@cons_mf1(BANK3[120]), fuzzy_system_single2@cons_mf3(BANK5[120]), fuzzy_system_single2@cons_mf1(BANK3[120]), 
		 -> fuzzy_system_single@cons_mf3(BANK0[120]), fuzzy_system_single@cons_mf2(BANK0[120]), fuzzy_system_single@cons_mf1(BANK0[120]), fuzzy_system@cons_mf3(BANK0[120]), 
		 -> fuzzy_system@cons_mf2(BANK0[120]), fuzzy_system@cons_mf1(BANK0[120]), 

    tri_mf@t_value	PTR  size(2) Largest target is 120
		 -> fuzzy_system_single1@cons_mf3(BANK5[120]), fuzzy_system_single1@cons_mf2(BANK2[120]), fuzzy_system_single1@cons_mf1(BANK3[120]), fuzzy_system_single1@ante_mf3(BANK2[120]), 
		 -> fuzzy_system_single1@ante_mf2(BANK1[120]), fuzzy_system_single1@ante_mf1(BANK1[120]), fuzzy_system_single2@cons_mf3(BANK5[120]), fuzzy_system_single2@cons_mf2(BANK2[120]), 
		 -> fuzzy_system_single2@cons_mf1(BANK3[120]), fuzzy_system_single2@ante_mf3(BANK2[120]), fuzzy_system_single2@ante_mf2(BANK1[120]), fuzzy_system_single2@ante_mf1(BANK1[120]), 

    tri_mf@x	PTR  size(2) Largest target is 120
		 -> fuzzy_system_single1@y(BANK6[120]), fuzzy_system_single1@x(BANK6[120]), fuzzy_system_single2@y(BANK6[120]), fuzzy_system_single2@x(BANK6[120]), 

    linspace@x	PTR  size(2) Largest target is 120
		 -> fuzzy_system_single1@y(BANK6[120]), fuzzy_system_single1@x(BANK6[120]), fuzzy_system_single2@y(BANK6[120]), fuzzy_system_single2@x(BANK6[120]), 
		 -> fuzzy_system_single@y(BANK0[120]), fuzzy_system_single@x(BANK0[120]), fuzzy_system@y(BANK0[120]), fuzzy_system@x(BANK0[120]), 


Critical Paths under _main in COMRAM

    _main->_fuzzy_system_single1
    _main->_fuzzy_system_single2
    _mcu_init->_PWM_DutyCycle1
    _mcu_init->_PWM_DutyCycle2
    _PWM_init2->_OpenPWM2
    _PWM_init1->_OpenPWM1
    _go_back->_PWM_DutyCycle1
    _go_back->_PWM_DutyCycle2
    _PWM_DutyCycle2->___fttol
    _PWM_DutyCycle1->___fttol
    ___lbtoft->___ftpack
    ___fttol->___ftmul
    _fuzzy_system_single2->_tri_mf
    _fuzzy_system_single1->_tri_mf
    _tri_mf->_triangular
    _triangular->___ftdiv
    _qualified->___ftge
    _out_mf->___ftge
    ___ftge->___wmul
    _linspace->___ftdiv
    ___awtoft->___ftpack
    _defuzzy->___ftdiv
    ___ftmul->___awtoft
    ___ftmul->___lbtoft
    ___ftdiv->___ftadd
    ___ftadd->___ftmul

Critical Paths under _main in BANK0

    _main->_fuzzy_system_single1
    _main->_fuzzy_system_single2
    _fuzzy_system_single2->_tri_mf
    _fuzzy_system_single1->_tri_mf

Critical Paths under _main in BANK1

    _main->_fuzzy_system_single1
    _main->_fuzzy_system_single2

Critical Paths under _main in BANK2

    _main->_fuzzy_system_single1
    _main->_fuzzy_system_single2

Critical Paths under _main in BANK3

    _main->_fuzzy_system_single1
    _main->_fuzzy_system_single2

Critical Paths under _main in BANK4

    _main->_fuzzy_system_single1
    _main->_fuzzy_system_single2

Critical Paths under _main in BANK5

    _main->_fuzzy_system_single1
    _main->_fuzzy_system_single2

Critical Paths under _main in BANK6

    _main->_fuzzy_system_single1
    _main->_fuzzy_system_single2

Critical Paths under _main in BANK7

    None.

Call Graph Tables:

 ---------------------------------------------------------------------------------
 (Depth) Function   	        Calls       Base Space   Used Autos Params    Refs
 ---------------------------------------------------------------------------------
 (0) _main                                                18    18      0  183513
                                            125 BANK0     18    18      0
                     _PWM_DutyCycle1
                           ___awtoft
                            ___fttol
               _fuzzy_system_single1
               _fuzzy_system_single2
                      _getCNY70Value
                            _go_back
                           _mcu_init
                      _motor_forward
 ---------------------------------------------------------------------------------
 (1) _motor_forward                                        0     0      0       0
 ---------------------------------------------------------------------------------
 (1) _mcu_init                                             3     3      0   10113
                                             51 COMRAM     3     3      0
                     _PWM_DutyCycle1
                     _PWM_DutyCycle2
                          _PWM_init1
                          _PWM_init2
 ---------------------------------------------------------------------------------
 (2) _PWM_init2                                            1     1      0      68
                                              3 COMRAM     1     1      0
                           _OpenPWM2
 ---------------------------------------------------------------------------------
 (3) _OpenPWM2                                             4     4      0      46
                                              0 COMRAM     3     3      0
 ---------------------------------------------------------------------------------
 (2) _PWM_init1                                            1     1      0      44
                                              1 COMRAM     1     1      0
                           _OpenPWM1
 ---------------------------------------------------------------------------------
 (3) _OpenPWM1                                             1     1      0      22
                                              0 COMRAM     1     1      0
 ---------------------------------------------------------------------------------
 (1) _go_back                                              2     1      1   10097
                                             51 COMRAM     2     1      1
                     _PWM_DutyCycle1
                     _PWM_DutyCycle2
                  _motor_Backforward
 ---------------------------------------------------------------------------------
 (2) _motor_Backforward                                    0     0      0       0
 ---------------------------------------------------------------------------------
 (2) _PWM_DutyCycle2                                       9     9      0    5000
                                             42 COMRAM     9     9      0
                          _SetDCPWM2
                            ___ftmul
                            ___fttol
                           ___lbtoft
 ---------------------------------------------------------------------------------
 (3) _SetDCPWM2                                            6     4      2     121
                                              0 COMRAM     6     4      2
 ---------------------------------------------------------------------------------
 (2) _PWM_DutyCycle1                                       9     9      0    5000
                                             42 COMRAM     9     9      0
                          _SetDCPWM1
                            ___ftmul
                            ___fttol
                           ___lbtoft
 ---------------------------------------------------------------------------------
 (3) ___lbtoft                                             4     1      3    1746
                                              8 COMRAM     4     1      3
                           ___ftpack
 ---------------------------------------------------------------------------------
 (3) ___fttol                                             15    11      4     464
                                             27 COMRAM    15    11      4
                            ___ftmul (ARG)
                           ___lbtoft (ARG)
 ---------------------------------------------------------------------------------
 (3) _SetDCPWM1                                            6     4      2     121
                                              0 COMRAM     6     4      2
 ---------------------------------------------------------------------------------
 (1) _getCNY70Value                                        2     0      2       0
                                              0 COMRAM     2     0      2
 ---------------------------------------------------------------------------------
 (1) _fuzzy_system_single2                              1457  1454      3   77811
                                             82 COMRAM    12     9      3
                                            122 BANK0      3     3      0
                                              0 BANK1    240   240      0
                                              0 BANK2    240   240      0
                                              0 BANK3    240   240      0
                                              0 BANK4    240   240      0
                                              0 BANK5    240   240      0
                                              0 BANK6    240   240      0
                            _defuzzy
                           _linspace
                             _out_mf
                          _qualified
                             _tri_mf
                         _triangular
 ---------------------------------------------------------------------------------
 (1) _fuzzy_system_single1                              1457  1454      3   77811
                                             82 COMRAM    12     9      3
                                            122 BANK0      3     3      0
                                              0 BANK1    240   240      0
                                              0 BANK2    240   240      0
                                              0 BANK3    240   240      0
                                              0 BANK4    240   240      0
                                              0 BANK5    240   240      0
                                              0 BANK6    240   240      0
                            _defuzzy
                           _linspace
                             _out_mf
                          _qualified
                             _tri_mf
                         _triangular
 ---------------------------------------------------------------------------------
 (2) _tri_mf                                             135   122     13   18615
                                             69 COMRAM    13     0     13
                                              0 BANK0    122   122      0
                             ___wmul
                         _triangular
 ---------------------------------------------------------------------------------
 (2) _triangular                                          15     3     12   10912
                                             54 COMRAM    15     3     12
                            ___ftadd
                            ___ftdiv
                             ___ftge
                            ___ftneg
                             ___wmul (ARG)
 ---------------------------------------------------------------------------------
 (3) ___ftneg                                              3     0      3     469
                                              0 COMRAM     3     0      3
 ---------------------------------------------------------------------------------
 (2) _qualified                                           12     5      7    8342
                                             15 COMRAM    12     5      7
                             ___ftge
                             ___wmul
 ---------------------------------------------------------------------------------
 (2) _out_mf                                              10     2      8    7655
                                             15 COMRAM    10     2      8
                             ___ftge
                             ___wmul
 ---------------------------------------------------------------------------------
 (3) ___ftge                                               9     3      6    1958
                                              6 COMRAM     9     3      6
                             ___wmul (ARG)
 ---------------------------------------------------------------------------------
 (2) _linspace                                            14     4     10   17341
                                             54 COMRAM    14     4     10
                           ___awtoft
                            ___ftadd
                            ___ftdiv
                            ___ftmul
                             ___wmul
 ---------------------------------------------------------------------------------
 (3) ___awtoft                                             4     1      3    2080
                                              8 COMRAM     4     1      3
                           ___ftpack
 ---------------------------------------------------------------------------------
 (2) _defuzzy                                             15    11      4   14107
                                             54 COMRAM    15    11      4
                            ___ftadd
                            ___ftdiv
                            ___ftmul
                             ___wmul
 ---------------------------------------------------------------------------------
 (3) ___wmul                                               6     2      4    4187
                                              0 COMRAM     6     2      4
 ---------------------------------------------------------------------------------
 (3) ___ftmul                                             15     9      6    2622
                                             12 COMRAM    15     9      6
                           ___awtoft (ARG)
                           ___ftpack
                           ___lbtoft (ARG)
                             ___wmul (ARG)
 ---------------------------------------------------------------------------------
 (3) ___ftdiv                                             15     9      6    2720
                                             39 COMRAM    15     9      6
                           ___awtoft (ARG)
                            ___ftadd (ARG)
                            ___ftmul (ARG)
                            ___ftneg (ARG)
                           ___ftpack
 ---------------------------------------------------------------------------------
 (3) ___ftadd                                             12     6      6    3814
                                             27 COMRAM    12     6      6
                           ___awtoft (ARG)
                            ___ftmul (ARG)
                            ___ftneg (ARG)
                           ___ftpack
                             ___wmul (ARG)
 ---------------------------------------------------------------------------------
 (4) ___ftpack                                             8     3      5    1724
                                              0 COMRAM     8     3      5
 ---------------------------------------------------------------------------------
 Estimated maximum stack depth 4
 ---------------------------------------------------------------------------------

 Call Graph Graphs:

 _main (ROOT)
   _PWM_DutyCycle1
     _SetDCPWM1
     ___ftmul
       ___awtoft (ARG)
         ___ftpack
       ___ftpack (ARG)
       ___lbtoft (ARG)
         ___ftpack
       ___wmul (ARG)
     ___fttol
       ___ftmul (ARG)
         ___awtoft (ARG)
           ___ftpack
         ___ftpack (ARG)
         ___lbtoft (ARG)
           ___ftpack
         ___wmul (ARG)
       ___lbtoft (ARG)
         ___ftpack
     ___lbtoft
       ___ftpack
   ___awtoft
     ___ftpack
   ___fttol
     ___ftmul (ARG)
       ___awtoft (ARG)
         ___ftpack
       ___ftpack (ARG)
       ___lbtoft (ARG)
         ___ftpack
       ___wmul (ARG)
     ___lbtoft (ARG)
       ___ftpack
   _fuzzy_system_single1
     _defuzzy
       ___ftadd
         ___awtoft (ARG)
           ___ftpack
         ___ftmul (ARG)
           ___awtoft (ARG)
             ___ftpack
           ___ftpack (ARG)
           ___lbtoft (ARG)
             ___ftpack
           ___wmul (ARG)
         ___ftneg (ARG)
         ___ftpack (ARG)
         ___wmul (ARG)
       ___ftdiv
         ___awtoft (ARG)
           ___ftpack
         ___ftadd (ARG)
           ___awtoft (ARG)
             ___ftpack
           ___ftmul (ARG)
             ___awtoft (ARG)
               ___ftpack
             ___ftpack (ARG)
             ___lbtoft (ARG)
               ___ftpack
             ___wmul (ARG)
           ___ftneg (ARG)
           ___ftpack (ARG)
           ___wmul (ARG)
         ___ftmul (ARG)
           ___awtoft (ARG)
             ___ftpack
           ___ftpack (ARG)
           ___lbtoft (ARG)
             ___ftpack
           ___wmul (ARG)
         ___ftneg (ARG)
         ___ftpack (ARG)
       ___ftmul
         ___awtoft (ARG)
           ___ftpack
         ___ftpack (ARG)
         ___lbtoft (ARG)
           ___ftpack
         ___wmul (ARG)
       ___wmul
     _linspace
       ___awtoft
         ___ftpack
       ___ftadd
         ___awtoft (ARG)
           ___ftpack
         ___ftmul (ARG)
           ___awtoft (ARG)
             ___ftpack
           ___ftpack (ARG)
           ___lbtoft (ARG)
             ___ftpack
           ___wmul (ARG)
         ___ftneg (ARG)
         ___ftpack (ARG)
         ___wmul (ARG)
       ___ftdiv
         ___awtoft (ARG)
           ___ftpack
         ___ftadd (ARG)
           ___awtoft (ARG)
             ___ftpack
           ___ftmul (ARG)
             ___awtoft (ARG)
               ___ftpack
             ___ftpack (ARG)
             ___lbtoft (ARG)
               ___ftpack
             ___wmul (ARG)
           ___ftneg (ARG)
           ___ftpack (ARG)
           ___wmul (ARG)
         ___ftmul (ARG)
           ___awtoft (ARG)
             ___ftpack
           ___ftpack (ARG)
           ___lbtoft (ARG)
             ___ftpack
           ___wmul (ARG)
         ___ftneg (ARG)
         ___ftpack (ARG)
       ___ftmul
         ___awtoft (ARG)
           ___ftpack
         ___ftpack (ARG)
         ___lbtoft (ARG)
           ___ftpack
         ___wmul (ARG)
       ___wmul
     _out_mf
       ___ftge
         ___wmul (ARG)
       ___wmul
     _qualified
       ___ftge
         ___wmul (ARG)
       ___wmul
     _tri_mf
       ___wmul
       _triangular
         ___ftadd
           ___awtoft (ARG)
             ___ftpack
           ___ftmul (ARG)
             ___awtoft (ARG)
               ___ftpack
             ___ftpack (ARG)
             ___lbtoft (ARG)
               ___ftpack
             ___wmul (ARG)
           ___ftneg (ARG)
           ___ftpack (ARG)
           ___wmul (ARG)
         ___ftdiv
           ___awtoft (ARG)
             ___ftpack
           ___ftadd (ARG)
             ___awtoft (ARG)
               ___ftpack
             ___ftmul (ARG)
               ___awtoft (ARG)
                 ___ftpack
               ___ftpack (ARG)
               ___lbtoft (ARG)
                 ___ftpack
               ___wmul (ARG)
             ___ftneg (ARG)
             ___ftpack (ARG)
             ___wmul (ARG)
           ___ftmul (ARG)
             ___awtoft (ARG)
               ___ftpack
             ___ftpack (ARG)
             ___lbtoft (ARG)
               ___ftpack
             ___wmul (ARG)
           ___ftneg (ARG)
           ___ftpack (ARG)
         ___ftge
           ___wmul (ARG)
         ___ftneg
         ___wmul (ARG)
     _triangular
       ___ftadd
         ___awtoft (ARG)
           ___ftpack
         ___ftmul (ARG)
           ___awtoft (ARG)
             ___ftpack
           ___ftpack (ARG)
           ___lbtoft (ARG)
             ___ftpack
           ___wmul (ARG)
         ___ftneg (ARG)
         ___ftpack (ARG)
         ___wmul (ARG)
       ___ftdiv
         ___awtoft (ARG)
           ___ftpack
         ___ftadd (ARG)
           ___awtoft (ARG)
             ___ftpack
           ___ftmul (ARG)
             ___awtoft (ARG)
               ___ftpack
             ___ftpack (ARG)
             ___lbtoft (ARG)
               ___ftpack
             ___wmul (ARG)
           ___ftneg (ARG)
           ___ftpack (ARG)
           ___wmul (ARG)
         ___ftmul (ARG)
           ___awtoft (ARG)
             ___ftpack
           ___ftpack (ARG)
           ___lbtoft (ARG)
             ___ftpack
           ___wmul (ARG)
         ___ftneg (ARG)
         ___ftpack (ARG)
       ___ftge
         ___wmul (ARG)
       ___ftneg
       ___wmul (ARG)
   _fuzzy_system_single2
     _defuzzy
       ___ftadd
         ___awtoft (ARG)
           ___ftpack
         ___ftmul (ARG)
           ___awtoft (ARG)
             ___ftpack
           ___ftpack (ARG)
           ___lbtoft (ARG)
             ___ftpack
           ___wmul (ARG)
         ___ftneg (ARG)
         ___ftpack (ARG)
         ___wmul (ARG)
       ___ftdiv
         ___awtoft (ARG)
           ___ftpack
         ___ftadd (ARG)
           ___awtoft (ARG)
             ___ftpack
           ___ftmul (ARG)
             ___awtoft (ARG)
               ___ftpack
             ___ftpack (ARG)
             ___lbtoft (ARG)
               ___ftpack
             ___wmul (ARG)
           ___ftneg (ARG)
           ___ftpack (ARG)
           ___wmul (ARG)
         ___ftmul (ARG)
           ___awtoft (ARG)
             ___ftpack
           ___ftpack (ARG)
           ___lbtoft (ARG)
             ___ftpack
           ___wmul (ARG)
         ___ftneg (ARG)
         ___ftpack (ARG)
       ___ftmul
         ___awtoft (ARG)
           ___ftpack
         ___ftpack (ARG)
         ___lbtoft (ARG)
           ___ftpack
         ___wmul (ARG)
       ___wmul
     _linspace
       ___awtoft
         ___ftpack
       ___ftadd
         ___awtoft (ARG)
           ___ftpack
         ___ftmul (ARG)
           ___awtoft (ARG)
             ___ftpack
           ___ftpack (ARG)
           ___lbtoft (ARG)
             ___ftpack
           ___wmul (ARG)
         ___ftneg (ARG)
         ___ftpack (ARG)
         ___wmul (ARG)
       ___ftdiv
         ___awtoft (ARG)
           ___ftpack
         ___ftadd (ARG)
           ___awtoft (ARG)
             ___ftpack
           ___ftmul (ARG)
             ___awtoft (ARG)
               ___ftpack
             ___ftpack (ARG)
             ___lbtoft (ARG)
               ___ftpack
             ___wmul (ARG)
           ___ftneg (ARG)
           ___ftpack (ARG)
           ___wmul (ARG)
         ___ftmul (ARG)
           ___awtoft (ARG)
             ___ftpack
           ___ftpack (ARG)
           ___lbtoft (ARG)
             ___ftpack
           ___wmul (ARG)
         ___ftneg (ARG)
         ___ftpack (ARG)
       ___ftmul
         ___awtoft (ARG)
           ___ftpack
         ___ftpack (ARG)
         ___lbtoft (ARG)
           ___ftpack
         ___wmul (ARG)
       ___wmul
     _out_mf
       ___ftge
         ___wmul (ARG)
       ___wmul
     _qualified
       ___ftge
         ___wmul (ARG)
       ___wmul
     _tri_mf
       ___wmul
       _triangular
         ___ftadd
           ___awtoft (ARG)
             ___ftpack
           ___ftmul (ARG)
             ___awtoft (ARG)
               ___ftpack
             ___ftpack (ARG)
             ___lbtoft (ARG)
               ___ftpack
             ___wmul (ARG)
           ___ftneg (ARG)
           ___ftpack (ARG)
           ___wmul (ARG)
         ___ftdiv
           ___awtoft (ARG)
             ___ftpack
           ___ftadd (ARG)
             ___awtoft (ARG)
               ___ftpack
             ___ftmul (ARG)
               ___awtoft (ARG)
                 ___ftpack
               ___ftpack (ARG)
               ___lbtoft (ARG)
                 ___ftpack
               ___wmul (ARG)
             ___ftneg (ARG)
             ___ftpack (ARG)
             ___wmul (ARG)
           ___ftmul (ARG)
             ___awtoft (ARG)
               ___ftpack
             ___ftpack (ARG)
             ___lbtoft (ARG)
               ___ftpack
             ___wmul (ARG)
           ___ftneg (ARG)
           ___ftpack (ARG)
         ___ftge
           ___wmul (ARG)
         ___ftneg
         ___wmul (ARG)
     _triangular
       ___ftadd
         ___awtoft (ARG)
           ___ftpack
         ___ftmul (ARG)
           ___awtoft (ARG)
             ___ftpack
           ___ftpack (ARG)
           ___lbtoft (ARG)
             ___ftpack
           ___wmul (ARG)
         ___ftneg (ARG)
         ___ftpack (ARG)
         ___wmul (ARG)
       ___ftdiv
         ___awtoft (ARG)
           ___ftpack
         ___ftadd (ARG)
           ___awtoft (ARG)
             ___ftpack
           ___ftmul (ARG)
             ___awtoft (ARG)
               ___ftpack
             ___ftpack (ARG)
             ___lbtoft (ARG)
               ___ftpack
             ___wmul (ARG)
           ___ftneg (ARG)
           ___ftpack (ARG)
           ___wmul (ARG)
         ___ftmul (ARG)
           ___awtoft (ARG)
             ___ftpack
           ___ftpack (ARG)
           ___lbtoft (ARG)
             ___ftpack
           ___wmul (ARG)
         ___ftneg (ARG)
         ___ftpack (ARG)
       ___ftge
         ___wmul (ARG)
       ___ftneg
       ___wmul (ARG)
   _getCNY70Value
   _go_back
     _PWM_DutyCycle1
       _SetDCPWM1
       ___ftmul
         ___awtoft (ARG)
           ___ftpack
         ___ftpack (ARG)
         ___lbtoft (ARG)
           ___ftpack
         ___wmul (ARG)
       ___fttol
         ___ftmul (ARG)
           ___awtoft (ARG)
             ___ftpack
           ___ftpack (ARG)
           ___lbtoft (ARG)
             ___ftpack
           ___wmul (ARG)
         ___lbtoft (ARG)
           ___ftpack
       ___lbtoft
         ___ftpack
     _PWM_DutyCycle2
       _SetDCPWM2
       ___ftmul
         ___awtoft (ARG)
           ___ftpack
         ___ftpack (ARG)
         ___lbtoft (ARG)
           ___ftpack
         ___wmul (ARG)
       ___fttol
         ___ftmul (ARG)
           ___awtoft (ARG)
             ___ftpack
           ___ftpack (ARG)
           ___lbtoft (ARG)
             ___ftpack
           ___wmul (ARG)
         ___lbtoft (ARG)
           ___ftpack
       ___lbtoft
         ___ftpack
     _motor_Backforward
   _mcu_init
     _PWM_DutyCycle1
       _SetDCPWM1
       ___ftmul
         ___awtoft (ARG)
           ___ftpack
         ___ftpack (ARG)
         ___lbtoft (ARG)
           ___ftpack
         ___wmul (ARG)
       ___fttol
         ___ftmul (ARG)
           ___awtoft (ARG)
             ___ftpack
           ___ftpack (ARG)
           ___lbtoft (ARG)
             ___ftpack
           ___wmul (ARG)
         ___lbtoft (ARG)
           ___ftpack
       ___lbtoft
         ___ftpack
     _PWM_DutyCycle2
       _SetDCPWM2
       ___ftmul
         ___awtoft (ARG)
           ___ftpack
         ___ftpack (ARG)
         ___lbtoft (ARG)
           ___ftpack
         ___wmul (ARG)
       ___fttol
         ___ftmul (ARG)
           ___awtoft (ARG)
             ___ftpack
           ___ftpack (ARG)
           ___lbtoft (ARG)
             ___ftpack
           ___wmul (ARG)
         ___lbtoft (ARG)
           ___ftpack
       ___lbtoft
         ___ftpack
     _PWM_init1
       _OpenPWM1
     _PWM_init2
       _OpenPWM2
   _motor_forward

 Address spaces:
Name               Size   Autos  Total    Cost      Usage
BIGRAM             7FF      0       0      21        0.0%
EEDATA             100      0       0       0        0.0%
BITBANK7           100      0       0      18        0.0%
BANK7              100      0       0      19        0.0%
BITBANK6           100      0       0      16        0.0%
BANK6              100     F0      F0      17       93.8%
BITBANK5           100      0       0      14        0.0%
BANK5              100     F0      F0      15       93.8%
BITBANK4           100      0       0      12        0.0%
BANK4              100     F0      F0      13       93.8%
BITBANK3           100      0       0      10        0.0%
BANK3              100     F0      F0      11       93.8%
BITBANK2           100      0       0       8        0.0%
BANK2              100     F0      F0       9       93.8%
BITBANK1           100      0       0       6        0.0%
BANK1              100     F0      F0       7       93.8%
BITBANK0            A0      0       0       4        0.0%
BANK0               A0     8F      95       5       93.1%
BITCOMRAM           5F      0       0       0        0.0%
COMRAM              5F     5E      5F       1      100.0%
BITSFR               0      0       0      40        0.0%
SFR                  0      0       0      40        0.0%
STACK                0      0       0       2        0.0%
NULL                 0      0       0       0        0.0%
ABS                  0      0     694      20        0.0%
DATA                 0      0     694       3        0.0%
CODE                 0      0       0       0        0.0%


Microchip Technology PIC18 Macro Assembler V1.33 build 59893 
Symbol Table                                                                                   Thu Oct 26 18:28:39 2017

                       ??_motor_forward 0001                                       _i 00F1  
               __size_of_PWM_DutyCycle1 006A                 __size_of_PWM_DutyCycle2 006A  
                                    l99 71AC                     ___wmul@multiplicand 0003  
                           __CFG_BORV$3 000000                            __CFG_CP0$OFF 000000  
                          __CFG_CP1$OFF 000000                            __CFG_CP2$OFF 000000  
                          __CFG_CP3$OFF 000000                            ___ftadd@exp1 0027  
                          ___ftadd@exp2 0026                            ___ftadd@sign 0025  
                                   l121 6E94                                     l130 78FA  
                                   l210 6A78                                     l211 6B1E  
                                   l221 6AD8                                     l213 6A88  
                                   l223 6AE8                                     l215 6AA0  
                                   l225 6AFE                                     l217 6AB0  
                                   l219 6AC0                                     l614 6A66  
                                   l295 6760                                     l296 676A  
                                   l297 676C                                     l651 7356  
                                   l652 74BA                                     l708 6690  
                                   l718 6BF2                                     l655 7382  
                                   l666 742E                                     l675 744A  
                                   l683 6CC8                                     l692 6920  
                                   l686 6C98                                     l698 6DAC  
                          __CFG_CPB$OFF 000000                                     _PR2 000FCB  
                          __CFG_CPD$OFF 000000                            __CFG_BOR$OFF 000000  
                                   wreg 000FE8                            __CFG_LVP$OFF 000000  
                          ___ftdiv@cntr 0031                            ___ftdiv@sign 0036  
                          qualified@min 0017                            __CFG_WDT$OFF 000000  
                                  l2015 68C2                                    l2105 6D0A  
                                  l2025 691E                                    l2123 6D4C  
                                  l2019 68F2                                    l2133 6D74  
                                  l2045 75B4                                    l2119 6D3C  
                                  l2055 7694                                    l2039 74F4  
                                  l2129 6D64                                    l2049 75D4  
                                  l2323 6E62                                    l2149 679A  
                                  l2253 6F94                                    l2341 77B0  
                                  l2325 6E8E                                    l2181 6BA4  
                                  l2271 7104                                    l2191 6BCC  
                                  l2159 6B3A                                    l2079 675C  
                                  l2257 7076                                    l2177 6B94  
                                  l2099 6CE4                                    l2347 78A6  
                                  l2195 6BE2                                    l2187 6BBC  
                                  l2365 7274                                    l2189 6BC8  
                                  l1903 7364                                    l2377 72DA  
                                  l1931 73E2                                    l2547 6B16  
                                  l1933 73EC                                    l1925 73C0  
                                  l1909 7390                                    l1871 69E8  
                                  l1951 7466                                    l1943 741E  
                                  l1935 73F4                                    l1881 6A44  
                                  l1873 6A06                                    l1865 69D0  
                                  l1961 7496                                    l1945 7428  
                                  l1937 73FC                                    l2681 6F34  
                                  l1971 6C0E                                    l2659 6EA4  
                                  l1877 6A1C                                    l1869 69DE  
                                  l1879 6A3A                                    l1977 6C34  
                                  l1997 6C72                                    u2001 6CF4  
                                  u2010 6CFC                                    u2100 6BAA  
                                  u2051 6B30                                    u2070 6B58  
                                  u3017 6958                                    u2075 6B50  
                                  u1811 6C1E                                    u1820 6C26  
                                  u1581 7320                                    u1591 7334  
                                  u1915 75C4                                    u2830 6B0E  
                                  u1791 6C04                                    u2680 6AD0  
                                  u1945 66D2                                    u2780 6AF8  
                                  u1981 6CDA                                    u1975 670C  
                                  _TMR2 000FCC                                    _main 6E96  
                          ___ftpack@arg 0001                            ___ftpack@exp 0004  
                                  fsr1l 000FE1                                    fsr2l 000FD9  
                                  prodh 000FF4                                    prodl 000FF3  
                                  start 0000                           __CFG_IESO$OFF 000000  
                         __CFG_MCLRE$ON 000000                            ___ftmul@cntr 001A  
                          ___ftmul@sign 001B                            ___fttol@exp1 002A  
                          ___fttol@lval 0026                           __CFG_PLLDIV$1 000000  
                        __CFG_CCP2MX$ON 000000                                   ?_main 0001  
                       __end_of___ftadd 74BC                         __end_of___ftdiv 6CCA  
                       __end_of___ftneg 669E                         __end_of___ftmul 6DAE  
                       __end_of___fttol 6BF4                                   _T2CON 000FCA  
                        __CFG_DEBUG$OFF 000000                                   _PORTA 000F80  
                                 _PORTB 000F81                                   _PORTC 000F82  
                                 _PORTD 000F83                                   _PORTE 000F84  
                         __CFG_USBDIV$2 000000                                   _TRISA 000F92  
                                 _TRISB 000F93                                   _TRISC 000F94  
                                 _TRISD 000F95                                   _TRISE 000F96  
                         __CFG_PWRT$OFF 000000                           __CFG_WRT0$OFF 000000  
                         __CFG_WRT1$OFF 000000                           __CFG_WRT2$OFF 000000  
               PWM_DutyCycle1@DutyCycle 002F                           __CFG_WRT3$OFF 000000  
                       __end_of_defuzzy 7310                          __CFG_EBTR0$OFF 000000  
                        __CFG_FCMEN$OFF 000000                          __CFG_EBTR1$OFF 000000  
                        __CFG_EBTR2$OFF 000000                          __CFG_EBTR3$OFF 000000  
                       __end_of_go_back 65F2                           __CFG_WRTB$OFF 000000  
                         __CFG_WRTC$OFF 000000                           __CFG_WRTD$OFF 000000  
                        __CFG_EBTRB$OFF 000000                           ___awtoft@sign 000C  
                ??_fuzzy_system_single1 0056                  ??_fuzzy_system_single2 0056  
                          out_mf@result 0010                           ___ftpack@sign 0005  
                                 main@a 00E1                                   main@b 00E4  
                                 tablat 000FF5                 PWM_DutyCycle2@DutyCycle 002F  
                                 status 000FD8                          __CFG_ICPRT$OFF 000000  
                    __size_of_PWM_init1 001E                      __size_of_PWM_init2 001E  
                       __initialization 669E                            __end_of_main 6F8A  
                      __end_of_OpenPWM1 65DE                        __end_of_OpenPWM2 6776  
                                ??_main 00DD                           ___fttol@sign1 0025  
                         __activetblptr 000003                           linspace@start 0039  
                                _CCPR1L 000FBE                                  _CCPR2L 000FBB  
                      __end_of___awtoft 67BE                        __end_of___ftpack 6A68  
                      __end_of___lbtoft 6652  fuzzy_system_single2@qualified_cons_mf1 0378  
fuzzy_system_single2@qualified_cons_mf2 0478  fuzzy_system_single2@qualified_cons_mf3 0400  
    fuzzy_system_single2@overall_out_mf 0578                      __size_of_SetDCPWM1 003A  
                    __size_of_SetDCPWM2 003A                          __CFG_XINST$OFF 000000  
                                ___ftge 6892                                  ___wmul 6652  
                             ??___ftadd 0022                          _PWM_DutyCycle1 67BE  
                        _PWM_DutyCycle2 6828                          __CFG_STVREN$ON 000000  
                             ??___ftdiv 002E                               ??___ftneg 0004  
                             ??___ftmul 0013                               ??___fttol 0020  
                      __end_of_mcu_init 69C0                               ??_defuzzy 003B  
                      __end_of_linspace 708C                                  _out_mf 76A2  
                                _tri_mf 708C                               ??_go_back 0035  
                 ___ftmul@f3_as_product 0017              fuzzy_system_single1@output 00DA  
            fuzzy_system_single2@output 00DA                            triangular@ux 0043  
                                tblptrh 000FF7                                  tblptrl 000FF6  
                                tblptru 000FF8                       __end_of_PWM_init1 6610  
                     __end_of_PWM_init2 662E                       _motor_Backforward 65B8  
                            __accesstop 0060                 __end_of__initialization 66C2  
                       __CFG_PBADEN$OFF 000000                              ___ftadd@f1 001C  
                            ___ftadd@f2 001F                      ?_motor_Backforward 0001  
                            ___ftge@ff1 0007                              ___ftge@ff2 000A  
          PWM_DutyCycle2@percentageDuty 0031                              ___ftdiv@f1 0028  
                            ___ftdiv@f2 002B                              ___ftdiv@f3 0032  
                            ___ftneg@f1 0001                              ___awtoft@c 0009  
                            ___lbtoft@c 000C                  __end_of_PWM_DutyCycle1 6828  
                __end_of_PWM_DutyCycle2 6892                              ___ftmul@f1 000D  
                            ___ftmul@f2 0010                              ___fttol@f1 001C  
                        __pcstackCOMRAM 0001                     ??_motor_Backforward 0001  
                          __pidataBANK0 65B6                       __end_of_SetDCPWM1 6702  
                     __end_of_SetDCPWM2 673C                             linspace@end 003C  
             __end_of_motor_Backforward 65C2                           tri_mf@t_value 0046  
                            __pbssBANK0 00EF               fuzzy_system_single1@input 0053  
             fuzzy_system_single2@input 0053                               ?_OpenPWM1 0001  
                             ?_OpenPWM2 0001                         ?_PWM_DutyCycle1 0001  
                       ?_PWM_DutyCycle2 0001                                 ?___ftge 0007  
                               ?___wmul 0001                  __size_of_getCNY70Value 00B8  
                               _CCP1CON 000FBD                                 _CCP2CON 000FBA  
                 __end_of_motor_forward 65CC                               ?___awtoft 0009  
                             ?___ftpack 0001                               ?___lbtoft 0009  
                               ?_out_mf 0010                                 ?_tri_mf 0046  
                    __size_of_qualified 00E8                         __CFG_VREGEN$OFF 000000  
                             ?_mcu_init 0001                              ??_OpenPWM1 0001  
                            ??_OpenPWM2 0001                               ?_linspace 0037  
                               __Hparam 0000                                 __Lparam 0000  
                       __size_of___ftge 0090                                 ___ftadd 7310  
                               ___ftdiv 6BF4                                 ___ftneg 6678  
                       __size_of___wmul 0026                                 ___ftmul 6CCA  
                               ___fttol 6B20                                 __pcinit 669E  
                            ??___awtoft 000C                              ??___ftpack 0006  
                            ??___lbtoft 000C                                 __ramtop 0800  
                               _defuzzy 71AE                                 __ptext0 6E96  
                               __ptext1 65C2                                 __ptext2 6922  
                               __ptext3 6610                                 __ptext4 673C  
                               __ptext5 65F2                                 __ptext6 65CC  
                               __ptext7 65DE                                 __ptext8 65B8  
                               __ptext9 6828                                 _go_back 65DE  
                       __size_of_out_mf 025A                         __size_of_tri_mf 0122  
                               _countup 00F3                               _T2CONbits 000FCA  
            __size_of_motor_Backforward 000A                           _getCNY70Value 6A68  
                  end_of_initialization 66C2            fuzzy_system_single1@ante_mf1 0100  
          fuzzy_system_single1@ante_mf2 0178            fuzzy_system_single1@ante_mf3 0278  
         __size_of_fuzzy_system_single1 0382           __size_of_fuzzy_system_single2 0382  
          fuzzy_system_single1@cons_mf1 0300            fuzzy_system_single1@cons_mf2 0200  
          fuzzy_system_single1@cons_mf3 0500                              ??_mcu_init 0034  
          fuzzy_system_single2@ante_mf1 0100            fuzzy_system_single2@ante_mf2 0178  
          fuzzy_system_single2@ante_mf3 0278                              ??_linspace 0041  
          fuzzy_system_single2@cons_mf1 0300            fuzzy_system_single2@cons_mf2 0200  
          fuzzy_system_single2@cons_mf3 0500                       __end_of_qualified 6E96  
                               postdec1 000FE5                                 postdec2 000FDD  
                               out_mf@i 0018                                 out_mf@x 0012  
                               out_mf@y 0014                                 out_mf@z 0016  
                               postinc1 000FE6                                 postinc2 000FDE  
                               tri_mf@a 004A                                 tri_mf@b 004D  
                               tri_mf@c 0050                                 tri_mf@i 00D8  
                               tri_mf@x 0048                              defuzzy@out 003B  
                             _PORTAbits 000F80                               _PORTBbits 000F81  
                             _PORTDbits 000F83                               _TRISBbits 000F93  
                             _TRISCbits 000F94                          ?_getCNY70Value 0001  
                            _triangular 74BC                               _PWM_init1 65F2  
                             _PWM_init2 6610  fuzzy_system_single1@qualified_cons_mf1 0378  
fuzzy_system_single1@qualified_cons_mf2 0478  fuzzy_system_single1@qualified_cons_mf3 0400  
                           ___ftdiv@exp 0035                              main@sensed 00ED  
                           ___ftmul@exp 0016                          __end_of___ftge 6922  
                        __end_of___wmul 6678                          __end_of_out_mf 78FC  
                        __end_of_tri_mf 71AE                     start_initialization 669E  
                             _SetDCPWM1 66C8                               _SetDCPWM2 6702  
                       SetDCPWM1@DCycle 0005                         SetDCPWM2@DCycle 0005  
                             _DutyCycle 00EF                              ?_PWM_init1 0001  
                            ?_PWM_init2 0001                        ??_PWM_DutyCycle1 002B  
                      ??_PWM_DutyCycle2 002B                            linspace@size 003F  
                fuzzy_system_single1@w1 0056                  fuzzy_system_single1@w2 0059  
                fuzzy_system_single1@w3 005C                  fuzzy_system_single2@w1 0056  
                fuzzy_system_single2@w2 0059                  fuzzy_system_single2@w3 005C  
                     __size_of_OpenPWM1 0012                       __size_of_OpenPWM2 003A  
                              ??___ftge 000D                                ??___wmul 0005  
                           __pdataBANK0 00F3                        __CFG_LPT1OSC$OFF 000000  
                           triangular@a 0037                             triangular@b 003A  
                           triangular@c 003D                             triangular@x 0040  
                              ??_out_mf 0018                                ??_tri_mf 0053  
                     __size_of___awtoft 0048                       __size_of___ftpack 00A8  
                     __size_of___lbtoft 0024                             __pbssCOMRAM 005F  
                       ??_getCNY70Value 0003                           __pcstackBANK0 0060  
                         __pcstackBANK1 0100                           __pcstackBANK2 0200  
                         __pcstackBANK3 0300                           __pcstackBANK4 0400  
                         __pcstackBANK5 0500                           __pcstackBANK6 0600  
                            ?_SetDCPWM1 0001                              ?_SetDCPWM2 0001  
    fuzzy_system_single1@overall_out_mf 0578                             ?_triangular 0037  
                     __size_of_mcu_init 009E                               _main$1522 00E7  
                             _main$1523 00EA                       __size_of_linspace 0102  
                              ?___ftadd 001C                                ?___ftdiv 0028  
                              ?___ftneg 0001                                ?___ftmul 000D  
                              ?___fttol 001C                                ?_defuzzy 0037  
                              ?_go_back 0034                             ??_PWM_init1 0002  
                           ??_PWM_init2 0004            PWM_DutyCycle1@percentageDuty 0031  
                __size_of_motor_forward 000A                          ___wmul@product 0005  
                              _PIE1bits 000F9D                                _PIR1bits 000F9E  
                      __CFG_WDTPS$32768 000000                               defuzzy@mf 0039  
          __end_of_fuzzy_system_single1 7C7E            __end_of_fuzzy_system_single2 8000  
                             _qualified 6DAE                     __size_of_triangular 01E6  
                            _ADCON1bits 000FC1                       ___wmul@multiplier 0001  
                            qualified@i 001A                              qualified@w 0014  
                            qualified@x 0012                              qualified@y 0010  
                           ??_SetDCPWM1 0003                             ??_SetDCPWM2 0003  
                    SetDCPWM1@dutycycle 0001                              tri_mf@temp 0060  
                          _Timer2Config 005F                                _OpenPWM1 65CC  
                              _OpenPWM2 673C                   fuzzy_system_single1@x 0600  
                 fuzzy_system_single1@y 0678                   fuzzy_system_single2@x 0600  
                 fuzzy_system_single2@y 0678                                __Hrparam 0000  
                              __Lrparam 0000                      SetDCPWM2@dutycycle 0001  
                             mcu_init@i 0035                              ?_qualified 0010  
                      __size_of___ftadd 01AC                        PWM_DutyCycle1@DC 0032  
                      PWM_DutyCycle2@DC 0032                        __size_of___ftdiv 00D6  
                      __size_of___ftneg 0026                        __size_of___ftmul 00E4  
                      __size_of___fttol 00D4                           _motor_forward 65C2  
                              ___awtoft 6776                                ___ftpack 69C0  
                              ___lbtoft 662E                          OpenPWM2@ccp2mx 0003  
                 __CFG_FOSC$INTOSCIO_EC 000000                               linspace@i 0043  
                      __size_of_defuzzy 0162                               linspace@x 0037  
                      __size_of_go_back 0014                          OpenPWM1@period 0001  
                        OpenPWM2@period 0002                                __ptext10 6702  
                              __ptext11 67BE                                __ptext20 6678  
                              __ptext12 662E                                __ptext21 6DAE  
                              __ptext13 6B20                                __ptext30 7310  
                              __ptext22 76A2                                __ptext14 66C8  
                              __ptext31 69C0                                __ptext23 6892  
                              __ptext15 6A68                                __ptext24 6F8A  
                              __ptext16 7C7E                                __ptext25 6776  
                              __ptext17 78FC                                __ptext26 71AE  
                              __ptext18 708C                                __ptext27 6652  
                              __ptext19 74BC                                __ptext28 6CCA  
                              __ptext29 6BF4                         PWM_init1@period 0002  
                       PWM_init2@period 0004                                _mcu_init 6922  
                         __size_of_main 00F4                                _linspace 6F8A  
                              defuzzy@i 0044                                defuzzy@x 0037  
                        ?_motor_forward 0001                   __CFG_CPUDIV$OSC1_PLL2 000000  
                          ??_triangular 0043                    _fuzzy_system_single1 78FC  
                  _fuzzy_system_single2 7C7E                              _OSCCONbits 000FD3  
                           ??_qualified 0017                             defuzzy@sum1 003E  
                           defuzzy@sum2 0041                      __end_of_triangular 76A2  
                        go_back@m_right 0035                   __end_of_getCNY70Value 6B20  
                 ?_fuzzy_system_single1 0053                   ?_fuzzy_system_single2 0053  
                         go_back@m_left 0034  
