

Microchip Technology PIC18 LITE Macro Assembler V1.33 build 59893 
                                                                                               Thu Oct 26 18:40:57 2017

Microchip Technology Omniscient Code Generator (Lite mode) build 59893
     1                           	processor	18F4550
     2                           	fnconf	rparam,??,?,0
     3                           	opt	pw 120
     4                           	opt	lm
     5                           	psect	idataBANK0,global,class=CODE,delta=1
     6                           	psect	cinit,global,reloc=2,class=CODE,delta=1
     7                           	psect	bssCOMRAM,global,class=COMRAM,space=1,delta=1
     8                           	psect	bssBANK0,global,class=BANK0,space=1,delta=1
     9                           	psect	dataBANK0,global,class=BANK0,space=1,delta=1
    10                           	psect	cstackBANK6,global,class=BANK6,space=1,delta=1
    11                           	psect	cstackBANK5,global,class=BANK5,space=1,delta=1
    12                           	psect	cstackBANK4,global,class=BANK4,space=1,delta=1
    13                           	psect	cstackBANK3,global,class=BANK3,space=1,delta=1
    14                           	psect	cstackBANK2,global,class=BANK2,space=1,delta=1
    15                           	psect	cstackBANK1,global,class=BANK1,space=1,delta=1
    16                           	psect	cstackBANK0,global,class=BANK0,space=1,delta=1
    17                           	psect	cstackCOMRAM,global,class=COMRAM,space=1,delta=1
    18                           	psect	text0,global,reloc=2,class=CODE,delta=1
    19                           	psect	text1,global,reloc=2,class=CODE,delta=1
    20                           	psect	text2,global,reloc=2,class=CODE,delta=1
    21                           	psect	text3,global,reloc=2,class=CODE,delta=1
    22                           	psect	text4,global,reloc=2,class=CODE,delta=1
    23                           	psect	text5,global,reloc=2,class=CODE,delta=1
    24                           	psect	text6,global,reloc=2,class=CODE,delta=1
    25                           	psect	text7,global,reloc=2,class=CODE,delta=1
    26                           	psect	text8,global,reloc=2,class=CODE,delta=1
    27                           	psect	text9,global,reloc=2,class=CODE,delta=1
    28                           	psect	text10,global,reloc=2,class=CODE,delta=1
    29                           	psect	text11,global,reloc=2,class=CODE,delta=1
    30                           	psect	text12,global,reloc=2,class=CODE,delta=1
    31                           	psect	text13,global,reloc=2,class=CODE,delta=1
    32                           	psect	text14,global,reloc=2,class=CODE,delta=1
    33                           	psect	text15,global,reloc=2,class=CODE,delta=1
    34                           	psect	text16,global,reloc=2,class=CODE,delta=1
    35                           	psect	text17,global,reloc=2,class=CODE,delta=1
    36                           	psect	text18,global,reloc=2,class=CODE,delta=1
    37                           	psect	text19,global,reloc=2,class=CODE,delta=1
    38                           	psect	text20,global,reloc=2,class=CODE,delta=1
    39                           	psect	text21,global,reloc=2,class=CODE,delta=1
    40                           	psect	text22,global,reloc=2,class=CODE,delta=1
    41                           	psect	text23,global,reloc=2,class=CODE,delta=1
    42                           	psect	text24,global,reloc=2,class=CODE,delta=1
    43                           	psect	text25,global,reloc=2,class=CODE,delta=1
    44                           	psect	text26,global,reloc=2,class=CODE,delta=1
    45                           	psect	text27,global,reloc=2,class=CODE,delta=1
    46                           	psect	text28,global,reloc=2,class=CODE,delta=1
    47                           	psect	text29,global,reloc=2,class=CODE,delta=1
    48                           	psect	text30,global,reloc=2,class=CODE,delta=1
    49                           	psect	text31,global,reloc=2,class=CODE,delta=1
    50                           	psect	intsave_regs,global,class=BIGRAM,space=1,delta=1
    51                           	psect	rparam,global,class=COMRAM,space=1,delta=1
    52  0000                     
    53                           	psect	idataBANK0
    54  0065B6                     __pidataBANK0:
    55                           	opt stack 0
    56                           
    57                           ;initializer for _countup
    58  0065B6  0001               	dw	1
    59  0000                     _ADCON1bits	set	4033
    60  0000                     _CCP1CON	set	4029
    61  0000                     _CCP2CON	set	4026
    62  0000                     _CCPR1L	set	4030
    63  0000                     _CCPR2L	set	4027
    64  0000                     _OSCCONbits	set	4051
    65  0000                     _PIE1bits	set	3997
    66  0000                     _PIR1bits	set	3998
    67  0000                     _PORTA	set	3968
    68  0000                     _PORTAbits	set	3968
    69  0000                     _PORTB	set	3969
    70  0000                     _PORTBbits	set	3969
    71  0000                     _PORTC	set	3970
    72  0000                     _PORTD	set	3971
    73  0000                     _PORTDbits	set	3971
    74  0000                     _PORTE	set	3972
    75  0000                     _PR2	set	4043
    76  0000                     _T2CON	set	4042
    77  0000                     _T2CONbits	set	4042
    78  0000                     _TMR2	set	4044
    79  0000                     _TRISA	set	3986
    80  0000                     _TRISB	set	3987
    81  0000                     _TRISBbits	set	3987
    82  0000                     _TRISC	set	3988
    83  0000                     _TRISCbits	set	3988
    84  0000                     _TRISD	set	3989
    85  0000                     _TRISE	set	3990
    86                           
    87                           ; #config settings
    88  0000                     
    89                           	psect	cinit
    90  00669E                     __pcinit:
    91                           	opt stack 0
    92  00669E                     start_initialization:
    93                           	opt stack 0
    94  00669E                     __initialization:
    95                           	opt stack 0
    96                           
    97                           ; Clear objects allocated to BANK0 (4 bytes)
    98  00669E  0100               	movlb	0
    99  0066A0  6BF2               	clrf	(__pbssBANK0+3)& (0+255),b
   100  0066A2  6BF1               	clrf	(__pbssBANK0+2)& (0+255),b
   101  0066A4  6BF0               	clrf	(__pbssBANK0+1)& (0+255),b
   102  0066A6  6BEF               	clrf	__pbssBANK0& (0+255),b
   103                           
   104                           ; Clear objects allocated to COMRAM (1 bytes)
   105  0066A8  6A5F               	clrf	__pbssCOMRAM& (0+255),c
   106                           
   107                           ; Initialize objects allocated to BANK0 (2 bytes)
   108                           ; load TBLPTR registers with __pidataBANK0
   109  0066AA  0EB6               	movlw	low __pidataBANK0
   110  0066AC  6EF6               	movwf	tblptrl,c
   111  0066AE  0E65               	movlw	high __pidataBANK0
   112  0066B0  6EF7               	movwf	tblptrh,c
   113  0066B2  0E00               	movlw	low (__pidataBANK0 shr (0+16))
   114  0066B4  6EF8               	movwf	tblptru,c
   115  0066B6  0009               	tblrd		*+	;fetch initializer
   116  0066B8  CFF5 F0F3          	movff	tablat,__pdataBANK0
   117  0066BC  0009               	tblrd		*+	;fetch initializer
   118  0066BE  CFF5 F0F4          	movff	tablat,__pdataBANK0+1
   119  0066C2                     end_of_initialization:
   120                           	opt stack 0
   121  0066C2                     __end_of__initialization:
   122                           	opt stack 0
   123  0066C2  0100               	movlb	0
   124  0066C4  EF4B  F037         	goto	_main	;jump to C main() function
   125                           tblptru	equ	0xFF8
   126                           tblptrh	equ	0xFF7
   127                           tblptrl	equ	0xFF6
   128                           tablat	equ	0xFF5
   129                           
   130                           	psect	bssCOMRAM
   131  00005F                     __pbssCOMRAM:
   132                           	opt stack 0
   133  00005F                     _Timer2Config:
   134                           	opt stack 0
   135  00005F                     	ds	1
   136                           tblptru	equ	0xFF8
   137                           tblptrh	equ	0xFF7
   138                           tblptrl	equ	0xFF6
   139                           tablat	equ	0xFF5
   140                           
   141                           	psect	bssBANK0
   142  0000EF                     __pbssBANK0:
   143                           	opt stack 0
   144  0000EF                     _DutyCycle:
   145                           	opt stack 0
   146  0000EF                     	ds	2
   147  0000F1                     _i:
   148                           	opt stack 0
   149  0000F1                     	ds	2
   150                           tblptru	equ	0xFF8
   151                           tblptrh	equ	0xFF7
   152                           tblptrl	equ	0xFF6
   153                           tablat	equ	0xFF5
   154                           
   155                           	psect	dataBANK0
   156  0000F3                     __pdataBANK0:
   157                           	opt stack 0
   158  0000F3                     _countup:
   159                           	opt stack 0
   160  0000F3                     	ds	2
   161                           tblptru	equ	0xFF8
   162                           tblptrh	equ	0xFF7
   163                           tblptrl	equ	0xFF6
   164                           tablat	equ	0xFF5
   165                           
   166                           	psect	cstackBANK6
   167  000600                     __pcstackBANK6:
   168                           	opt stack 0
   169  000600                     fuzzy_system_single2@x:
   170                           	opt stack 0
   171  000600                     fuzzy_system_single1@x:
   172                           	opt stack 0
   173                           
   174                           ; 120 bytes @ 0x0
   175  000600                     	ds	120
   176  000678                     fuzzy_system_single2@y:
   177                           	opt stack 0
   178  000678                     fuzzy_system_single1@y:
   179                           	opt stack 0
   180                           
   181                           ; 120 bytes @ 0x78
   182  000678                     	ds	120
   183                           tblptru	equ	0xFF8
   184                           tblptrh	equ	0xFF7
   185                           tblptrl	equ	0xFF6
   186                           tablat	equ	0xFF5
   187                           
   188                           	psect	cstackBANK5
   189  000500                     __pcstackBANK5:
   190                           	opt stack 0
   191  000500                     fuzzy_system_single2@cons_mf3:
   192                           	opt stack 0
   193  000500                     fuzzy_system_single1@cons_mf3:
   194                           	opt stack 0
   195                           
   196                           ; 120 bytes @ 0x0
   197  000500                     	ds	120
   198  000578                     fuzzy_system_single2@overall_out_mf:
   199                           	opt stack 0
   200  000578                     fuzzy_system_single1@overall_out_mf:
   201                           	opt stack 0
   202                           
   203                           ; 120 bytes @ 0x78
   204  000578                     	ds	120
   205                           tblptru	equ	0xFF8
   206                           tblptrh	equ	0xFF7
   207                           tblptrl	equ	0xFF6
   208                           tablat	equ	0xFF5
   209                           
   210                           	psect	cstackBANK4
   211  000400                     __pcstackBANK4:
   212                           	opt stack 0
   213  000400                     fuzzy_system_single2@qualified_cons_mf3:
   214                           	opt stack 0
   215  000400                     fuzzy_system_single1@qualified_cons_mf3:
   216                           	opt stack 0
   217                           
   218                           ; 120 bytes @ 0x0
   219  000400                     	ds	120
   220  000478                     fuzzy_system_single2@qualified_cons_mf2:
   221                           	opt stack 0
   222  000478                     fuzzy_system_single1@qualified_cons_mf2:
   223                           	opt stack 0
   224                           
   225                           ; 120 bytes @ 0x78
   226  000478                     	ds	120
   227                           tblptru	equ	0xFF8
   228                           tblptrh	equ	0xFF7
   229                           tblptrl	equ	0xFF6
   230                           tablat	equ	0xFF5
   231                           
   232                           	psect	cstackBANK3
   233  000300                     __pcstackBANK3:
   234                           	opt stack 0
   235  000300                     fuzzy_system_single2@cons_mf1:
   236                           	opt stack 0
   237  000300                     fuzzy_system_single1@cons_mf1:
   238                           	opt stack 0
   239                           
   240                           ; 120 bytes @ 0x0
   241  000300                     	ds	120
   242  000378                     fuzzy_system_single2@qualified_cons_mf1:
   243                           	opt stack 0
   244  000378                     fuzzy_system_single1@qualified_cons_mf1:
   245                           	opt stack 0
   246                           
   247                           ; 120 bytes @ 0x78
   248  000378                     	ds	120
   249                           tblptru	equ	0xFF8
   250                           tblptrh	equ	0xFF7
   251                           tblptrl	equ	0xFF6
   252                           tablat	equ	0xFF5
   253                           
   254                           	psect	cstackBANK2
   255  000200                     __pcstackBANK2:
   256                           	opt stack 0
   257  000200                     fuzzy_system_single2@cons_mf2:
   258                           	opt stack 0
   259  000200                     fuzzy_system_single1@cons_mf2:
   260                           	opt stack 0
   261                           
   262                           ; 120 bytes @ 0x0
   263  000200                     	ds	120
   264  000278                     fuzzy_system_single2@ante_mf3:
   265                           	opt stack 0
   266  000278                     fuzzy_system_single1@ante_mf3:
   267                           	opt stack 0
   268                           
   269                           ; 120 bytes @ 0x78
   270  000278                     	ds	120
   271                           tblptru	equ	0xFF8
   272                           tblptrh	equ	0xFF7
   273                           tblptrl	equ	0xFF6
   274                           tablat	equ	0xFF5
   275                           
   276                           	psect	cstackBANK1
   277  000100                     __pcstackBANK1:
   278                           	opt stack 0
   279  000100                     fuzzy_system_single2@ante_mf1:
   280                           	opt stack 0
   281  000100                     fuzzy_system_single1@ante_mf1:
   282                           	opt stack 0
   283                           
   284                           ; 120 bytes @ 0x0
   285  000100                     	ds	120
   286  000178                     fuzzy_system_single2@ante_mf2:
   287                           	opt stack 0
   288  000178                     fuzzy_system_single1@ante_mf2:
   289                           	opt stack 0
   290                           
   291                           ; 120 bytes @ 0x78
   292  000178                     	ds	120
   293                           tblptru	equ	0xFF8
   294                           tblptrh	equ	0xFF7
   295                           tblptrl	equ	0xFF6
   296                           tablat	equ	0xFF5
   297                           
   298                           	psect	cstackBANK0
   299  000060                     __pcstackBANK0:
   300                           	opt stack 0
   301  000060                     tri_mf@temp:
   302                           	opt stack 0
   303                           
   304                           ; 120 bytes @ 0x0
   305  000060                     	ds	120
   306  0000D8                     tri_mf@i:
   307                           	opt stack 0
   308                           
   309                           ; 2 bytes @ 0x78
   310  0000D8                     	ds	2
   311  0000DA                     fuzzy_system_single2@output:
   312                           	opt stack 0
   313  0000DA                     fuzzy_system_single1@output:
   314                           	opt stack 0
   315                           
   316                           ; 3 bytes @ 0x7A
   317  0000DA                     	ds	3
   318  0000DD                     ??_main:
   319                           
   320                           ; 0 bytes @ 0x7D
   321  0000DD                     	ds	4
   322  0000E1                     main@a:
   323                           	opt stack 0
   324                           
   325                           ; 3 bytes @ 0x81
   326  0000E1                     	ds	3
   327  0000E4                     main@b:
   328                           	opt stack 0
   329                           
   330                           ; 3 bytes @ 0x84
   331  0000E4                     	ds	3
   332  0000E7                     _main$1523:
   333                           	opt stack 0
   334                           
   335                           ; 3 bytes @ 0x87
   336  0000E7                     	ds	3
   337  0000EA                     _main$1524:
   338                           	opt stack 0
   339                           
   340                           ; 3 bytes @ 0x8A
   341  0000EA                     	ds	3
   342  0000ED                     main@sensed:
   343                           	opt stack 0
   344                           
   345                           ; 2 bytes @ 0x8D
   346  0000ED                     	ds	2
   347                           tblptru	equ	0xFF8
   348                           tblptrh	equ	0xFF7
   349                           tblptrl	equ	0xFF6
   350                           tablat	equ	0xFF5
   351                           
   352                           	psect	cstackCOMRAM
   353  000001                     __pcstackCOMRAM:
   354                           	opt stack 0
   355  000001                     ??_OpenPWM2:
   356  000001                     ?_getCNY70Value:
   357                           	opt stack 0
   358  000001                     ?___wmul:
   359                           	opt stack 0
   360  000001                     ?___ftpack:
   361                           	opt stack 0
   362  000001                     ?___ftneg:
   363                           	opt stack 0
   364  000001                     OpenPWM1@period:
   365                           	opt stack 0
   366  000001                     SetDCPWM1@dutycycle:
   367                           	opt stack 0
   368  000001                     SetDCPWM2@dutycycle:
   369                           	opt stack 0
   370  000001                     ___wmul@multiplier:
   371                           	opt stack 0
   372  000001                     ___ftpack@arg:
   373                           	opt stack 0
   374  000001                     ___ftneg@f1:
   375                           	opt stack 0
   376                           
   377                           ; 3 bytes @ 0x0
   378  000001                     	ds	1
   379  000002                     PWM_init1@period:
   380                           	opt stack 0
   381  000002                     OpenPWM2@period:
   382                           	opt stack 0
   383                           
   384                           ; 1 bytes @ 0x1
   385  000002                     	ds	1
   386  000003                     ??_SetDCPWM1:
   387  000003                     ??_SetDCPWM2:
   388  000003                     OpenPWM2@ccp2mx:
   389                           	opt stack 0
   390  000003                     ___wmul@multiplicand:
   391                           	opt stack 0
   392                           
   393                           ; 2 bytes @ 0x2
   394  000003                     	ds	1
   395  000004                     PWM_init2@period:
   396                           	opt stack 0
   397  000004                     ___ftpack@exp:
   398                           	opt stack 0
   399                           
   400                           ; 1 bytes @ 0x3
   401  000004                     	ds	1
   402  000005                     ___ftpack@sign:
   403                           	opt stack 0
   404  000005                     SetDCPWM1@DCycle:
   405                           	opt stack 0
   406  000005                     SetDCPWM2@DCycle:
   407                           	opt stack 0
   408  000005                     ___wmul@product:
   409                           	opt stack 0
   410                           
   411                           ; 2 bytes @ 0x4
   412  000005                     	ds	1
   413  000006                     ??___ftpack:
   414                           
   415                           ; 0 bytes @ 0x5
   416  000006                     	ds	1
   417  000007                     ___ftge@ff1:
   418                           	opt stack 0
   419                           
   420                           ; 3 bytes @ 0x6
   421  000007                     	ds	2
   422  000009                     ?___awtoft:
   423                           	opt stack 0
   424  000009                     ?___lbtoft:
   425                           	opt stack 0
   426  000009                     ___awtoft@c:
   427                           	opt stack 0
   428                           
   429                           ; 2 bytes @ 0x8
   430  000009                     	ds	1
   431  00000A                     ___ftge@ff2:
   432                           	opt stack 0
   433                           
   434                           ; 3 bytes @ 0x9
   435  00000A                     	ds	2
   436  00000C                     ___awtoft@sign:
   437                           	opt stack 0
   438  00000C                     ___lbtoft@c:
   439                           	opt stack 0
   440                           
   441                           ; 1 bytes @ 0xB
   442  00000C                     	ds	1
   443  00000D                     ??___ftge:
   444  00000D                     ?___ftmul:
   445                           	opt stack 0
   446  00000D                     ___ftmul@f1:
   447                           	opt stack 0
   448                           
   449                           ; 3 bytes @ 0xC
   450  00000D                     	ds	3
   451  000010                     qualified@y:
   452                           	opt stack 0
   453  000010                     out_mf@result:
   454                           	opt stack 0
   455  000010                     ___ftmul@f2:
   456                           	opt stack 0
   457                           
   458                           ; 3 bytes @ 0xF
   459  000010                     	ds	2
   460  000012                     qualified@x:
   461                           	opt stack 0
   462  000012                     out_mf@x:
   463                           	opt stack 0
   464                           
   465                           ; 2 bytes @ 0x11
   466  000012                     	ds	1
   467  000013                     ??___ftmul:
   468                           
   469                           ; 0 bytes @ 0x12
   470  000013                     	ds	1
   471  000014                     out_mf@y:
   472                           	opt stack 0
   473  000014                     qualified@w:
   474                           	opt stack 0
   475                           
   476                           ; 3 bytes @ 0x13
   477  000014                     	ds	2
   478  000016                     ___ftmul@exp:
   479                           	opt stack 0
   480  000016                     out_mf@z:
   481                           	opt stack 0
   482                           
   483                           ; 2 bytes @ 0x15
   484  000016                     	ds	1
   485  000017                     qualified@min:
   486                           	opt stack 0
   487  000017                     ___ftmul@f3_as_product:
   488                           	opt stack 0
   489                           
   490                           ; 3 bytes @ 0x16
   491  000017                     	ds	1
   492  000018                     out_mf@i:
   493                           	opt stack 0
   494                           
   495                           ; 2 bytes @ 0x17
   496  000018                     	ds	2
   497  00001A                     ___ftmul@cntr:
   498                           	opt stack 0
   499  00001A                     qualified@i:
   500                           	opt stack 0
   501                           
   502                           ; 2 bytes @ 0x19
   503  00001A                     	ds	1
   504  00001B                     ___ftmul@sign:
   505                           	opt stack 0
   506                           
   507                           ; 1 bytes @ 0x1A
   508  00001B                     	ds	1
   509  00001C                     ?___ftadd:
   510                           	opt stack 0
   511  00001C                     ?___fttol:
   512                           	opt stack 0
   513  00001C                     ___ftadd@f1:
   514                           	opt stack 0
   515  00001C                     ___fttol@f1:
   516                           	opt stack 0
   517                           
   518                           ; 3 bytes @ 0x1B
   519  00001C                     	ds	3
   520  00001F                     ___ftadd@f2:
   521                           	opt stack 0
   522                           
   523                           ; 3 bytes @ 0x1E
   524  00001F                     	ds	1
   525  000020                     ??___fttol:
   526                           
   527                           ; 0 bytes @ 0x1F
   528  000020                     	ds	2
   529  000022                     ??___ftadd:
   530                           
   531                           ; 0 bytes @ 0x21
   532  000022                     	ds	3
   533  000025                     ___ftadd@sign:
   534                           	opt stack 0
   535  000025                     ___fttol@sign1:
   536                           	opt stack 0
   537                           
   538                           ; 1 bytes @ 0x24
   539  000025                     	ds	1
   540  000026                     ___ftadd@exp2:
   541                           	opt stack 0
   542  000026                     ___fttol@lval:
   543                           	opt stack 0
   544                           
   545                           ; 4 bytes @ 0x25
   546  000026                     	ds	1
   547  000027                     ___ftadd@exp1:
   548                           	opt stack 0
   549                           
   550                           ; 1 bytes @ 0x26
   551  000027                     	ds	1
   552  000028                     ?___ftdiv:
   553                           	opt stack 0
   554  000028                     ___ftdiv@f1:
   555                           	opt stack 0
   556                           
   557                           ; 3 bytes @ 0x27
   558  000028                     	ds	2
   559  00002A                     ___fttol@exp1:
   560                           	opt stack 0
   561                           
   562                           ; 1 bytes @ 0x29
   563  00002A                     	ds	1
   564  00002B                     ??_PWM_DutyCycle1:
   565  00002B                     ??_PWM_DutyCycle2:
   566  00002B                     ___ftdiv@f2:
   567                           	opt stack 0
   568                           
   569                           ; 3 bytes @ 0x2A
   570  00002B                     	ds	3
   571  00002E                     ??___ftdiv:
   572                           
   573                           ; 0 bytes @ 0x2D
   574  00002E                     	ds	1
   575  00002F                     PWM_DutyCycle1@DutyCycle:
   576                           	opt stack 0
   577  00002F                     PWM_DutyCycle2@DutyCycle:
   578                           	opt stack 0
   579                           
   580                           ; 2 bytes @ 0x2E
   581  00002F                     	ds	2
   582  000031                     PWM_DutyCycle1@percentageDuty:
   583                           	opt stack 0
   584  000031                     PWM_DutyCycle2@percentageDuty:
   585                           	opt stack 0
   586  000031                     ___ftdiv@cntr:
   587                           	opt stack 0
   588                           
   589                           ; 1 bytes @ 0x30
   590  000031                     	ds	1
   591  000032                     PWM_DutyCycle1@DC:
   592                           	opt stack 0
   593  000032                     PWM_DutyCycle2@DC:
   594                           	opt stack 0
   595  000032                     ___ftdiv@f3:
   596                           	opt stack 0
   597                           
   598                           ; 3 bytes @ 0x31
   599  000032                     	ds	2
   600  000034                     ??_mcu_init:
   601  000034                     go_back@m_left:
   602                           	opt stack 0
   603                           
   604                           ; 1 bytes @ 0x33
   605  000034                     	ds	1
   606  000035                     go_back@m_right:
   607                           	opt stack 0
   608  000035                     ___ftdiv@exp:
   609                           	opt stack 0
   610  000035                     mcu_init@i:
   611                           	opt stack 0
   612                           
   613                           ; 2 bytes @ 0x34
   614  000035                     	ds	1
   615  000036                     ___ftdiv@sign:
   616                           	opt stack 0
   617                           
   618                           ; 1 bytes @ 0x35
   619  000036                     	ds	1
   620  000037                     ?_triangular:
   621                           	opt stack 0
   622  000037                     ?_defuzzy:
   623                           	opt stack 0
   624  000037                     linspace@x:
   625                           	opt stack 0
   626  000037                     defuzzy@x:
   627                           	opt stack 0
   628  000037                     triangular@a:
   629                           	opt stack 0
   630                           
   631                           ; 3 bytes @ 0x36
   632  000037                     	ds	2
   633  000039                     defuzzy@mf:
   634                           	opt stack 0
   635  000039                     linspace@start:
   636                           	opt stack 0
   637                           
   638                           ; 3 bytes @ 0x38
   639  000039                     	ds	1
   640  00003A                     triangular@b:
   641                           	opt stack 0
   642                           
   643                           ; 3 bytes @ 0x39
   644  00003A                     	ds	1
   645  00003B                     defuzzy@out:
   646                           	opt stack 0
   647                           
   648                           ; 3 bytes @ 0x3A
   649  00003B                     	ds	1
   650  00003C                     linspace@end:
   651                           	opt stack 0
   652                           
   653                           ; 3 bytes @ 0x3B
   654  00003C                     	ds	1
   655  00003D                     triangular@c:
   656                           	opt stack 0
   657                           
   658                           ; 3 bytes @ 0x3C
   659  00003D                     	ds	1
   660  00003E                     defuzzy@sum1:
   661                           	opt stack 0
   662                           
   663                           ; 3 bytes @ 0x3D
   664  00003E                     	ds	1
   665  00003F                     linspace@size:
   666                           	opt stack 0
   667                           
   668                           ; 2 bytes @ 0x3E
   669  00003F                     	ds	1
   670  000040                     triangular@x:
   671                           	opt stack 0
   672                           
   673                           ; 3 bytes @ 0x3F
   674  000040                     	ds	1
   675  000041                     ??_linspace:
   676  000041                     defuzzy@sum2:
   677                           	opt stack 0
   678                           
   679                           ; 3 bytes @ 0x40
   680  000041                     	ds	2
   681  000043                     linspace@i:
   682                           	opt stack 0
   683  000043                     triangular@ux:
   684                           	opt stack 0
   685                           
   686                           ; 3 bytes @ 0x42
   687  000043                     	ds	1
   688  000044                     defuzzy@i:
   689                           	opt stack 0
   690                           
   691                           ; 2 bytes @ 0x43
   692  000044                     	ds	2
   693  000046                     tri_mf@t_value:
   694                           	opt stack 0
   695                           
   696                           ; 2 bytes @ 0x45
   697  000046                     	ds	2
   698  000048                     tri_mf@x:
   699                           	opt stack 0
   700                           
   701                           ; 2 bytes @ 0x47
   702  000048                     	ds	2
   703  00004A                     tri_mf@a:
   704                           	opt stack 0
   705                           
   706                           ; 3 bytes @ 0x49
   707  00004A                     	ds	3
   708  00004D                     tri_mf@b:
   709                           	opt stack 0
   710                           
   711                           ; 3 bytes @ 0x4C
   712  00004D                     	ds	3
   713  000050                     tri_mf@c:
   714                           	opt stack 0
   715                           
   716                           ; 3 bytes @ 0x4F
   717  000050                     	ds	3
   718  000053                     ?_fuzzy_system_single1:
   719                           	opt stack 0
   720  000053                     ?_fuzzy_system_single2:
   721                           	opt stack 0
   722  000053                     fuzzy_system_single2@input:
   723                           	opt stack 0
   724  000053                     fuzzy_system_single1@input:
   725                           	opt stack 0
   726                           
   727                           ; 3 bytes @ 0x52
   728  000053                     	ds	3
   729  000056                     fuzzy_system_single2@w1:
   730                           	opt stack 0
   731  000056                     fuzzy_system_single1@w1:
   732                           	opt stack 0
   733                           
   734                           ; 3 bytes @ 0x55
   735  000056                     	ds	3
   736  000059                     fuzzy_system_single2@w2:
   737                           	opt stack 0
   738  000059                     fuzzy_system_single1@w2:
   739                           	opt stack 0
   740                           
   741                           ; 3 bytes @ 0x58
   742  000059                     	ds	3
   743  00005C                     fuzzy_system_single2@w3:
   744                           	opt stack 0
   745  00005C                     fuzzy_system_single1@w3:
   746                           	opt stack 0
   747                           
   748                           ; 3 bytes @ 0x5B
   749  00005C                     	ds	3
   750                           tblptru	equ	0xFF8
   751                           tblptrh	equ	0xFF7
   752                           tblptrl	equ	0xFF6
   753                           tablat	equ	0xFF5
   754                           
   755 ;;
   756 ;;Main: autosize = 0, tempsize = 4, incstack = 0, save=0
   757 ;;
   758 ;; *************** function _main *****************
   759 ;; Defined at:
   760 ;;		line 25 in file "main.c"
   761 ;; Parameters:    Size  Location     Type
   762 ;;		None
   763 ;; Auto vars:     Size  Location     Type
   764 ;;  b               3  132[BANK0 ] PTR 
   765 ;;  a               3  129[BANK0 ] PTR 
   766 ;;  sensed          2  141[BANK0 ] int 
   767 ;; Return value:  Size  Location     Type
   768 ;;                  2   24[COMRAM] int 
   769 ;; Registers used:
   770 ;;		wreg, fsr1l, fsr1h, fsr2l, fsr2h, status,2, status,0, tblptrl, tblptrh, tblptru, prodl, prodh, cstack
   771 ;; Tracked objects:
   772 ;;		On entry : 0/0
   773 ;;		On exit  : 0/0
   774 ;;		Unchanged: 0/0
   775 ;; Data sizes:     COMRAM   BANK0   BANK1   BANK2   BANK3   BANK4   BANK5   BANK6   BANK7
   776 ;;      Params:         0       0       0       0       0       0       0       0       0
   777 ;;      Locals:         0      14       0       0       0       0       0       0       0
   778 ;;      Temps:          0       4       0       0       0       0       0       0       0
   779 ;;      Totals:         0      18       0       0       0       0       0       0       0
   780 ;;Total ram usage:       18 bytes
   781 ;; Hardware stack levels required when called:    5
   782 ;; This function calls:
   783 ;;		_PWM_DutyCycle1
   784 ;;		_PWM_DutyCycle2
   785 ;;		___awtoft
   786 ;;		___fttol
   787 ;;		_fuzzy_system_single1
   788 ;;		_fuzzy_system_single2
   789 ;;		_getCNY70Value
   790 ;;		_go_back
   791 ;;		_mcu_init
   792 ;;		_motor_forward
   793 ;; This function is called by:
   794 ;;		Startup code after reset
   795 ;; This function uses a non-reentrant model
   796 ;;
   797                           
   798                           	psect	text0
   799  006E96                     __ptext0:
   800                           	opt stack 0
   801  006E96                     _main:
   802                           	opt stack 26
   803                           
   804                           ;main.c: 28: mcu_init();
   805                           
   806                           ;incstack = 0
   807  006E96  EC91  F034         	call	_mcu_init	;wreg free
   808                           
   809                           ;main.c: 29: ADCON1bits.PCFG=0b1111;
   810  006E9A  80C1               	bsf	4033,0,c	;volatile
   811  006E9C  82C1               	bsf	4033,1,c	;volatile
   812  006E9E  84C1               	bsf	4033,2,c	;volatile
   813  006EA0  86C1               	bsf	4033,3,c	;volatile
   814                           
   815                           ;main.c: 30: PORTAbits.RA0 = 1;
   816  006EA2  8080               	bsf	3968,0,c	;volatile
   817  006EA4                     l2661:
   818                           
   819                           ;main.c: 34: double a, b;
   820                           ;main.c: 35: int sensed;
   821                           ;main.c: 38: sensed = getCNY70Value();
   822  006EA4  EC34  F035         	call	_getCNY70Value	;wreg free
   823  006EA8  C001  F0ED         	movff	?_getCNY70Value,main@sensed
   824  006EAC  C002  F0EE         	movff	?_getCNY70Value+1,main@sensed+1
   825                           
   826                           ;main.c: 39: a = fuzzy_system_single1(sensed);
   827  006EB0  C0ED  F009         	movff	main@sensed,___awtoft@c
   828  006EB4  C0EE  F00A         	movff	main@sensed+1,___awtoft@c+1
   829  006EB8  ECBB  F033         	call	___awtoft	;wreg free
   830  006EBC  C009  F0E7         	movff	?___awtoft,_main$1523
   831  006EC0  C00A  F0E8         	movff	?___awtoft+1,_main$1523+1
   832  006EC4  C00B  F0E9         	movff	?___awtoft+2,_main$1523+2
   833                           
   834                           ;main.c: 39: a = fuzzy_system_single1(sensed);
   835  006EC8  C0E7  F053         	movff	_main$1523,fuzzy_system_single1@input
   836  006ECC  C0E8  F054         	movff	_main$1523+1,fuzzy_system_single1@input+1
   837  006ED0  C0E9  F055         	movff	_main$1523+2,fuzzy_system_single1@input+2
   838  006ED4  EC7E  F03C         	call	_fuzzy_system_single1	;wreg free
   839  006ED8  C053  F0E1         	movff	?_fuzzy_system_single1,main@a
   840  006EDC  C054  F0E2         	movff	?_fuzzy_system_single1+1,main@a+1
   841  006EE0  C055  F0E3         	movff	?_fuzzy_system_single1+2,main@a+2
   842                           
   843                           ;main.c: 40: b = fuzzy_system_single2(sensed);
   844  006EE4  C0ED  F009         	movff	main@sensed,___awtoft@c
   845  006EE8  C0EE  F00A         	movff	main@sensed+1,___awtoft@c+1
   846  006EEC  ECBB  F033         	call	___awtoft	;wreg free
   847  006EF0  C009  F0EA         	movff	?___awtoft,_main$1524
   848  006EF4  C00A  F0EB         	movff	?___awtoft+1,_main$1524+1
   849  006EF8  C00B  F0EC         	movff	?___awtoft+2,_main$1524+2
   850                           
   851                           ;main.c: 40: b = fuzzy_system_single2(sensed);
   852  006EFC  C0EA  F053         	movff	_main$1524,fuzzy_system_single2@input
   853  006F00  C0EB  F054         	movff	_main$1524+1,fuzzy_system_single2@input+1
   854  006F04  C0EC  F055         	movff	_main$1524+2,fuzzy_system_single2@input+2
   855  006F08  EC3F  F03E         	call	_fuzzy_system_single2	;wreg free
   856  006F0C  C053  F0E4         	movff	?_fuzzy_system_single2,main@b
   857  006F10  C054  F0E5         	movff	?_fuzzy_system_single2+1,main@b+1
   858  006F14  C055  F0E6         	movff	?_fuzzy_system_single2+2,main@b+2
   859                           
   860                           ;main.c: 42: if(PORTBbits.RB2 == 1 && PORTBbits.RB3 == 1 && PORTBbits.RB0 == 1 && PORTBb
      +                          its.RB4 == 1 && PORTBbits.RB1 == 1){
   861  006F18  B481               	btfsc	3969,2,c	;volatile
   862  006F1A  A681               	btfss	3969,3,c	;volatile
   863  006F1C  D00B               	goto	l2683
   864  006F1E  B081               	btfsc	3969,0,c	;volatile
   865  006F20  A881               	btfss	3969,4,c	;volatile
   866  006F22  D008               	goto	l2683
   867  006F24  A281               	btfss	3969,1,c	;volatile
   868  006F26  D006               	goto	l2683
   869                           
   870                           ;main.c: 43: go_back(100,100);
   871  006F28  0E64               	movlw	100
   872  006F2A  6E34               	movwf	go_back@m_left,c
   873  006F2C  0E64               	movlw	100
   874  006F2E  ECEF  F032         	call	_go_back
   875                           
   876                           ;main.c: 44: }
   877  006F32  D7B8               	goto	l2661
   878  006F34                     l2683:
   879                           
   880                           ;main.c: 45: else{
   881                           ;main.c: 46: motor_forward();
   882  006F34  ECE1  F032         	call	_motor_forward	;wreg free
   883                           
   884                           ;main.c: 47: PWM_DutyCycle1(a);
   885  006F38  C0E1  F01C         	movff	main@a,___fttol@f1
   886  006F3C  C0E2  F01D         	movff	main@a+1,___fttol@f1+1
   887  006F40  C0E3  F01E         	movff	main@a+2,___fttol@f1+2
   888  006F44  EC90  F035         	call	___fttol	;wreg free
   889  006F48  C01C  F0DD         	movff	?___fttol,??_main
   890  006F4C  C01D  F0DE         	movff	?___fttol+1,??_main+1
   891  006F50  C01E  F0DF         	movff	?___fttol+2,??_main+2
   892  006F54  C01F  F0E0         	movff	?___fttol+3,??_main+3
   893  006F58  0100               	movlb	0	; () banked
   894  006F5A  51DD               	movf	??_main& (0+255),w,b
   895  006F5C  ECDF  F033         	call	_PWM_DutyCycle1
   896                           
   897                           ;main.c: 48: PWM_DutyCycle2(b);
   898  006F60  C0E4  F01C         	movff	main@b,___fttol@f1
   899  006F64  C0E5  F01D         	movff	main@b+1,___fttol@f1+1
   900  006F68  C0E6  F01E         	movff	main@b+2,___fttol@f1+2
   901  006F6C  EC90  F035         	call	___fttol	;wreg free
   902  006F70  C01C  F0DD         	movff	?___fttol,??_main
   903  006F74  C01D  F0DE         	movff	?___fttol+1,??_main+1
   904  006F78  C01E  F0DF         	movff	?___fttol+2,??_main+2
   905  006F7C  C01F  F0E0         	movff	?___fttol+3,??_main+3
   906  006F80  0100               	movlb	0	; () banked
   907  006F82  51DD               	movf	??_main& (0+255),w,b
   908  006F84  EC14  F034         	call	_PWM_DutyCycle2
   909  006F88  D78D               	goto	l2661
   910  006F8A                     __end_of_main:
   911                           	opt stack 0
   912                           tblptru	equ	0xFF8
   913                           tblptrh	equ	0xFF7
   914                           tblptrl	equ	0xFF6
   915                           tablat	equ	0xFF5
   916                           
   917 ;; *************** function _motor_forward *****************
   918 ;; Defined at:
   919 ;;		line 47 in file "motor.c"
   920 ;; Parameters:    Size  Location     Type
   921 ;;		None
   922 ;; Auto vars:     Size  Location     Type
   923 ;;		None
   924 ;; Return value:  Size  Location     Type
   925 ;;		None               void
   926 ;; Registers used:
   927 ;;		None
   928 ;; Tracked objects:
   929 ;;		On entry : 0/0
   930 ;;		On exit  : 0/0
   931 ;;		Unchanged: 0/0
   932 ;; Data sizes:     COMRAM   BANK0   BANK1   BANK2   BANK3   BANK4   BANK5   BANK6   BANK7
   933 ;;      Params:         0       0       0       0       0       0       0       0       0
   934 ;;      Locals:         0       0       0       0       0       0       0       0       0
   935 ;;      Temps:          0       0       0       0       0       0       0       0       0
   936 ;;      Totals:         0       0       0       0       0       0       0       0       0
   937 ;;Total ram usage:        0 bytes
   938 ;; Hardware stack levels used:    1
   939 ;; This function calls:
   940 ;;		Nothing
   941 ;; This function is called by:
   942 ;;		_main
   943 ;;		_go_straight
   944 ;; This function uses a non-reentrant model
   945 ;;
   946                           
   947                           	psect	text1
   948  0065C2                     __ptext1:
   949                           	opt stack 0
   950  0065C2                     _motor_forward:
   951                           	opt stack 30
   952                           
   953                           ;motor.c: 49: PORTDbits.RD7 = 1;
   954                           
   955                           ;incstack = 0
   956  0065C2  8E83               	bsf	3971,7,c	;volatile
   957                           
   958                           ;motor.c: 50: PORTDbits.RD4 = 0;
   959  0065C4  9883               	bcf	3971,4,c	;volatile
   960                           
   961                           ;motor.c: 51: PORTDbits.RD2 = 1;
   962  0065C6  8483               	bsf	3971,2,c	;volatile
   963                           
   964                           ;motor.c: 52: PORTDbits.RD3 = 0;
   965  0065C8  9683               	bcf	3971,3,c	;volatile
   966                           
   967                           ;motor.c: 54: return;
   968  0065CA  0012               	return	
   969  0065CC                     __end_of_motor_forward:
   970                           	opt stack 0
   971                           tblptru	equ	0xFF8
   972                           tblptrh	equ	0xFF7
   973                           tblptrl	equ	0xFF6
   974                           tablat	equ	0xFF5
   975                           
   976 ;; *************** function _mcu_init *****************
   977 ;; Defined at:
   978 ;;		line 14 in file "funciones.c"
   979 ;; Parameters:    Size  Location     Type
   980 ;;		None
   981 ;; Auto vars:     Size  Location     Type
   982 ;;  i               2   52[COMRAM] int 
   983 ;; Return value:  Size  Location     Type
   984 ;;                  2    2[COMRAM] int 
   985 ;; Registers used:
   986 ;;		wreg, status,2, status,0, tblptrl, tblptrh, tblptru, cstack
   987 ;; Tracked objects:
   988 ;;		On entry : 0/0
   989 ;;		On exit  : 0/0
   990 ;;		Unchanged: 0/0
   991 ;; Data sizes:     COMRAM   BANK0   BANK1   BANK2   BANK3   BANK4   BANK5   BANK6   BANK7
   992 ;;      Params:         0       0       0       0       0       0       0       0       0
   993 ;;      Locals:         2       0       0       0       0       0       0       0       0
   994 ;;      Temps:          1       0       0       0       0       0       0       0       0
   995 ;;      Totals:         3       0       0       0       0       0       0       0       0
   996 ;;Total ram usage:        3 bytes
   997 ;; Hardware stack levels used:    1
   998 ;; Hardware stack levels required when called:    3
   999 ;; This function calls:
  1000 ;;		_PWM_DutyCycle1
  1001 ;;		_PWM_DutyCycle2
  1002 ;;		_PWM_init1
  1003 ;;		_PWM_init2
  1004 ;; This function is called by:
  1005 ;;		_main
  1006 ;; This function uses a non-reentrant model
  1007 ;;
  1008                           
  1009                           	psect	text2
  1010  006922                     __ptext2:
  1011                           	opt stack 0
  1012  006922                     _mcu_init:
  1013                           	opt stack 27
  1014                           
  1015                           ;funciones.c: 16: TRISA=TRISB=TRISC=TRISD=TRISE=0;
  1016                           
  1017                           ;incstack = 0
  1018  006922  0E00               	movlw	0
  1019  006924  6E96               	movwf	3990,c	;volatile
  1020  006926  CF96 FF95          	movff	3990,3989	;volatile
  1021  00692A  CF95 FF94          	movff	3989,3988	;volatile
  1022  00692E  CF94 FF93          	movff	3988,3987	;volatile
  1023  006932  CF93 FF92          	movff	3987,3986	;volatile
  1024                           
  1025                           ;funciones.c: 17: PORTA=PORTB=PORTC=PORTD=PORTE=0;
  1026  006936  0E00               	movlw	0
  1027  006938  6E84               	movwf	3972,c	;volatile
  1028  00693A  CF84 FF83          	movff	3972,3971	;volatile
  1029  00693E  CF83 FF82          	movff	3971,3970	;volatile
  1030  006942  CF82 FF81          	movff	3970,3969	;volatile
  1031  006946  CF81 FF80          	movff	3969,3968	;volatile
  1032                           
  1033                           ;funciones.c: 21: int i = 0;
  1034  00694A  0E00               	movlw	0
  1035  00694C  6E36               	movwf	mcu_init@i+1,c
  1036  00694E  0E00               	movlw	0
  1037  006950  6E35               	movwf	mcu_init@i,c
  1038                           
  1039                           ;funciones.c: 22: _delay((unsigned long)((40)*(8000000/4000.0)));
  1040  006952  0E68               	movlw	104
  1041  006954  6E34               	movwf	??_mcu_init& (0+255),c
  1042  006956  0EE4               	movlw	228
  1043  006958                     u3017:
  1044  006958  2EE8               	decfsz	wreg,f,c
  1045  00695A  D7FE               	goto	u3017
  1046  00695C  2E34               	decfsz	??_mcu_init& (0+255),f,c
  1047  00695E  D7FC               	goto	u3017
  1048  006960  D000               	nop2	
  1049                           
  1050                           ;funciones.c: 23: OSCCONbits.IRCF = 0b111;
  1051  006962  88D3               	bsf	4051,4,c	;volatile
  1052  006964  8AD3               	bsf	4051,5,c	;volatile
  1053  006966  8CD3               	bsf	4051,6,c	;volatile
  1054                           
  1055                           ;funciones.c: 28: TRISA = TRISB = TRISC = TRISD = TRISE = 0;
  1056  006968  0E00               	movlw	0
  1057  00696A  6E96               	movwf	3990,c	;volatile
  1058  00696C  CF96 FF95          	movff	3990,3989	;volatile
  1059  006970  CF95 FF94          	movff	3989,3988	;volatile
  1060  006974  CF94 FF93          	movff	3988,3987	;volatile
  1061  006978  CF93 FF92          	movff	3987,3986	;volatile
  1062                           
  1063                           ;funciones.c: 29: PORTA = PORTB = PORTC = PORTD = PORTE = 0;
  1064  00697C  0E00               	movlw	0
  1065  00697E  6E84               	movwf	3972,c	;volatile
  1066  006980  CF84 FF83          	movff	3972,3971	;volatile
  1067  006984  CF83 FF82          	movff	3971,3970	;volatile
  1068  006988  CF82 FF81          	movff	3970,3969	;volatile
  1069  00698C  CF81 FF80          	movff	3969,3968	;volatile
  1070                           
  1071                           ;funciones.c: 30: TRISCbits.TRISC7 = 1;
  1072  006990  8E94               	bsf	3988,7,c	;volatile
  1073                           
  1074                           ;funciones.c: 31: TRISCbits.TRISC6 = 0;
  1075  006992  9C94               	bcf	3988,6,c	;volatile
  1076                           
  1077                           ;funciones.c: 34: PORTE = 0;
  1078  006994  0E00               	movlw	0
  1079  006996  6E84               	movwf	3972,c	;volatile
  1080                           
  1081                           ;funciones.c: 35: PORTB = 0;
  1082  006998  0E00               	movlw	0
  1083  00699A  6E81               	movwf	3969,c	;volatile
  1084                           
  1085                           ;funciones.c: 36: TRISBbits.TRISB0 = 1;
  1086  00699C  8093               	bsf	3987,0,c	;volatile
  1087                           
  1088                           ;funciones.c: 37: TRISBbits.TRISB1 = 1;
  1089  00699E  8293               	bsf	3987,1,c	;volatile
  1090                           
  1091                           ;funciones.c: 38: TRISBbits.TRISB2 = 1;
  1092  0069A0  8493               	bsf	3987,2,c	;volatile
  1093                           
  1094                           ;funciones.c: 39: TRISBbits.TRISB3 = 1;
  1095  0069A2  8693               	bsf	3987,3,c	;volatile
  1096                           
  1097                           ;funciones.c: 40: TRISBbits.TRISB4 = 1;
  1098  0069A4  8893               	bsf	3987,4,c	;volatile
  1099                           
  1100                           ;funciones.c: 46: PWM_init1(0xff);
  1101  0069A6  0EFF               	movlw	255
  1102  0069A8  ECF9  F032         	call	_PWM_init1
  1103                           
  1104                           ;funciones.c: 47: PWM_init2(0xff);
  1105  0069AC  0EFF               	movlw	255
  1106  0069AE  EC08  F033         	call	_PWM_init2
  1107                           
  1108                           ;funciones.c: 48: PWM_DutyCycle1(0);
  1109  0069B2  0E00               	movlw	0
  1110  0069B4  ECDF  F033         	call	_PWM_DutyCycle1
  1111                           
  1112                           ;funciones.c: 49: PWM_DutyCycle2(0);
  1113  0069B8  0E00               	movlw	0
  1114  0069BA  EC14  F034         	call	_PWM_DutyCycle2
  1115                           
  1116                           ;funciones.c: 52: return;
  1117  0069BE  0012               	return	
  1118  0069C0                     __end_of_mcu_init:
  1119                           	opt stack 0
  1120                           tblptru	equ	0xFF8
  1121                           tblptrh	equ	0xFF7
  1122                           tblptrl	equ	0xFF6
  1123                           tablat	equ	0xFF5
  1124                           wreg	equ	0xFE8
  1125                           
  1126 ;; *************** function _PWM_init2 *****************
  1127 ;; Defined at:
  1128 ;;		line 42 in file "pwm.c"
  1129 ;; Parameters:    Size  Location     Type
  1130 ;;  period          1    wreg     unsigned char 
  1131 ;; Auto vars:     Size  Location     Type
  1132 ;;  period          1    3[COMRAM] unsigned char 
  1133 ;; Return value:  Size  Location     Type
  1134 ;;		None               void
  1135 ;; Registers used:
  1136 ;;		wreg, status,2, status,0, tblptrl, tblptrh, tblptru, cstack
  1137 ;; Tracked objects:
  1138 ;;		On entry : 0/0
  1139 ;;		On exit  : 0/0
  1140 ;;		Unchanged: 0/0
  1141 ;; Data sizes:     COMRAM   BANK0   BANK1   BANK2   BANK3   BANK4   BANK5   BANK6   BANK7
  1142 ;;      Params:         0       0       0       0       0       0       0       0       0
  1143 ;;      Locals:         1       0       0       0       0       0       0       0       0
  1144 ;;      Temps:          0       0       0       0       0       0       0       0       0
  1145 ;;      Totals:         1       0       0       0       0       0       0       0       0
  1146 ;;Total ram usage:        1 bytes
  1147 ;; Hardware stack levels used:    1
  1148 ;; Hardware stack levels required when called:    1
  1149 ;; This function calls:
  1150 ;;		_OpenPWM2
  1151 ;; This function is called by:
  1152 ;;		_mcu_init
  1153 ;; This function uses a non-reentrant model
  1154 ;;
  1155                           
  1156                           	psect	text3
  1157  006610                     __ptext3:
  1158                           	opt stack 0
  1159  006610                     _PWM_init2:
  1160                           	opt stack 28
  1161                           
  1162                           ;incstack = 0
  1163                           ;PWM_init2@period stored from wreg
  1164  006610  6E04               	movwf	PWM_init2@period,c
  1165                           
  1166                           ;pwm.c: 43: Timer2Config = 0b11111110;
  1167  006612  0EFE               	movlw	254
  1168  006614  6E5F               	movwf	_Timer2Config,c
  1169                           
  1170                           ;pwm.c: 44: T2CON = (0xfb & Timer2Config);
  1171  006616  505F               	movf	_Timer2Config,w,c
  1172  006618  0BFB               	andlw	251
  1173  00661A  6ECA               	movwf	4042,c	;volatile
  1174                           
  1175                           ;pwm.c: 47: TMR2 = 0;
  1176  00661C  0E00               	movlw	0
  1177  00661E  6ECC               	movwf	4044,c	;volatile
  1178                           
  1179                           ;pwm.c: 48: PIR1bits.TMR2IF = 0;
  1180  006620  929E               	bcf	3998,1,c	;volatile
  1181                           
  1182                           ;pwm.c: 49: PIE1bits.TMR2IE = 0;
  1183  006622  929D               	bcf	3997,1,c	;volatile
  1184                           
  1185                           ;pwm.c: 50: T2CONbits.TMR2ON = 1;
  1186  006624  84CA               	bsf	4042,2,c	;volatile
  1187                           
  1188                           ;pwm.c: 51: OpenPWM2(period);
  1189  006626  5004               	movf	PWM_init2@period,w,c
  1190  006628  EC9E  F033         	call	_OpenPWM2
  1191                           
  1192                           ;pwm.c: 53: return;
  1193  00662C  0012               	return	
  1194  00662E                     __end_of_PWM_init2:
  1195                           	opt stack 0
  1196                           tblptru	equ	0xFF8
  1197                           tblptrh	equ	0xFF7
  1198                           tblptrl	equ	0xFF6
  1199                           tablat	equ	0xFF5
  1200                           wreg	equ	0xFE8
  1201                           
  1202 ;; *************** function _OpenPWM2 *****************
  1203 ;; Defined at:
  1204 ;;		line 18 in file "C:\Program Files\Microchip\xc8\v1.33\sources\pic18\plib\PWM\pw2open.c"
  1205 ;; Parameters:    Size  Location     Type
  1206 ;;  period          1    wreg     unsigned char 
  1207 ;; Auto vars:     Size  Location     Type
  1208 ;;  period          1    1[COMRAM] unsigned char 
  1209 ;;  ccp2mx          1    2[COMRAM] unsigned char 
  1210 ;;  pmmode          1    0        unsigned char 
  1211 ;; Return value:  Size  Location     Type
  1212 ;;		None               void
  1213 ;; Registers used:
  1214 ;;		wreg, status,2, tblptrl, tblptrh, tblptru
  1215 ;; Tracked objects:
  1216 ;;		On entry : 0/0
  1217 ;;		On exit  : 0/0
  1218 ;;		Unchanged: 0/0
  1219 ;; Data sizes:     COMRAM   BANK0   BANK1   BANK2   BANK3   BANK4   BANK5   BANK6   BANK7
  1220 ;;      Params:         0       0       0       0       0       0       0       0       0
  1221 ;;      Locals:         2       0       0       0       0       0       0       0       0
  1222 ;;      Temps:          1       0       0       0       0       0       0       0       0
  1223 ;;      Totals:         3       0       0       0       0       0       0       0       0
  1224 ;;Total ram usage:        3 bytes
  1225 ;; Hardware stack levels used:    1
  1226 ;; This function calls:
  1227 ;;		Nothing
  1228 ;; This function is called by:
  1229 ;;		_PWM_init2
  1230 ;; This function uses a non-reentrant model
  1231 ;;
  1232                           
  1233                           	psect	text4
  1234  00673C                     __ptext4:
  1235                           	opt stack 0
  1236  00673C                     _OpenPWM2:
  1237                           	opt stack 28
  1238                           
  1239                           ;incstack = 0
  1240                           ;OpenPWM2@period stored from wreg
  1241  00673C  6E02               	movwf	OpenPWM2@period,c
  1242  00673E  0E0C               	movlw	12
  1243  006740  6EBA               	movwf	4026,c	;volatile
  1244  006742  0E05               	movlw	5
  1245  006744  6EF6               	movwf	tblptrl,c
  1246  006746                     	if	1	;There is more than 1 active tblptr byte
  1247  006746  0E00               	movlw	0
  1248  006748  6EF7               	movwf	tblptrh,c
  1249  00674A                     	endif
  1250  00674A                     	if	1	;There are 3 active tblptr bytes
  1251  00674A  0E30               	movlw	48
  1252  00674C  6EF8               	movwf	tblptru,c
  1253  00674E                     	endif
  1254  00674E  0008               	tblrd		*
  1255  006750  CFF5 F001          	movff	tablat,??_OpenPWM2
  1256  006754  A001               	btfss	??_OpenPWM2,0,c
  1257  006756  D002               	goto	l2081
  1258  006758  6803               	setf	OpenPWM2@ccp2mx,c
  1259  00675A  D002               	goto	l297
  1260  00675C                     l2081:
  1261  00675C  0E00               	movlw	0
  1262  00675E  6E03               	movwf	OpenPWM2@ccp2mx,c
  1263  006760                     l297:
  1264  006760  5003               	movf	OpenPWM2@ccp2mx,w,c
  1265  006762  B4D8               	btfsc	status,2,c
  1266  006764  D002               	goto	l298
  1267  006766  9294               	bcf	3988,1,c	;volatile
  1268  006768  D001               	goto	l299
  1269  00676A                     l298:
  1270  00676A  9693               	bcf	3987,3,c	;volatile
  1271  00676C                     l299:
  1272  00676C  94CA               	bcf	4042,2,c	;volatile
  1273  00676E  C002  FFCB         	movff	OpenPWM2@period,4043	;volatile
  1274  006772  84CA               	bsf	4042,2,c	;volatile
  1275  006774  0012               	return	
  1276  006776                     __end_of_OpenPWM2:
  1277                           	opt stack 0
  1278                           tblptru	equ	0xFF8
  1279                           tblptrh	equ	0xFF7
  1280                           tblptrl	equ	0xFF6
  1281                           tablat	equ	0xFF5
  1282                           wreg	equ	0xFE8
  1283                           status	equ	0xFD8
  1284                           
  1285 ;; *************** function _PWM_init1 *****************
  1286 ;; Defined at:
  1287 ;;		line 20 in file "pwm.c"
  1288 ;; Parameters:    Size  Location     Type
  1289 ;;  period          1    wreg     unsigned char 
  1290 ;; Auto vars:     Size  Location     Type
  1291 ;;  period          1    1[COMRAM] unsigned char 
  1292 ;; Return value:  Size  Location     Type
  1293 ;;		None               void
  1294 ;; Registers used:
  1295 ;;		wreg, status,2, status,0, cstack
  1296 ;; Tracked objects:
  1297 ;;		On entry : 0/0
  1298 ;;		On exit  : 0/0
  1299 ;;		Unchanged: 0/0
  1300 ;; Data sizes:     COMRAM   BANK0   BANK1   BANK2   BANK3   BANK4   BANK5   BANK6   BANK7
  1301 ;;      Params:         0       0       0       0       0       0       0       0       0
  1302 ;;      Locals:         1       0       0       0       0       0       0       0       0
  1303 ;;      Temps:          0       0       0       0       0       0       0       0       0
  1304 ;;      Totals:         1       0       0       0       0       0       0       0       0
  1305 ;;Total ram usage:        1 bytes
  1306 ;; Hardware stack levels used:    1
  1307 ;; Hardware stack levels required when called:    1
  1308 ;; This function calls:
  1309 ;;		_OpenPWM1
  1310 ;; This function is called by:
  1311 ;;		_mcu_init
  1312 ;; This function uses a non-reentrant model
  1313 ;;
  1314                           
  1315                           	psect	text5
  1316  0065F2                     __ptext5:
  1317                           	opt stack 0
  1318  0065F2                     _PWM_init1:
  1319                           	opt stack 28
  1320                           
  1321                           ;incstack = 0
  1322                           ;PWM_init1@period stored from wreg
  1323  0065F2  6E02               	movwf	PWM_init1@period,c
  1324                           
  1325                           ;pwm.c: 21: Timer2Config = 0b11111110;
  1326  0065F4  0EFE               	movlw	254
  1327  0065F6  6E5F               	movwf	_Timer2Config,c
  1328                           
  1329                           ;pwm.c: 22: T2CON = (0xfb & Timer2Config);
  1330  0065F8  505F               	movf	_Timer2Config,w,c
  1331  0065FA  0BFB               	andlw	251
  1332  0065FC  6ECA               	movwf	4042,c	;volatile
  1333                           
  1334                           ;pwm.c: 25: TMR2 = 0;
  1335  0065FE  0E00               	movlw	0
  1336  006600  6ECC               	movwf	4044,c	;volatile
  1337                           
  1338                           ;pwm.c: 26: PIR1bits.TMR2IF = 0;
  1339  006602  929E               	bcf	3998,1,c	;volatile
  1340                           
  1341                           ;pwm.c: 27: PIE1bits.TMR2IE = 0;
  1342  006604  929D               	bcf	3997,1,c	;volatile
  1343                           
  1344                           ;pwm.c: 28: T2CONbits.TMR2ON = 1;
  1345  006606  84CA               	bsf	4042,2,c	;volatile
  1346                           
  1347                           ;pwm.c: 29: OpenPWM1(period);
  1348  006608  5002               	movf	PWM_init1@period,w,c
  1349  00660A  ECE6  F032         	call	_OpenPWM1
  1350                           
  1351                           ;pwm.c: 31: return;
  1352  00660E  0012               	return	
  1353  006610                     __end_of_PWM_init1:
  1354                           	opt stack 0
  1355                           tblptru	equ	0xFF8
  1356                           tblptrh	equ	0xFF7
  1357                           tblptrl	equ	0xFF6
  1358                           tablat	equ	0xFF5
  1359                           wreg	equ	0xFE8
  1360                           status	equ	0xFD8
  1361                           
  1362 ;; *************** function _OpenPWM1 *****************
  1363 ;; Defined at:
  1364 ;;		line 8 in file "C:\Program Files\Microchip\xc8\v1.33\sources\pic18\plib\PWM\pw1open.c"
  1365 ;; Parameters:    Size  Location     Type
  1366 ;;  period          1    wreg     unsigned char 
  1367 ;; Auto vars:     Size  Location     Type
  1368 ;;  period          1    0[COMRAM] unsigned char 
  1369 ;; Return value:  Size  Location     Type
  1370 ;;		None               void
  1371 ;; Registers used:
  1372 ;;		wreg, status,2, status,0
  1373 ;; Tracked objects:
  1374 ;;		On entry : 0/0
  1375 ;;		On exit  : 0/0
  1376 ;;		Unchanged: 0/0
  1377 ;; Data sizes:     COMRAM   BANK0   BANK1   BANK2   BANK3   BANK4   BANK5   BANK6   BANK7
  1378 ;;      Params:         0       0       0       0       0       0       0       0       0
  1379 ;;      Locals:         1       0       0       0       0       0       0       0       0
  1380 ;;      Temps:          0       0       0       0       0       0       0       0       0
  1381 ;;      Totals:         1       0       0       0       0       0       0       0       0
  1382 ;;Total ram usage:        1 bytes
  1383 ;; Hardware stack levels used:    1
  1384 ;; This function calls:
  1385 ;;		Nothing
  1386 ;; This function is called by:
  1387 ;;		_PWM_init1
  1388 ;; This function uses a non-reentrant model
  1389 ;;
  1390                           
  1391                           	psect	text6
  1392  0065CC                     __ptext6:
  1393                           	opt stack 0
  1394  0065CC                     _OpenPWM1:
  1395                           	opt stack 28
  1396                           
  1397                           ;incstack = 0
  1398                           ;OpenPWM1@period stored from wreg
  1399  0065CC  6E01               	movwf	OpenPWM1@period,c
  1400  0065CE  0E0C               	movlw	12
  1401  0065D0  12BD               	iorwf	4029,f,c	;volatile
  1402  0065D2  9494               	bcf	3988,2,c	;volatile
  1403  0065D4  94CA               	bcf	4042,2,c	;volatile
  1404  0065D6  C001  FFCB         	movff	OpenPWM1@period,4043	;volatile
  1405  0065DA  84CA               	bsf	4042,2,c	;volatile
  1406  0065DC  0012               	return	
  1407  0065DE                     __end_of_OpenPWM1:
  1408                           	opt stack 0
  1409                           tblptru	equ	0xFF8
  1410                           tblptrh	equ	0xFF7
  1411                           tblptrl	equ	0xFF6
  1412                           tablat	equ	0xFF5
  1413                           wreg	equ	0xFE8
  1414                           status	equ	0xFD8
  1415                           
  1416 ;; *************** function _go_back *****************
  1417 ;; Defined at:
  1418 ;;		line 125 in file "cny70.c"
  1419 ;; Parameters:    Size  Location     Type
  1420 ;;  m_right         1    wreg     unsigned char 
  1421 ;;  m_left          1   51[COMRAM] unsigned char 
  1422 ;; Auto vars:     Size  Location     Type
  1423 ;;  m_right         1   52[COMRAM] unsigned char 
  1424 ;; Return value:  Size  Location     Type
  1425 ;;		None               void
  1426 ;; Registers used:
  1427 ;;		wreg, status,2, status,0, cstack
  1428 ;; Tracked objects:
  1429 ;;		On entry : 0/0
  1430 ;;		On exit  : 0/0
  1431 ;;		Unchanged: 0/0
  1432 ;; Data sizes:     COMRAM   BANK0   BANK1   BANK2   BANK3   BANK4   BANK5   BANK6   BANK7
  1433 ;;      Params:         1       0       0       0       0       0       0       0       0
  1434 ;;      Locals:         1       0       0       0       0       0       0       0       0
  1435 ;;      Temps:          0       0       0       0       0       0       0       0       0
  1436 ;;      Totals:         2       0       0       0       0       0       0       0       0
  1437 ;;Total ram usage:        2 bytes
  1438 ;; Hardware stack levels used:    1
  1439 ;; Hardware stack levels required when called:    3
  1440 ;; This function calls:
  1441 ;;		_PWM_DutyCycle1
  1442 ;;		_PWM_DutyCycle2
  1443 ;;		_motor_Backforward
  1444 ;; This function is called by:
  1445 ;;		_main
  1446 ;; This function uses a non-reentrant model
  1447 ;;
  1448                           
  1449                           	psect	text7
  1450  0065DE                     __ptext7:
  1451                           	opt stack 0
  1452  0065DE                     _go_back:
  1453                           	opt stack 27
  1454                           
  1455                           ;incstack = 0
  1456                           ;go_back@m_right stored from wreg
  1457  0065DE  6E35               	movwf	go_back@m_right,c
  1458                           
  1459                           ;cny70.c: 127: motor_Backforward();
  1460  0065E0  ECDC  F032         	call	_motor_Backforward	;wreg free
  1461                           
  1462                           ;cny70.c: 128: PWM_DutyCycle1(m_right);
  1463  0065E4  5035               	movf	go_back@m_right,w,c
  1464  0065E6  ECDF  F033         	call	_PWM_DutyCycle1
  1465                           
  1466                           ;cny70.c: 129: PWM_DutyCycle2(m_left);
  1467  0065EA  5034               	movf	go_back@m_left,w,c
  1468  0065EC  EC14  F034         	call	_PWM_DutyCycle2
  1469                           
  1470                           ;cny70.c: 130: return;
  1471  0065F0  0012               	return	
  1472  0065F2                     __end_of_go_back:
  1473                           	opt stack 0
  1474                           tblptru	equ	0xFF8
  1475                           tblptrh	equ	0xFF7
  1476                           tblptrl	equ	0xFF6
  1477                           tablat	equ	0xFF5
  1478                           wreg	equ	0xFE8
  1479                           status	equ	0xFD8
  1480                           
  1481 ;; *************** function _motor_Backforward *****************
  1482 ;; Defined at:
  1483 ;;		line 57 in file "motor.c"
  1484 ;; Parameters:    Size  Location     Type
  1485 ;;		None
  1486 ;; Auto vars:     Size  Location     Type
  1487 ;;		None
  1488 ;; Return value:  Size  Location     Type
  1489 ;;                  2  209[COMRAM] int 
  1490 ;; Registers used:
  1491 ;;		None
  1492 ;; Tracked objects:
  1493 ;;		On entry : 0/0
  1494 ;;		On exit  : 0/0
  1495 ;;		Unchanged: 0/0
  1496 ;; Data sizes:     COMRAM   BANK0   BANK1   BANK2   BANK3   BANK4   BANK5   BANK6   BANK7
  1497 ;;      Params:         0       0       0       0       0       0       0       0       0
  1498 ;;      Locals:         0       0       0       0       0       0       0       0       0
  1499 ;;      Temps:          0       0       0       0       0       0       0       0       0
  1500 ;;      Totals:         0       0       0       0       0       0       0       0       0
  1501 ;;Total ram usage:        0 bytes
  1502 ;; Hardware stack levels used:    1
  1503 ;; This function calls:
  1504 ;;		Nothing
  1505 ;; This function is called by:
  1506 ;;		_go_back
  1507 ;; This function uses a non-reentrant model
  1508 ;;
  1509                           
  1510                           	psect	text8
  1511  0065B8                     __ptext8:
  1512                           	opt stack 0
  1513  0065B8                     _motor_Backforward:
  1514                           	opt stack 29
  1515                           
  1516                           ;motor.c: 59: PORTDbits.RD7 = 0;
  1517                           
  1518                           ;incstack = 0
  1519  0065B8  9E83               	bcf	3971,7,c	;volatile
  1520                           
  1521                           ;motor.c: 60: PORTDbits.RD4 = 1;
  1522  0065BA  8883               	bsf	3971,4,c	;volatile
  1523                           
  1524                           ;motor.c: 61: PORTDbits.RD2 = 0;
  1525  0065BC  9483               	bcf	3971,2,c	;volatile
  1526                           
  1527                           ;motor.c: 62: PORTDbits.RD3 = 1;
  1528  0065BE  8683               	bsf	3971,3,c	;volatile
  1529                           
  1530                           ;motor.c: 64: return;
  1531  0065C0  0012               	return	
  1532  0065C2                     __end_of_motor_Backforward:
  1533                           	opt stack 0
  1534                           tblptru	equ	0xFF8
  1535                           tblptrh	equ	0xFF7
  1536                           tblptrl	equ	0xFF6
  1537                           tablat	equ	0xFF5
  1538                           wreg	equ	0xFE8
  1539                           status	equ	0xFD8
  1540                           
  1541 ;; *************** function _PWM_DutyCycle2 *****************
  1542 ;; Defined at:
  1543 ;;		line 55 in file "pwm.c"
  1544 ;; Parameters:    Size  Location     Type
  1545 ;;  percentageDu    1    wreg     unsigned char 
  1546 ;; Auto vars:     Size  Location     Type
  1547 ;;  percentageDu    1   48[COMRAM] unsigned char 
  1548 ;;  DC              2   49[COMRAM] unsigned int 
  1549 ;;  DutyCycle       2   46[COMRAM] unsigned int 
  1550 ;; Return value:  Size  Location     Type
  1551 ;;		None               void
  1552 ;; Registers used:
  1553 ;;		wreg, status,2, status,0, cstack
  1554 ;; Tracked objects:
  1555 ;;		On entry : 0/0
  1556 ;;		On exit  : 0/0
  1557 ;;		Unchanged: 0/0
  1558 ;; Data sizes:     COMRAM   BANK0   BANK1   BANK2   BANK3   BANK4   BANK5   BANK6   BANK7
  1559 ;;      Params:         0       0       0       0       0       0       0       0       0
  1560 ;;      Locals:         5       0       0       0       0       0       0       0       0
  1561 ;;      Temps:          4       0       0       0       0       0       0       0       0
  1562 ;;      Totals:         9       0       0       0       0       0       0       0       0
  1563 ;;Total ram usage:        9 bytes
  1564 ;; Hardware stack levels used:    1
  1565 ;; Hardware stack levels required when called:    2
  1566 ;; This function calls:
  1567 ;;		_SetDCPWM2
  1568 ;;		___ftmul
  1569 ;;		___fttol
  1570 ;;		___lbtoft
  1571 ;; This function is called by:
  1572 ;;		_main
  1573 ;;		_mcu_init
  1574 ;;		_go_back
  1575 ;;		_right
  1576 ;;		_left
  1577 ;;		_go_straight
  1578 ;; This function uses a non-reentrant model
  1579 ;;
  1580                           
  1581                           	psect	text9
  1582  006828                     __ptext9:
  1583                           	opt stack 0
  1584  006828                     _PWM_DutyCycle2:
  1585                           	opt stack 27
  1586                           
  1587                           ;incstack = 0
  1588                           ;PWM_DutyCycle2@percentageDuty stored from wreg
  1589  006828  6E31               	movwf	PWM_DutyCycle2@percentageDuty,c
  1590                           
  1591                           ;pwm.c: 57: unsigned int DC = 0, DutyCycle = 0;
  1592  00682A  0E00               	movlw	0
  1593  00682C  6E33               	movwf	PWM_DutyCycle2@DC+1,c
  1594  00682E  0E00               	movlw	0
  1595  006830  6E32               	movwf	PWM_DutyCycle2@DC,c
  1596  006832  0E00               	movlw	0
  1597  006834  6E30               	movwf	PWM_DutyCycle2@DutyCycle+1,c
  1598  006836  0E00               	movlw	0
  1599  006838  6E2F               	movwf	PWM_DutyCycle2@DutyCycle,c
  1600                           
  1601                           ;pwm.c: 59: DC = (unsigned int)(percentageDuty * 10.23);
  1602  00683A  0EAE               	movlw	174
  1603  00683C  6E10               	movwf	___ftmul@f2,c
  1604  00683E  0E23               	movlw	35
  1605  006840  6E11               	movwf	___ftmul@f2+1,c
  1606  006842  0E41               	movlw	65
  1607  006844  6E12               	movwf	___ftmul@f2+2,c
  1608  006846  5031               	movf	PWM_DutyCycle2@percentageDuty,w,c
  1609  006848  EC17  F033         	call	___lbtoft
  1610  00684C  C009  F00D         	movff	?___lbtoft,___ftmul@f1
  1611  006850  C00A  F00E         	movff	?___lbtoft+1,___ftmul@f1+1
  1612  006854  C00B  F00F         	movff	?___lbtoft+2,___ftmul@f1+2
  1613  006858  EC65  F036         	call	___ftmul	;wreg free
  1614  00685C  C00D  F01C         	movff	?___ftmul,___fttol@f1
  1615  006860  C00E  F01D         	movff	?___ftmul+1,___fttol@f1+1
  1616  006864  C00F  F01E         	movff	?___ftmul+2,___fttol@f1+2
  1617  006868  EC90  F035         	call	___fttol	;wreg free
  1618  00686C  C01C  F02B         	movff	?___fttol,??_PWM_DutyCycle2
  1619  006870  C01D  F02C         	movff	?___fttol+1,??_PWM_DutyCycle2+1
  1620  006874  C01E  F02D         	movff	?___fttol+2,??_PWM_DutyCycle2+2
  1621  006878  C01F  F02E         	movff	?___fttol+3,??_PWM_DutyCycle2+3
  1622  00687C  C02B  F032         	movff	??_PWM_DutyCycle2,PWM_DutyCycle2@DC
  1623  006880  C02C  F033         	movff	??_PWM_DutyCycle2+1,PWM_DutyCycle2@DC+1
  1624                           
  1625                           ;pwm.c: 60: SetDCPWM2(DC);
  1626  006884  C032  F001         	movff	PWM_DutyCycle2@DC,SetDCPWM2@dutycycle
  1627  006888  C033  F002         	movff	PWM_DutyCycle2@DC+1,SetDCPWM2@dutycycle+1
  1628  00688C  EC81  F033         	call	_SetDCPWM2	;wreg free
  1629                           
  1630                           ;pwm.c: 61: return;
  1631  006890  0012               	return	
  1632  006892                     __end_of_PWM_DutyCycle2:
  1633                           	opt stack 0
  1634                           tblptru	equ	0xFF8
  1635                           tblptrh	equ	0xFF7
  1636                           tblptrl	equ	0xFF6
  1637                           tablat	equ	0xFF5
  1638                           wreg	equ	0xFE8
  1639                           status	equ	0xFD8
  1640                           
  1641 ;; *************** function _SetDCPWM2 *****************
  1642 ;; Defined at:
  1643 ;;		line 7 in file "C:\Program Files\Microchip\xc8\v1.33\sources\pic18\plib\PWM\pw2setdc.c"
  1644 ;; Parameters:    Size  Location     Type
  1645 ;;  dutycycle       2    0[COMRAM] unsigned int 
  1646 ;; Auto vars:     Size  Location     Type
  1647 ;;  DCycle          2    4[COMRAM] struct PWMDC
  1648 ;; Return value:  Size  Location     Type
  1649 ;;		None               void
  1650 ;; Registers used:
  1651 ;;		wreg, status,2, status,0
  1652 ;; Tracked objects:
  1653 ;;		On entry : 0/0
  1654 ;;		On exit  : 0/0
  1655 ;;		Unchanged: 0/0
  1656 ;; Data sizes:     COMRAM   BANK0   BANK1   BANK2   BANK3   BANK4   BANK5   BANK6   BANK7
  1657 ;;      Params:         2       0       0       0       0       0       0       0       0
  1658 ;;      Locals:         2       0       0       0       0       0       0       0       0
  1659 ;;      Temps:          2       0       0       0       0       0       0       0       0
  1660 ;;      Totals:         6       0       0       0       0       0       0       0       0
  1661 ;;Total ram usage:        6 bytes
  1662 ;; Hardware stack levels used:    1
  1663 ;; This function calls:
  1664 ;;		Nothing
  1665 ;; This function is called by:
  1666 ;;		_PWM_DutyCycle2
  1667 ;; This function uses a non-reentrant model
  1668 ;;
  1669                           
  1670                           	psect	text10
  1671  006702                     __ptext10:
  1672                           	opt stack 0
  1673  006702                     _SetDCPWM2:
  1674                           	opt stack 28
  1675                           
  1676                           ;incstack = 0
  1677  006702  C001  F003         	movff	SetDCPWM2@dutycycle,??_SetDCPWM2
  1678  006706  C002  F004         	movff	SetDCPWM2@dutycycle+1,??_SetDCPWM2+1
  1679  00670A  0E06               	movlw	6
  1680  00670C                     u1975:
  1681  00670C  90D8               	bcf	status,0,c
  1682  00670E  3603               	rlcf	??_SetDCPWM2,f,c
  1683  006710  3604               	rlcf	??_SetDCPWM2+1,f,c
  1684  006712  2EE8               	decfsz	wreg,f,c
  1685  006714  D7FB               	goto	u1975
  1686  006716  C003  F005         	movff	??_SetDCPWM2,SetDCPWM2@DCycle
  1687  00671A  C004  F006         	movff	??_SetDCPWM2+1,SetDCPWM2@DCycle+1
  1688  00671E  C006  FFBB         	movff	SetDCPWM2@DCycle+1,4027	;volatile
  1689  006722  C005  F003         	movff	SetDCPWM2@DCycle,??_SetDCPWM2
  1690  006726  90D8               	bcf	status,0,c
  1691  006728  3203               	rrcf	??_SetDCPWM2,f,c
  1692  00672A  90D8               	bcf	status,0,c
  1693  00672C  3203               	rrcf	??_SetDCPWM2,f,c
  1694  00672E  0E30               	movlw	48
  1695  006730  1603               	andwf	??_SetDCPWM2,f,c
  1696  006732  50BA               	movf	4026,w,c	;volatile
  1697  006734  0BCF               	andlw	207
  1698  006736  1003               	iorwf	??_SetDCPWM2,w,c
  1699  006738  6EBA               	movwf	4026,c	;volatile
  1700  00673A  0012               	return	
  1701  00673C                     __end_of_SetDCPWM2:
  1702                           	opt stack 0
  1703                           tblptru	equ	0xFF8
  1704                           tblptrh	equ	0xFF7
  1705                           tblptrl	equ	0xFF6
  1706                           tablat	equ	0xFF5
  1707                           wreg	equ	0xFE8
  1708                           status	equ	0xFD8
  1709                           
  1710 ;; *************** function _PWM_DutyCycle1 *****************
  1711 ;; Defined at:
  1712 ;;		line 33 in file "pwm.c"
  1713 ;; Parameters:    Size  Location     Type
  1714 ;;  percentageDu    1    wreg     unsigned char 
  1715 ;; Auto vars:     Size  Location     Type
  1716 ;;  percentageDu    1   48[COMRAM] unsigned char 
  1717 ;;  DC              2   49[COMRAM] unsigned int 
  1718 ;;  DutyCycle       2   46[COMRAM] unsigned int 
  1719 ;; Return value:  Size  Location     Type
  1720 ;;		None               void
  1721 ;; Registers used:
  1722 ;;		wreg, status,2, status,0, cstack
  1723 ;; Tracked objects:
  1724 ;;		On entry : 0/0
  1725 ;;		On exit  : 0/0
  1726 ;;		Unchanged: 0/0
  1727 ;; Data sizes:     COMRAM   BANK0   BANK1   BANK2   BANK3   BANK4   BANK5   BANK6   BANK7
  1728 ;;      Params:         0       0       0       0       0       0       0       0       0
  1729 ;;      Locals:         5       0       0       0       0       0       0       0       0
  1730 ;;      Temps:          4       0       0       0       0       0       0       0       0
  1731 ;;      Totals:         9       0       0       0       0       0       0       0       0
  1732 ;;Total ram usage:        9 bytes
  1733 ;; Hardware stack levels used:    1
  1734 ;; Hardware stack levels required when called:    2
  1735 ;; This function calls:
  1736 ;;		_SetDCPWM1
  1737 ;;		___ftmul
  1738 ;;		___fttol
  1739 ;;		___lbtoft
  1740 ;; This function is called by:
  1741 ;;		_main
  1742 ;;		_mcu_init
  1743 ;;		_go_back
  1744 ;;		_right
  1745 ;;		_left
  1746 ;;		_go_straight
  1747 ;; This function uses a non-reentrant model
  1748 ;;
  1749                           
  1750                           	psect	text11
  1751  0067BE                     __ptext11:
  1752                           	opt stack 0
  1753  0067BE                     _PWM_DutyCycle1:
  1754                           	opt stack 27
  1755                           
  1756                           ;incstack = 0
  1757                           ;PWM_DutyCycle1@percentageDuty stored from wreg
  1758  0067BE  6E31               	movwf	PWM_DutyCycle1@percentageDuty,c
  1759                           
  1760                           ;pwm.c: 35: unsigned int DC = 0, DutyCycle = 0;
  1761  0067C0  0E00               	movlw	0
  1762  0067C2  6E33               	movwf	PWM_DutyCycle1@DC+1,c
  1763  0067C4  0E00               	movlw	0
  1764  0067C6  6E32               	movwf	PWM_DutyCycle1@DC,c
  1765  0067C8  0E00               	movlw	0
  1766  0067CA  6E30               	movwf	PWM_DutyCycle1@DutyCycle+1,c
  1767  0067CC  0E00               	movlw	0
  1768  0067CE  6E2F               	movwf	PWM_DutyCycle1@DutyCycle,c
  1769                           
  1770                           ;pwm.c: 37: DC = (unsigned int)(percentageDuty * 10.23);
  1771  0067D0  0EAE               	movlw	174
  1772  0067D2  6E10               	movwf	___ftmul@f2,c
  1773  0067D4  0E23               	movlw	35
  1774  0067D6  6E11               	movwf	___ftmul@f2+1,c
  1775  0067D8  0E41               	movlw	65
  1776  0067DA  6E12               	movwf	___ftmul@f2+2,c
  1777  0067DC  5031               	movf	PWM_DutyCycle1@percentageDuty,w,c
  1778  0067DE  EC17  F033         	call	___lbtoft
  1779  0067E2  C009  F00D         	movff	?___lbtoft,___ftmul@f1
  1780  0067E6  C00A  F00E         	movff	?___lbtoft+1,___ftmul@f1+1
  1781  0067EA  C00B  F00F         	movff	?___lbtoft+2,___ftmul@f1+2
  1782  0067EE  EC65  F036         	call	___ftmul	;wreg free
  1783  0067F2  C00D  F01C         	movff	?___ftmul,___fttol@f1
  1784  0067F6  C00E  F01D         	movff	?___ftmul+1,___fttol@f1+1
  1785  0067FA  C00F  F01E         	movff	?___ftmul+2,___fttol@f1+2
  1786  0067FE  EC90  F035         	call	___fttol	;wreg free
  1787  006802  C01C  F02B         	movff	?___fttol,??_PWM_DutyCycle1
  1788  006806  C01D  F02C         	movff	?___fttol+1,??_PWM_DutyCycle1+1
  1789  00680A  C01E  F02D         	movff	?___fttol+2,??_PWM_DutyCycle1+2
  1790  00680E  C01F  F02E         	movff	?___fttol+3,??_PWM_DutyCycle1+3
  1791  006812  C02B  F032         	movff	??_PWM_DutyCycle1,PWM_DutyCycle1@DC
  1792  006816  C02C  F033         	movff	??_PWM_DutyCycle1+1,PWM_DutyCycle1@DC+1
  1793                           
  1794                           ;pwm.c: 38: SetDCPWM1(DC);
  1795  00681A  C032  F001         	movff	PWM_DutyCycle1@DC,SetDCPWM1@dutycycle
  1796  00681E  C033  F002         	movff	PWM_DutyCycle1@DC+1,SetDCPWM1@dutycycle+1
  1797  006822  EC64  F033         	call	_SetDCPWM1	;wreg free
  1798                           
  1799                           ;pwm.c: 39: return;
  1800  006826  0012               	return	
  1801  006828                     __end_of_PWM_DutyCycle1:
  1802                           	opt stack 0
  1803                           tblptru	equ	0xFF8
  1804                           tblptrh	equ	0xFF7
  1805                           tblptrl	equ	0xFF6
  1806                           tablat	equ	0xFF5
  1807                           wreg	equ	0xFE8
  1808                           status	equ	0xFD8
  1809                           
  1810 ;; *************** function ___lbtoft *****************
  1811 ;; Defined at:
  1812 ;;		line 27 in file "C:\Program Files\Microchip\xc8\v1.33\sources\common\lbtoft.c"
  1813 ;; Parameters:    Size  Location     Type
  1814 ;;  c               1    wreg     unsigned char 
  1815 ;; Auto vars:     Size  Location     Type
  1816 ;;  c               1   11[COMRAM] unsigned char 
  1817 ;; Return value:  Size  Location     Type
  1818 ;;                  3    8[COMRAM] float 
  1819 ;; Registers used:
  1820 ;;		wreg, status,2, status,0, cstack
  1821 ;; Tracked objects:
  1822 ;;		On entry : 0/0
  1823 ;;		On exit  : 0/0
  1824 ;;		Unchanged: 0/0
  1825 ;; Data sizes:     COMRAM   BANK0   BANK1   BANK2   BANK3   BANK4   BANK5   BANK6   BANK7
  1826 ;;      Params:         3       0       0       0       0       0       0       0       0
  1827 ;;      Locals:         1       0       0       0       0       0       0       0       0
  1828 ;;      Temps:          0       0       0       0       0       0       0       0       0
  1829 ;;      Totals:         4       0       0       0       0       0       0       0       0
  1830 ;;Total ram usage:        4 bytes
  1831 ;; Hardware stack levels used:    1
  1832 ;; Hardware stack levels required when called:    1
  1833 ;; This function calls:
  1834 ;;		___ftpack
  1835 ;; This function is called by:
  1836 ;;		_PWM_DutyCycle1
  1837 ;;		_PWM_DutyCycle2
  1838 ;; This function uses a non-reentrant model
  1839 ;;
  1840                           
  1841                           	psect	text12
  1842  00662E                     __ptext12:
  1843                           	opt stack 0
  1844  00662E                     ___lbtoft:
  1845                           	opt stack 27
  1846                           
  1847                           ;incstack = 0
  1848                           ;___lbtoft@c stored from wreg
  1849  00662E  6E0C               	movwf	___lbtoft@c,c
  1850  006630  500C               	movf	___lbtoft@c,w,c
  1851  006632  6E01               	movwf	___ftpack@arg,c
  1852  006634  6A02               	clrf	___ftpack@arg+1,c
  1853  006636  6A03               	clrf	___ftpack@arg+2,c
  1854  006638  0E8E               	movlw	142
  1855  00663A  6E04               	movwf	___ftpack@exp,c
  1856  00663C  0E00               	movlw	0
  1857  00663E  6E05               	movwf	___ftpack@sign,c
  1858  006640  ECE0  F034         	call	___ftpack	;wreg free
  1859  006644  C001  F009         	movff	?___ftpack,?___lbtoft
  1860  006648  C002  F00A         	movff	?___ftpack+1,?___lbtoft+1
  1861  00664C  C003  F00B         	movff	?___ftpack+2,?___lbtoft+2
  1862  006650  0012               	return	
  1863  006652                     __end_of___lbtoft:
  1864                           	opt stack 0
  1865                           tblptru	equ	0xFF8
  1866                           tblptrh	equ	0xFF7
  1867                           tblptrl	equ	0xFF6
  1868                           tablat	equ	0xFF5
  1869                           wreg	equ	0xFE8
  1870                           status	equ	0xFD8
  1871                           
  1872 ;; *************** function ___fttol *****************
  1873 ;; Defined at:
  1874 ;;		line 44 in file "C:\Program Files\Microchip\xc8\v1.33\sources\common\fttol.c"
  1875 ;; Parameters:    Size  Location     Type
  1876 ;;  f1              3   27[COMRAM] float 
  1877 ;; Auto vars:     Size  Location     Type
  1878 ;;  lval            4   37[COMRAM] unsigned long 
  1879 ;;  exp1            1   41[COMRAM] unsigned char 
  1880 ;;  sign1           1   36[COMRAM] unsigned char 
  1881 ;; Return value:  Size  Location     Type
  1882 ;;                  4   27[COMRAM] long 
  1883 ;; Registers used:
  1884 ;;		wreg, status,2, status,0
  1885 ;; Tracked objects:
  1886 ;;		On entry : 0/0
  1887 ;;		On exit  : 0/0
  1888 ;;		Unchanged: 0/0
  1889 ;; Data sizes:     COMRAM   BANK0   BANK1   BANK2   BANK3   BANK4   BANK5   BANK6   BANK7
  1890 ;;      Params:         4       0       0       0       0       0       0       0       0
  1891 ;;      Locals:         6       0       0       0       0       0       0       0       0
  1892 ;;      Temps:          5       0       0       0       0       0       0       0       0
  1893 ;;      Totals:        15       0       0       0       0       0       0       0       0
  1894 ;;Total ram usage:       15 bytes
  1895 ;; Hardware stack levels used:    1
  1896 ;; This function calls:
  1897 ;;		Nothing
  1898 ;; This function is called by:
  1899 ;;		_main
  1900 ;;		_PWM_DutyCycle1
  1901 ;;		_PWM_DutyCycle2
  1902 ;; This function uses a non-reentrant model
  1903 ;;
  1904                           
  1905                           	psect	text13
  1906  006B20                     __ptext13:
  1907                           	opt stack 0
  1908  006B20                     ___fttol:
  1909                           	opt stack 28
  1910                           
  1911                           ;incstack = 0
  1912  006B20  C01E  F020         	movff	___fttol@f1+2,??___fttol
  1913  006B24  6A21               	clrf	(??___fttol+1)& (0+255),c
  1914  006B26  6A22               	clrf	(??___fttol+2)& (0+255),c
  1915  006B28  341D               	rlcf	___fttol@f1+1,w,c
  1916  006B2A  3620               	rlcf	??___fttol& (0+255),f,c
  1917  006B2C  E301               	bnc	u2051
  1918  006B2E  8021               	bsf	(??___fttol+1)& (0+255),0,c
  1919  006B30                     u2051:
  1920  006B30  5020               	movf	??___fttol,w,c
  1921  006B32  6E2A               	movwf	___fttol@exp1,c
  1922  006B34  662A               	tstfsz	___fttol@exp1& (0+255),c
  1923  006B36  D001               	goto	l2161
  1924  006B38  D038               	goto	u2100
  1925  006B3A                     l2161:
  1926  006B3A  0E17               	movlw	23
  1927  006B3C  6E20               	movwf	??___fttol& (0+255),c
  1928  006B3E  C01C  F021         	movff	___fttol@f1,??___fttol+1
  1929  006B42  C01D  F022         	movff	___fttol@f1+1,??___fttol+2
  1930  006B46  C01E  F023         	movff	___fttol@f1+2,??___fttol+3
  1931  006B4A  2820               	incf	??___fttol,w,c
  1932  006B4C  6E24               	movwf	(??___fttol+4)& (0+255),c
  1933  006B4E  D004               	goto	u2070
  1934  006B50                     u2075:
  1935  006B50  90D8               	bcf	status,0,c
  1936  006B52  3223               	rrcf	??___fttol+3,f,c
  1937  006B54  3222               	rrcf	??___fttol+2,f,c
  1938  006B56  3221               	rrcf	??___fttol+1,f,c
  1939  006B58                     u2070:
  1940  006B58  2E24               	decfsz	(??___fttol+4)& (0+255),f,c
  1941  006B5A  D7FA               	goto	u2075
  1942  006B5C  5021               	movf	??___fttol+1,w,c
  1943  006B5E  6E25               	movwf	___fttol@sign1,c
  1944  006B60  8E1D               	bsf	___fttol@f1+1,7,c
  1945  006B62  0EFF               	movlw	255
  1946  006B64  161C               	andwf	___fttol@f1,f,c
  1947  006B66  0EFF               	movlw	255
  1948  006B68  161D               	andwf	___fttol@f1+1,f,c
  1949  006B6A  0E00               	movlw	0
  1950  006B6C  161E               	andwf	___fttol@f1+2,f,c
  1951  006B6E  501C               	movf	___fttol@f1,w,c
  1952  006B70  6E26               	movwf	___fttol@lval,c
  1953  006B72  501D               	movf	___fttol@f1+1,w,c
  1954  006B74  6E27               	movwf	___fttol@lval+1,c
  1955  006B76  501E               	movf	___fttol@f1+2,w,c
  1956  006B78  6E28               	movwf	___fttol@lval+2,c
  1957  006B7A  6A29               	clrf	___fttol@lval+3,c
  1958  006B7C  0E8E               	movlw	142
  1959  006B7E  5E2A               	subwf	___fttol@exp1,f,c
  1960  006B80  AE2A               	btfss	___fttol@exp1,7,c
  1961  006B82  D010               	goto	l2183
  1962  006B84  502A               	movf	___fttol@exp1,w,c
  1963  006B86  0A80               	xorlw	128
  1964  006B88  6E20               	movwf	??___fttol& (0+255),c
  1965  006B8A  0EF1               	movlw	241
  1966  006B8C  0A80               	xorlw	128
  1967  006B8E  5C20               	subwf	??___fttol,w,c
  1968  006B90  A0D8               	btfss	status,0,c
  1969  006B92  D00B               	goto	u2100
  1970  006B94                     l2179:
  1971  006B94  90D8               	bcf	status,0,c
  1972  006B96  3229               	rrcf	___fttol@lval+3,f,c
  1973  006B98  3228               	rrcf	___fttol@lval+2,f,c
  1974  006B9A  3227               	rrcf	___fttol@lval+1,f,c
  1975  006B9C  3226               	rrcf	___fttol@lval,f,c
  1976  006B9E  3E2A               	incfsz	___fttol@exp1,f,c
  1977  006BA0  D7F9               	goto	l2179
  1978  006BA2  D014               	goto	l2193
  1979  006BA4                     l2183:
  1980  006BA4  0E17               	movlw	23
  1981  006BA6  642A               	cpfsgt	___fttol@exp1,c
  1982  006BA8  D00F               	goto	l2191
  1983  006BAA                     u2100:
  1984  006BAA  0E00               	movlw	0
  1985  006BAC  6E1C               	movwf	?___fttol,c
  1986  006BAE  0E00               	movlw	0
  1987  006BB0  6E1D               	movwf	?___fttol+1,c
  1988  006BB2  0E00               	movlw	0
  1989  006BB4  6E1E               	movwf	?___fttol+2,c
  1990  006BB6  0E00               	movlw	0
  1991  006BB8  6E1F               	movwf	?___fttol+3,c
  1992  006BBA  D01B               	goto	l720
  1993  006BBC                     l2189:
  1994  006BBC  90D8               	bcf	status,0,c
  1995  006BBE  3626               	rlcf	___fttol@lval,f,c
  1996  006BC0  3627               	rlcf	___fttol@lval+1,f,c
  1997  006BC2  3628               	rlcf	___fttol@lval+2,f,c
  1998  006BC4  3629               	rlcf	___fttol@lval+3,f,c
  1999  006BC6  062A               	decf	___fttol@exp1,f,c
  2000  006BC8                     l2191:
  2001  006BC8  662A               	tstfsz	___fttol@exp1,c
  2002  006BCA  D7F8               	goto	l2189
  2003  006BCC                     l2193:
  2004  006BCC  5025               	movf	___fttol@sign1,w,c
  2005  006BCE  B4D8               	btfsc	status,2,c
  2006  006BD0  D008               	goto	l2197
  2007  006BD2  1E29               	comf	___fttol@lval+3,f,c
  2008  006BD4  1E28               	comf	___fttol@lval+2,f,c
  2009  006BD6  1E27               	comf	___fttol@lval+1,f,c
  2010  006BD8  6C26               	negf	___fttol@lval,c
  2011  006BDA  0E00               	movlw	0
  2012  006BDC  2227               	addwfc	___fttol@lval+1,f,c
  2013  006BDE  2228               	addwfc	___fttol@lval+2,f,c
  2014  006BE0  2229               	addwfc	___fttol@lval+3,f,c
  2015  006BE2                     l2197:
  2016  006BE2  C026  F01C         	movff	___fttol@lval,?___fttol
  2017  006BE6  C027  F01D         	movff	___fttol@lval+1,?___fttol+1
  2018  006BEA  C028  F01E         	movff	___fttol@lval+2,?___fttol+2
  2019  006BEE  C029  F01F         	movff	___fttol@lval+3,?___fttol+3
  2020  006BF2                     l720:
  2021  006BF2  0012               	return	
  2022  006BF4                     __end_of___fttol:
  2023                           	opt stack 0
  2024                           tblptru	equ	0xFF8
  2025                           tblptrh	equ	0xFF7
  2026                           tblptrl	equ	0xFF6
  2027                           tablat	equ	0xFF5
  2028                           wreg	equ	0xFE8
  2029                           status	equ	0xFD8
  2030                           
  2031 ;; *************** function _SetDCPWM1 *****************
  2032 ;; Defined at:
  2033 ;;		line 7 in file "C:\Program Files\Microchip\xc8\v1.33\sources\pic18\plib\PWM\pw1setdc.c"
  2034 ;; Parameters:    Size  Location     Type
  2035 ;;  dutycycle       2    0[COMRAM] unsigned int 
  2036 ;; Auto vars:     Size  Location     Type
  2037 ;;  DCycle          2    4[COMRAM] struct PWMDC
  2038 ;; Return value:  Size  Location     Type
  2039 ;;		None               void
  2040 ;; Registers used:
  2041 ;;		wreg, status,2, status,0
  2042 ;; Tracked objects:
  2043 ;;		On entry : 0/0
  2044 ;;		On exit  : 0/0
  2045 ;;		Unchanged: 0/0
  2046 ;; Data sizes:     COMRAM   BANK0   BANK1   BANK2   BANK3   BANK4   BANK5   BANK6   BANK7
  2047 ;;      Params:         2       0       0       0       0       0       0       0       0
  2048 ;;      Locals:         2       0       0       0       0       0       0       0       0
  2049 ;;      Temps:          2       0       0       0       0       0       0       0       0
  2050 ;;      Totals:         6       0       0       0       0       0       0       0       0
  2051 ;;Total ram usage:        6 bytes
  2052 ;; Hardware stack levels used:    1
  2053 ;; This function calls:
  2054 ;;		Nothing
  2055 ;; This function is called by:
  2056 ;;		_PWM_DutyCycle1
  2057 ;; This function uses a non-reentrant model
  2058 ;;
  2059                           
  2060                           	psect	text14
  2061  0066C8                     __ptext14:
  2062                           	opt stack 0
  2063  0066C8                     _SetDCPWM1:
  2064                           	opt stack 28
  2065                           
  2066                           ;incstack = 0
  2067  0066C8  C001  F003         	movff	SetDCPWM1@dutycycle,??_SetDCPWM1
  2068  0066CC  C002  F004         	movff	SetDCPWM1@dutycycle+1,??_SetDCPWM1+1
  2069  0066D0  0E06               	movlw	6
  2070  0066D2                     u1945:
  2071  0066D2  90D8               	bcf	status,0,c
  2072  0066D4  3603               	rlcf	??_SetDCPWM1,f,c
  2073  0066D6  3604               	rlcf	??_SetDCPWM1+1,f,c
  2074  0066D8  2EE8               	decfsz	wreg,f,c
  2075  0066DA  D7FB               	goto	u1945
  2076  0066DC  C003  F005         	movff	??_SetDCPWM1,SetDCPWM1@DCycle
  2077  0066E0  C004  F006         	movff	??_SetDCPWM1+1,SetDCPWM1@DCycle+1
  2078  0066E4  C006  FFBE         	movff	SetDCPWM1@DCycle+1,4030	;volatile
  2079  0066E8  C005  F003         	movff	SetDCPWM1@DCycle,??_SetDCPWM1
  2080  0066EC  90D8               	bcf	status,0,c
  2081  0066EE  3203               	rrcf	??_SetDCPWM1,f,c
  2082  0066F0  90D8               	bcf	status,0,c
  2083  0066F2  3203               	rrcf	??_SetDCPWM1,f,c
  2084  0066F4  0E30               	movlw	48
  2085  0066F6  1603               	andwf	??_SetDCPWM1,f,c
  2086  0066F8  50BD               	movf	4029,w,c	;volatile
  2087  0066FA  0BCF               	andlw	207
  2088  0066FC  1003               	iorwf	??_SetDCPWM1,w,c
  2089  0066FE  6EBD               	movwf	4029,c	;volatile
  2090  006700  0012               	return	
  2091  006702                     __end_of_SetDCPWM1:
  2092                           	opt stack 0
  2093                           tblptru	equ	0xFF8
  2094                           tblptrh	equ	0xFF7
  2095                           tblptrl	equ	0xFF6
  2096                           tablat	equ	0xFF5
  2097                           wreg	equ	0xFE8
  2098                           status	equ	0xFD8
  2099                           
  2100 ;; *************** function _getCNY70Value *****************
  2101 ;; Defined at:
  2102 ;;		line 4 in file "cny70.c"
  2103 ;; Parameters:    Size  Location     Type
  2104 ;;		None
  2105 ;; Auto vars:     Size  Location     Type
  2106 ;;		None
  2107 ;; Return value:  Size  Location     Type
  2108 ;;                  2    0[COMRAM] int 
  2109 ;; Registers used:
  2110 ;;		wreg, status,2
  2111 ;; Tracked objects:
  2112 ;;		On entry : 0/0
  2113 ;;		On exit  : 0/0
  2114 ;;		Unchanged: 0/0
  2115 ;; Data sizes:     COMRAM   BANK0   BANK1   BANK2   BANK3   BANK4   BANK5   BANK6   BANK7
  2116 ;;      Params:         2       0       0       0       0       0       0       0       0
  2117 ;;      Locals:         0       0       0       0       0       0       0       0       0
  2118 ;;      Temps:          0       0       0       0       0       0       0       0       0
  2119 ;;      Totals:         2       0       0       0       0       0       0       0       0
  2120 ;;Total ram usage:        2 bytes
  2121 ;; Hardware stack levels used:    1
  2122 ;; This function calls:
  2123 ;;		Nothing
  2124 ;; This function is called by:
  2125 ;;		_main
  2126 ;; This function uses a non-reentrant model
  2127 ;;
  2128                           
  2129                           	psect	text15
  2130  006A68                     __ptext15:
  2131                           	opt stack 0
  2132  006A68                     _getCNY70Value:
  2133                           	opt stack 30
  2134                           
  2135                           ;cny70.c: 24: if(PORTBbits.RB2 == 1 && PORTBbits.RB3 == 1 && PORTBbits.RB0 == 0 && PORTB
      +                          bits.RB4 == 1 && PORTBbits.RB1 == 1){
  2136                           
  2137                           ;incstack = 0
  2138  006A68  B481               	btfsc	3969,2,c	;volatile
  2139  006A6A  A681               	btfss	3969,3,c	;volatile
  2140  006A6C  D005               	goto	l212
  2141  006A6E  A081               	btfss	3969,0,c	;volatile
  2142  006A70  A881               	btfss	3969,4,c	;volatile
  2143  006A72  D002               	goto	l212
  2144  006A74  B281               	btfsc	3969,1,c	;volatile
  2145  006A76  D04F               	goto	l2549
  2146  006A78                     l212:
  2147                           
  2148                           ;cny70.c: 29: else if(PORTBbits.RB2 == 1 && PORTBbits.RB3 == 0 && PORTBbits.RB0 == 1 && 
      +                          PORTBbits.RB4 == 1 && PORTBbits.RB1 == 1){
  2149  006A78  B481               	btfsc	3969,2,c	;volatile
  2150  006A7A  B681               	btfsc	3969,3,c	;volatile
  2151  006A7C  D005               	goto	l215
  2152  006A7E  B081               	btfsc	3969,0,c	;volatile
  2153  006A80  A881               	btfss	3969,4,c	;volatile
  2154  006A82  D002               	goto	l215
  2155  006A84  B281               	btfsc	3969,1,c	;volatile
  2156  006A86  D038               	goto	u2780
  2157  006A88                     l215:
  2158                           
  2159                           ;cny70.c: 34: else if(PORTBbits.RB2 == 0 && PORTBbits.RB3 == 1 && PORTBbits.RB0 == 1 && 
      +                          PORTBbits.RB4 == 1 && PORTBbits.RB1 == 1){
  2160  006A88  A481               	btfss	3969,2,c	;volatile
  2161  006A8A  A681               	btfss	3969,3,c	;volatile
  2162  006A8C  D009               	goto	l217
  2163  006A8E  B081               	btfsc	3969,0,c	;volatile
  2164  006A90  A881               	btfss	3969,4,c	;volatile
  2165  006A92  D006               	goto	l217
  2166  006A94  A281               	btfss	3969,1,c	;volatile
  2167  006A96  D004               	goto	l217
  2168  006A98                     
  2169                           ;cny70.c: 36: return -2;
  2170  006A98  0EFF               	movlw	255
  2171  006A9A  6E02               	movwf	?_getCNY70Value+1,c
  2172  006A9C  0EFE               	movlw	254
  2173  006A9E  D03E               	goto	L4
  2174  006AA0                     l217:
  2175                           
  2176                           ;cny70.c: 39: else if(PORTBbits.RB2 == 1 && PORTBbits.RB3 == 1 && PORTBbits.RB0 == 1 && 
      +                          PORTBbits.RB4 == 0 && PORTBbits.RB1 == 1){
  2177  006AA0  B481               	btfsc	3969,2,c	;volatile
  2178  006AA2  A681               	btfss	3969,3,c	;volatile
  2179  006AA4  D005               	goto	l219
  2180  006AA6  B081               	btfsc	3969,0,c	;volatile
  2181  006AA8  B881               	btfsc	3969,4,c	;volatile
  2182  006AAA  D002               	goto	l219
  2183  006AAC  B281               	btfsc	3969,1,c	;volatile
  2184  006AAE  D02F               	goto	u2830
  2185  006AB0                     l219:
  2186                           
  2187                           ;cny70.c: 44: else if(PORTBbits.RB2 == 1 && PORTBbits.RB3 == 1 && PORTBbits.RB0 == 1 && 
      +                          PORTBbits.RB4 == 1 && PORTBbits.RB1 == 0){
  2188  006AB0  B481               	btfsc	3969,2,c	;volatile
  2189  006AB2  A681               	btfss	3969,3,c	;volatile
  2190  006AB4  D005               	goto	l221
  2191  006AB6  B081               	btfsc	3969,0,c	;volatile
  2192  006AB8  A881               	btfss	3969,4,c	;volatile
  2193  006ABA  D002               	goto	l221
  2194  006ABC  A281               	btfss	3969,1,c	;volatile
  2195  006ABE  D008               	goto	u2680
  2196  006AC0                     l221:
  2197                           
  2198                           ;cny70.c: 50: else if(PORTBbits.RB2 == 1 && PORTBbits.RB3 == 1 && PORTBbits.RB0 == 1 && 
      +                          PORTBbits.RB4 == 0 && PORTBbits.RB1 == 0){
  2199  006AC0  B481               	btfsc	3969,2,c	;volatile
  2200  006AC2  A681               	btfss	3969,3,c	;volatile
  2201  006AC4  D009               	goto	l223
  2202  006AC6  B081               	btfsc	3969,0,c	;volatile
  2203  006AC8  B881               	btfsc	3969,4,c	;volatile
  2204  006ACA  D006               	goto	l223
  2205  006ACC  B281               	btfsc	3969,1,c	;volatile
  2206  006ACE  D004               	goto	l223
  2207  006AD0                     u2680:
  2208                           
  2209                           ;cny70.c: 52: return 2;
  2210  006AD0  0E00               	movlw	0
  2211  006AD2  6E02               	movwf	?_getCNY70Value+1,c
  2212  006AD4  0E02               	movlw	2
  2213  006AD6  D022               	goto	L4
  2214  006AD8                     l223:
  2215                           
  2216                           ;cny70.c: 55: else if(PORTBbits.RB2 == 0 && PORTBbits.RB3 == 0 && PORTBbits.RB0 == 1 && 
      +                          PORTBbits.RB4 == 1 && PORTBbits.RB1 == 1){
  2217  006AD8  A481               	btfss	3969,2,c	;volatile
  2218  006ADA  B681               	btfsc	3969,3,c	;volatile
  2219  006ADC  D005               	goto	l225
  2220  006ADE  B081               	btfsc	3969,0,c	;volatile
  2221  006AE0  A881               	btfss	3969,4,c	;volatile
  2222  006AE2  D002               	goto	l225
  2223  006AE4  B281               	btfsc	3969,1,c	;volatile
  2224  006AE6  D7D8               	goto	L5
  2225  006AE8                     l225:
  2226                           
  2227                           ;cny70.c: 60: else if(PORTBbits.RB2 == 1 && PORTBbits.RB3 == 0 && PORTBbits.RB0 == 0 && 
      +                          PORTBbits.RB4 == 1 && PORTBbits.RB1 == 1){
  2228  006AE8  B481               	btfsc	3969,2,c	;volatile
  2229  006AEA  B681               	btfsc	3969,3,c	;volatile
  2230  006AEC  D008               	goto	l227
  2231  006AEE  A081               	btfss	3969,0,c	;volatile
  2232  006AF0  A881               	btfss	3969,4,c	;volatile
  2233  006AF2  D005               	goto	l227
  2234  006AF4  A281               	btfss	3969,1,c	;volatile
  2235  006AF6  D003               	goto	l227
  2236  006AF8                     u2780:
  2237                           
  2238                           ;cny70.c: 62: return -1;
  2239  006AF8  6801               	setf	?_getCNY70Value,c
  2240  006AFA  6802               	setf	?_getCNY70Value+1,c
  2241  006AFC  D010               	goto	l213
  2242  006AFE                     l227:
  2243                           
  2244                           ;cny70.c: 65: else if(PORTBbits.RB2 == 1 && PORTBbits.RB3 == 1 && PORTBbits.RB0 == 0 && 
      +                          PORTBbits.RB4 == 0 && PORTBbits.RB1 == 1){
  2245  006AFE  B481               	btfsc	3969,2,c	;volatile
  2246  006B00  A681               	btfss	3969,3,c	;volatile
  2247  006B02  D009               	goto	l2549
  2248  006B04  A081               	btfss	3969,0,c	;volatile
  2249  006B06  B881               	btfsc	3969,4,c	;volatile
  2250  006B08  D006               	goto	l2549
  2251  006B0A  A281               	btfss	3969,1,c	;volatile
  2252  006B0C  D004               	goto	l2549
  2253  006B0E                     u2830:
  2254                           
  2255                           ;cny70.c: 67: return 1;
  2256  006B0E  0E00               	movlw	0
  2257  006B10  6E02               	movwf	?_getCNY70Value+1,c
  2258  006B12  0E01               	movlw	1
  2259  006B14  D003               	goto	L4
  2260  006B16                     l2549:
  2261                           
  2262                           ;cny70.c: 75: else
  2263                           ;cny70.c: 76: return 0;
  2264  006B16  0E00               	movlw	0
  2265  006B18  6E02               	movwf	?_getCNY70Value+1,c
  2266  006B1A  0E00               	movlw	0
  2267  006B1C                     L4:
  2268  006B1C  6E01               	movwf	?_getCNY70Value,c
  2269  006B1E                     l213:
  2270  006B1E  0012               	return	
  2271  006B20                     __end_of_getCNY70Value:
  2272                           	opt stack 0
  2273                           tblptru	equ	0xFF8
  2274                           tblptrh	equ	0xFF7
  2275                           tblptrl	equ	0xFF6
  2276                           tablat	equ	0xFF5
  2277                           wreg	equ	0xFE8
  2278                           status	equ	0xFD8
  2279                           
  2280 ;; *************** function _fuzzy_system_single2 *****************
  2281 ;; Defined at:
  2282 ;;		line 234 in file "fuzzy.c"
  2283 ;; Parameters:    Size  Location     Type
  2284 ;;  input           3   82[COMRAM] int 
  2285 ;; Auto vars:     Size  Location     Type
  2286 ;;  y             120  120[BANK6 ] [40]
  2287 ;;  x             120    0[BANK6 ] [40]
  2288 ;;  overall_out_  120  120[BANK5 ] [40]
  2289 ;;  qualified_co  120  120[BANK4 ] [40]
  2290 ;;  qualified_co  120  120[BANK3 ] [40]
  2291 ;;  cons_mf3      120    0[BANK5 ] [40]
  2292 ;;  qualified_co  120    0[BANK4 ] [40]
  2293 ;;  cons_mf1      120    0[BANK3 ] [40]
  2294 ;;  ante_mf3      120  120[BANK2 ] [40]
  2295 ;;  cons_mf2      120    0[BANK2 ] [40]
  2296 ;;  ante_mf2      120  120[BANK1 ] [40]
  2297 ;;  ante_mf1      120    0[BANK1 ] [40]
  2298 ;;  output          3  122[BANK0 ] [40]
  2299 ;;  w3              3   91[COMRAM] [40]
  2300 ;;  w2              3   88[COMRAM] [40]
  2301 ;;  w1              3   85[COMRAM] [40]
  2302 ;;  i               2    0        int 
  2303 ;; Return value:  Size  Location     Type
  2304 ;;                  3   82[COMRAM] int 
  2305 ;; Registers used:
  2306 ;;		wreg, fsr1l, fsr1h, fsr2l, fsr2h, status,2, status,0, prodl, prodh, cstack
  2307 ;; Tracked objects:
  2308 ;;		On entry : 0/0
  2309 ;;		On exit  : 0/0
  2310 ;;		Unchanged: 0/0
  2311 ;; Data sizes:     COMRAM   BANK0   BANK1   BANK2   BANK3   BANK4   BANK5   BANK6   BANK7
  2312 ;;      Params:         3       0       0       0       0       0       0       0       0
  2313 ;;      Locals:         9       3     240     240     240     240     240     240       0
  2314 ;;      Temps:          0       0       0       0       0       0       0       0       0
  2315 ;;      Totals:        12       3     240     240     240     240     240     240       0
  2316 ;;Total ram usage:     1455 bytes
  2317 ;; Hardware stack levels used:    1
  2318 ;; Hardware stack levels required when called:    4
  2319 ;; This function calls:
  2320 ;;		_defuzzy
  2321 ;;		_linspace
  2322 ;;		_out_mf
  2323 ;;		_qualified
  2324 ;;		_tri_mf
  2325 ;;		_triangular
  2326 ;; This function is called by:
  2327 ;;		_main
  2328 ;; This function uses a non-reentrant model
  2329 ;;
  2330                           
  2331                           	psect	text16
  2332  007C7E                     __ptext16:
  2333                           	opt stack 0
  2334  007C7E                     _fuzzy_system_single2:
  2335                           	opt stack 26
  2336                           
  2337                           ;fuzzy.c: 236: double ante_mf1[40],cons_mf1[40];
  2338                           ;fuzzy.c: 237: double ante_mf2[40],cons_mf2[40];
  2339                           ;fuzzy.c: 238: double ante_mf3[40],cons_mf3[40];
  2340                           ;fuzzy.c: 239: double x[40],y[40];
  2341                           ;fuzzy.c: 240: double qualified_cons_mf1[40],qualified_cons_mf2[40],qualified_cons_mf3[4
      +                          0];
  2342                           ;fuzzy.c: 241: double overall_out_mf[40];
  2343                           ;fuzzy.c: 242: double w1,w2,w3;
  2344                           ;fuzzy.c: 243: double output;
  2345                           ;fuzzy.c: 244: int i;
  2346                           ;fuzzy.c: 245: linspace(x,-2,2,40);
  2347                           
  2348                           ;incstack = 0
  2349  007C7E  0106               	movlb	6	; () banked
  2350  007C80  0E06               	movlw	high fuzzy_system_single2@x
  2351  007C82  6E38               	movwf	linspace@x+1,c
  2352  007C84  0106               	movlb	6	; () banked
  2353  007C86  0E00               	movlw	low fuzzy_system_single2@x
  2354  007C88  6E37               	movwf	linspace@x,c
  2355  007C8A  0E00               	movlw	0
  2356  007C8C  6E39               	movwf	linspace@start,c
  2357  007C8E  0E00               	movlw	0
  2358  007C90  6E3A               	movwf	linspace@start+1,c
  2359  007C92  0EC0               	movlw	192
  2360  007C94  6E3B               	movwf	linspace@start+2,c
  2361  007C96  0E00               	movlw	0
  2362  007C98  6E3C               	movwf	linspace@end,c
  2363  007C9A  0E00               	movlw	0
  2364  007C9C  6E3D               	movwf	linspace@end+1,c
  2365  007C9E  0E40               	movlw	64
  2366  007CA0  6E3E               	movwf	linspace@end+2,c
  2367  007CA2  0E00               	movlw	0
  2368  007CA4  6E40               	movwf	linspace@size+1,c
  2369  007CA6  0E28               	movlw	40
  2370  007CA8  6E3F               	movwf	linspace@size,c
  2371  007CAA  ECC5  F037         	call	_linspace	;wreg free
  2372                           
  2373                           ;fuzzy.c: 246: linspace(y,0,100,40);
  2374  007CAE  0106               	movlb	6	; () banked
  2375  007CB0  0E06               	movlw	high fuzzy_system_single2@y
  2376  007CB2  6E38               	movwf	linspace@x+1,c
  2377  007CB4  0106               	movlb	6	; () banked
  2378  007CB6  0E78               	movlw	low fuzzy_system_single2@y
  2379  007CB8  6E37               	movwf	linspace@x,c
  2380  007CBA  0E00               	movlw	0
  2381  007CBC  6E39               	movwf	linspace@start,c
  2382  007CBE  0E00               	movlw	0
  2383  007CC0  6E3A               	movwf	linspace@start+1,c
  2384  007CC2  0E00               	movlw	0
  2385  007CC4  6E3B               	movwf	linspace@start+2,c
  2386  007CC6  0E00               	movlw	0
  2387  007CC8  6E3C               	movwf	linspace@end,c
  2388  007CCA  0EC8               	movlw	200
  2389  007CCC  6E3D               	movwf	linspace@end+1,c
  2390  007CCE  0E42               	movlw	66
  2391  007CD0  6E3E               	movwf	linspace@end+2,c
  2392  007CD2  0E00               	movlw	0
  2393  007CD4  6E40               	movwf	linspace@size+1,c
  2394  007CD6  0E28               	movlw	40
  2395  007CD8  6E3F               	movwf	linspace@size,c
  2396  007CDA  ECC5  F037         	call	_linspace	;wreg free
  2397                           
  2398                           ;fuzzy.c: 249: tri_mf(ante_mf1,x,-3.6, -2, -0.4);
  2399  007CDE  0101               	movlb	1	; () banked
  2400  007CE0  0E01               	movlw	high fuzzy_system_single2@ante_mf1
  2401  007CE2  6E47               	movwf	tri_mf@t_value+1,c
  2402  007CE4  0101               	movlb	1	; () banked
  2403  007CE6  0E00               	movlw	low fuzzy_system_single2@ante_mf1
  2404  007CE8  6E46               	movwf	tri_mf@t_value,c
  2405  007CEA  0106               	movlb	6	; () banked
  2406  007CEC  0E06               	movlw	high fuzzy_system_single2@x
  2407  007CEE  6E49               	movwf	tri_mf@x+1,c
  2408  007CF0  0106               	movlb	6	; () banked
  2409  007CF2  0E00               	movlw	low fuzzy_system_single2@x
  2410  007CF4  6E48               	movwf	tri_mf@x,c
  2411  007CF6  0E66               	movlw	102
  2412  007CF8  6E4A               	movwf	tri_mf@a,c
  2413  007CFA  0E66               	movlw	102
  2414  007CFC  6E4B               	movwf	tri_mf@a+1,c
  2415  007CFE  0EC0               	movlw	192
  2416  007D00  6E4C               	movwf	tri_mf@a+2,c
  2417  007D02  0E00               	movlw	0
  2418  007D04  6E4D               	movwf	tri_mf@b,c
  2419  007D06  0E00               	movlw	0
  2420  007D08  6E4E               	movwf	tri_mf@b+1,c
  2421  007D0A  0EC0               	movlw	192
  2422  007D0C  6E4F               	movwf	tri_mf@b+2,c
  2423  007D0E  0ECD               	movlw	205
  2424  007D10  6E50               	movwf	tri_mf@c,c
  2425  007D12  0ECC               	movlw	204
  2426  007D14  6E51               	movwf	tri_mf@c+1,c
  2427  007D16  0EBE               	movlw	190
  2428  007D18  6E52               	movwf	tri_mf@c+2,c
  2429  007D1A  EC46  F038         	call	_tri_mf	;wreg free
  2430                           
  2431                           ;fuzzy.c: 250: tri_mf(ante_mf2,x,-1.6, 0, 1.6);
  2432  007D1E  0101               	movlb	1	; () banked
  2433  007D20  0E01               	movlw	high fuzzy_system_single2@ante_mf2
  2434  007D22  6E47               	movwf	tri_mf@t_value+1,c
  2435  007D24  0101               	movlb	1	; () banked
  2436  007D26  0E78               	movlw	low fuzzy_system_single2@ante_mf2
  2437  007D28  6E46               	movwf	tri_mf@t_value,c
  2438  007D2A  0106               	movlb	6	; () banked
  2439  007D2C  0E06               	movlw	high fuzzy_system_single2@x
  2440  007D2E  6E49               	movwf	tri_mf@x+1,c
  2441  007D30  0106               	movlb	6	; () banked
  2442  007D32  0E00               	movlw	low fuzzy_system_single2@x
  2443  007D34  6E48               	movwf	tri_mf@x,c
  2444  007D36  0ECD               	movlw	205
  2445  007D38  6E4A               	movwf	tri_mf@a,c
  2446  007D3A  0ECC               	movlw	204
  2447  007D3C  6E4B               	movwf	tri_mf@a+1,c
  2448  007D3E  0EBF               	movlw	191
  2449  007D40  6E4C               	movwf	tri_mf@a+2,c
  2450  007D42  0E00               	movlw	0
  2451  007D44  6E4D               	movwf	tri_mf@b,c
  2452  007D46  0E00               	movlw	0
  2453  007D48  6E4E               	movwf	tri_mf@b+1,c
  2454  007D4A  0E00               	movlw	0
  2455  007D4C  6E4F               	movwf	tri_mf@b+2,c
  2456  007D4E  0ECD               	movlw	205
  2457  007D50  6E50               	movwf	tri_mf@c,c
  2458  007D52  0ECC               	movlw	204
  2459  007D54  6E51               	movwf	tri_mf@c+1,c
  2460  007D56  0E3F               	movlw	63
  2461  007D58  6E52               	movwf	tri_mf@c+2,c
  2462  007D5A  EC46  F038         	call	_tri_mf	;wreg free
  2463                           
  2464                           ;fuzzy.c: 251: tri_mf(ante_mf3,x,0.4, 2, 3.6);
  2465  007D5E  0102               	movlb	2	; () banked
  2466  007D60  0E02               	movlw	high fuzzy_system_single2@ante_mf3
  2467  007D62  6E47               	movwf	tri_mf@t_value+1,c
  2468  007D64  0102               	movlb	2	; () banked
  2469  007D66  0E78               	movlw	low fuzzy_system_single2@ante_mf3
  2470  007D68  6E46               	movwf	tri_mf@t_value,c
  2471  007D6A  0106               	movlb	6	; () banked
  2472  007D6C  0E06               	movlw	high fuzzy_system_single2@x
  2473  007D6E  6E49               	movwf	tri_mf@x+1,c
  2474  007D70  0106               	movlb	6	; () banked
  2475  007D72  0E00               	movlw	low fuzzy_system_single2@x
  2476  007D74  6E48               	movwf	tri_mf@x,c
  2477  007D76  0ECD               	movlw	205
  2478  007D78  6E4A               	movwf	tri_mf@a,c
  2479  007D7A  0ECC               	movlw	204
  2480  007D7C  6E4B               	movwf	tri_mf@a+1,c
  2481  007D7E  0E3E               	movlw	62
  2482  007D80  6E4C               	movwf	tri_mf@a+2,c
  2483  007D82  0E00               	movlw	0
  2484  007D84  6E4D               	movwf	tri_mf@b,c
  2485  007D86  0E00               	movlw	0
  2486  007D88  6E4E               	movwf	tri_mf@b+1,c
  2487  007D8A  0E40               	movlw	64
  2488  007D8C  6E4F               	movwf	tri_mf@b+2,c
  2489  007D8E  0E66               	movlw	102
  2490  007D90  6E50               	movwf	tri_mf@c,c
  2491  007D92  0E66               	movlw	102
  2492  007D94  6E51               	movwf	tri_mf@c+1,c
  2493  007D96  0E40               	movlw	64
  2494  007D98  6E52               	movwf	tri_mf@c+2,c
  2495  007D9A  EC46  F038         	call	_tri_mf	;wreg free
  2496                           
  2497                           ;fuzzy.c: 254: tri_mf(cons_mf1,y,-40, 0, 40);
  2498  007D9E  0103               	movlb	3	; () banked
  2499  007DA0  0E03               	movlw	high fuzzy_system_single2@cons_mf1
  2500  007DA2  6E47               	movwf	tri_mf@t_value+1,c
  2501  007DA4  0103               	movlb	3	; () banked
  2502  007DA6  0E00               	movlw	low fuzzy_system_single2@cons_mf1
  2503  007DA8  6E46               	movwf	tri_mf@t_value,c
  2504  007DAA  0106               	movlb	6	; () banked
  2505  007DAC  0E06               	movlw	high fuzzy_system_single2@y
  2506  007DAE  6E49               	movwf	tri_mf@x+1,c
  2507  007DB0  0106               	movlb	6	; () banked
  2508  007DB2  0E78               	movlw	low fuzzy_system_single2@y
  2509  007DB4  6E48               	movwf	tri_mf@x,c
  2510  007DB6  0E00               	movlw	0
  2511  007DB8  6E4A               	movwf	tri_mf@a,c
  2512  007DBA  0E20               	movlw	32
  2513  007DBC  6E4B               	movwf	tri_mf@a+1,c
  2514  007DBE  0EC2               	movlw	194
  2515  007DC0  6E4C               	movwf	tri_mf@a+2,c
  2516  007DC2  0E00               	movlw	0
  2517  007DC4  6E4D               	movwf	tri_mf@b,c
  2518  007DC6  0E00               	movlw	0
  2519  007DC8  6E4E               	movwf	tri_mf@b+1,c
  2520  007DCA  0E00               	movlw	0
  2521  007DCC  6E4F               	movwf	tri_mf@b+2,c
  2522  007DCE  0E00               	movlw	0
  2523  007DD0  6E50               	movwf	tri_mf@c,c
  2524  007DD2  0E20               	movlw	32
  2525  007DD4  6E51               	movwf	tri_mf@c+1,c
  2526  007DD6  0E42               	movlw	66
  2527  007DD8  6E52               	movwf	tri_mf@c+2,c
  2528  007DDA  EC46  F038         	call	_tri_mf	;wreg free
  2529                           
  2530                           ;fuzzy.c: 255: tri_mf(cons_mf2,y,10, 50, 90);
  2531  007DDE  0102               	movlb	2	; () banked
  2532  007DE0  0E02               	movlw	high fuzzy_system_single2@cons_mf2
  2533  007DE2  6E47               	movwf	tri_mf@t_value+1,c
  2534  007DE4  0102               	movlb	2	; () banked
  2535  007DE6  0E00               	movlw	low fuzzy_system_single2@cons_mf2
  2536  007DE8  6E46               	movwf	tri_mf@t_value,c
  2537  007DEA  0106               	movlb	6	; () banked
  2538  007DEC  0E06               	movlw	high fuzzy_system_single2@y
  2539  007DEE  6E49               	movwf	tri_mf@x+1,c
  2540  007DF0  0106               	movlb	6	; () banked
  2541  007DF2  0E78               	movlw	low fuzzy_system_single2@y
  2542  007DF4  6E48               	movwf	tri_mf@x,c
  2543  007DF6  0E00               	movlw	0
  2544  007DF8  6E4A               	movwf	tri_mf@a,c
  2545  007DFA  0E20               	movlw	32
  2546  007DFC  6E4B               	movwf	tri_mf@a+1,c
  2547  007DFE  0E41               	movlw	65
  2548  007E00  6E4C               	movwf	tri_mf@a+2,c
  2549  007E02  0E00               	movlw	0
  2550  007E04  6E4D               	movwf	tri_mf@b,c
  2551  007E06  0E48               	movlw	72
  2552  007E08  6E4E               	movwf	tri_mf@b+1,c
  2553  007E0A  0E42               	movlw	66
  2554  007E0C  6E4F               	movwf	tri_mf@b+2,c
  2555  007E0E  0E00               	movlw	0
  2556  007E10  6E50               	movwf	tri_mf@c,c
  2557  007E12  0EB4               	movlw	180
  2558  007E14  6E51               	movwf	tri_mf@c+1,c
  2559  007E16  0E42               	movlw	66
  2560  007E18  6E52               	movwf	tri_mf@c+2,c
  2561  007E1A  EC46  F038         	call	_tri_mf	;wreg free
  2562                           
  2563                           ;fuzzy.c: 256: tri_mf(cons_mf3,y,60, 100, 140);
  2564  007E1E  0105               	movlb	5	; () banked
  2565  007E20  0E05               	movlw	high fuzzy_system_single2@cons_mf3
  2566  007E22  6E47               	movwf	tri_mf@t_value+1,c
  2567  007E24  0105               	movlb	5	; () banked
  2568  007E26  0E00               	movlw	low fuzzy_system_single2@cons_mf3
  2569  007E28  6E46               	movwf	tri_mf@t_value,c
  2570  007E2A  0106               	movlb	6	; () banked
  2571  007E2C  0E06               	movlw	high fuzzy_system_single2@y
  2572  007E2E  6E49               	movwf	tri_mf@x+1,c
  2573  007E30  0106               	movlb	6	; () banked
  2574  007E32  0E78               	movlw	low fuzzy_system_single2@y
  2575  007E34  6E48               	movwf	tri_mf@x,c
  2576  007E36  0E00               	movlw	0
  2577  007E38  6E4A               	movwf	tri_mf@a,c
  2578  007E3A  0E70               	movlw	112
  2579  007E3C  6E4B               	movwf	tri_mf@a+1,c
  2580  007E3E  0E42               	movlw	66
  2581  007E40  6E4C               	movwf	tri_mf@a+2,c
  2582  007E42  0E00               	movlw	0
  2583  007E44  6E4D               	movwf	tri_mf@b,c
  2584  007E46  0EC8               	movlw	200
  2585  007E48  6E4E               	movwf	tri_mf@b+1,c
  2586  007E4A  0E42               	movlw	66
  2587  007E4C  6E4F               	movwf	tri_mf@b+2,c
  2588  007E4E  0E00               	movlw	0
  2589  007E50  6E50               	movwf	tri_mf@c,c
  2590  007E52  0E0C               	movlw	12
  2591  007E54  6E51               	movwf	tri_mf@c+1,c
  2592  007E56  0E43               	movlw	67
  2593  007E58  6E52               	movwf	tri_mf@c+2,c
  2594  007E5A  EC46  F038         	call	_tri_mf	;wreg free
  2595                           
  2596                           ;fuzzy.c: 260: w1=triangular(-3.6, -2, -0.4,input);
  2597  007E5E  0E66               	movlw	102
  2598  007E60  6E37               	movwf	triangular@a,c
  2599  007E62  0E66               	movlw	102
  2600  007E64  6E38               	movwf	triangular@a+1,c
  2601  007E66  0EC0               	movlw	192
  2602  007E68  6E39               	movwf	triangular@a+2,c
  2603  007E6A  0E00               	movlw	0
  2604  007E6C  6E3A               	movwf	triangular@b,c
  2605  007E6E  0E00               	movlw	0
  2606  007E70  6E3B               	movwf	triangular@b+1,c
  2607  007E72  0EC0               	movlw	192
  2608  007E74  6E3C               	movwf	triangular@b+2,c
  2609  007E76  0ECD               	movlw	205
  2610  007E78  6E3D               	movwf	triangular@c,c
  2611  007E7A  0ECC               	movlw	204
  2612  007E7C  6E3E               	movwf	triangular@c+1,c
  2613  007E7E  0EBE               	movlw	190
  2614  007E80  6E3F               	movwf	triangular@c+2,c
  2615  007E82  C053  F040         	movff	fuzzy_system_single2@input,triangular@x
  2616  007E86  C054  F041         	movff	fuzzy_system_single2@input+1,triangular@x+1
  2617  007E8A  C055  F042         	movff	fuzzy_system_single2@input+2,triangular@x+2
  2618  007E8E  EC5E  F03A         	call	_triangular	;wreg free
  2619  007E92  C037  F056         	movff	?_triangular,fuzzy_system_single2@w1
  2620  007E96  C038  F057         	movff	?_triangular+1,fuzzy_system_single2@w1+1
  2621  007E9A  C039  F058         	movff	?_triangular+2,fuzzy_system_single2@w1+2
  2622                           
  2623                           ;fuzzy.c: 261: w2=triangular(-1.6, 0, 1.6,input);
  2624  007E9E  0ECD               	movlw	205
  2625  007EA0  6E37               	movwf	triangular@a,c
  2626  007EA2  0ECC               	movlw	204
  2627  007EA4  6E38               	movwf	triangular@a+1,c
  2628  007EA6  0EBF               	movlw	191
  2629  007EA8  6E39               	movwf	triangular@a+2,c
  2630  007EAA  0E00               	movlw	0
  2631  007EAC  6E3A               	movwf	triangular@b,c
  2632  007EAE  0E00               	movlw	0
  2633  007EB0  6E3B               	movwf	triangular@b+1,c
  2634  007EB2  0E00               	movlw	0
  2635  007EB4  6E3C               	movwf	triangular@b+2,c
  2636  007EB6  0ECD               	movlw	205
  2637  007EB8  6E3D               	movwf	triangular@c,c
  2638  007EBA  0ECC               	movlw	204
  2639  007EBC  6E3E               	movwf	triangular@c+1,c
  2640  007EBE  0E3F               	movlw	63
  2641  007EC0  6E3F               	movwf	triangular@c+2,c
  2642  007EC2  C053  F040         	movff	fuzzy_system_single2@input,triangular@x
  2643  007EC6  C054  F041         	movff	fuzzy_system_single2@input+1,triangular@x+1
  2644  007ECA  C055  F042         	movff	fuzzy_system_single2@input+2,triangular@x+2
  2645  007ECE  EC5E  F03A         	call	_triangular	;wreg free
  2646  007ED2  C037  F059         	movff	?_triangular,fuzzy_system_single2@w2
  2647  007ED6  C038  F05A         	movff	?_triangular+1,fuzzy_system_single2@w2+1
  2648  007EDA  C039  F05B         	movff	?_triangular+2,fuzzy_system_single2@w2+2
  2649                           
  2650                           ;fuzzy.c: 262: w3=triangular(0.4, 2, 3.6,input);
  2651  007EDE  0ECD               	movlw	205
  2652  007EE0  6E37               	movwf	triangular@a,c
  2653  007EE2  0ECC               	movlw	204
  2654  007EE4  6E38               	movwf	triangular@a+1,c
  2655  007EE6  0E3E               	movlw	62
  2656  007EE8  6E39               	movwf	triangular@a+2,c
  2657  007EEA  0E00               	movlw	0
  2658  007EEC  6E3A               	movwf	triangular@b,c
  2659  007EEE  0E00               	movlw	0
  2660  007EF0  6E3B               	movwf	triangular@b+1,c
  2661  007EF2  0E40               	movlw	64
  2662  007EF4  6E3C               	movwf	triangular@b+2,c
  2663  007EF6  0E66               	movlw	102
  2664  007EF8  6E3D               	movwf	triangular@c,c
  2665  007EFA  0E66               	movlw	102
  2666  007EFC  6E3E               	movwf	triangular@c+1,c
  2667  007EFE  0E40               	movlw	64
  2668  007F00  6E3F               	movwf	triangular@c+2,c
  2669  007F02  C053  F040         	movff	fuzzy_system_single2@input,triangular@x
  2670  007F06  C054  F041         	movff	fuzzy_system_single2@input+1,triangular@x+1
  2671  007F0A  C055  F042         	movff	fuzzy_system_single2@input+2,triangular@x+2
  2672  007F0E  EC5E  F03A         	call	_triangular	;wreg free
  2673  007F12  C037  F05C         	movff	?_triangular,fuzzy_system_single2@w3
  2674  007F16  C038  F05D         	movff	?_triangular+1,fuzzy_system_single2@w3+1
  2675  007F1A  C039  F05E         	movff	?_triangular+2,fuzzy_system_single2@w3+2
  2676                           
  2677                           ;fuzzy.c: 263: qualified(qualified_cons_mf1,cons_mf1,w1);
  2678  007F1E  0103               	movlb	3	; () banked
  2679  007F20  0E03               	movlw	high fuzzy_system_single2@qualified_cons_mf1
  2680  007F22  6E11               	movwf	qualified@y+1,c
  2681  007F24  0103               	movlb	3	; () banked
  2682  007F26  0E78               	movlw	low fuzzy_system_single2@qualified_cons_mf1
  2683  007F28  6E10               	movwf	qualified@y,c
  2684  007F2A  0103               	movlb	3	; () banked
  2685  007F2C  0E03               	movlw	high fuzzy_system_single2@cons_mf1
  2686  007F2E  6E13               	movwf	qualified@x+1,c
  2687  007F30  0103               	movlb	3	; () banked
  2688  007F32  0E00               	movlw	low fuzzy_system_single2@cons_mf1
  2689  007F34  6E12               	movwf	qualified@x,c
  2690  007F36  C056  F014         	movff	fuzzy_system_single2@w1,qualified@w
  2691  007F3A  C057  F015         	movff	fuzzy_system_single2@w1+1,qualified@w+1
  2692  007F3E  C058  F016         	movff	fuzzy_system_single2@w1+2,qualified@w+2
  2693  007F42  ECD7  F036         	call	_qualified	;wreg free
  2694                           
  2695                           ;fuzzy.c: 264: qualified(qualified_cons_mf2,cons_mf3,w2);
  2696  007F46  0104               	movlb	4	; () banked
  2697  007F48  0E04               	movlw	high fuzzy_system_single2@qualified_cons_mf2
  2698  007F4A  6E11               	movwf	qualified@y+1,c
  2699  007F4C  0104               	movlb	4	; () banked
  2700  007F4E  0E78               	movlw	low fuzzy_system_single2@qualified_cons_mf2
  2701  007F50  6E10               	movwf	qualified@y,c
  2702  007F52  0105               	movlb	5	; () banked
  2703  007F54  0E05               	movlw	high fuzzy_system_single2@cons_mf3
  2704  007F56  6E13               	movwf	qualified@x+1,c
  2705  007F58  0105               	movlb	5	; () banked
  2706  007F5A  0E00               	movlw	low fuzzy_system_single2@cons_mf3
  2707  007F5C  6E12               	movwf	qualified@x,c
  2708  007F5E  C059  F014         	movff	fuzzy_system_single2@w2,qualified@w
  2709  007F62  C05A  F015         	movff	fuzzy_system_single2@w2+1,qualified@w+1
  2710  007F66  C05B  F016         	movff	fuzzy_system_single2@w2+2,qualified@w+2
  2711  007F6A  ECD7  F036         	call	_qualified	;wreg free
  2712                           
  2713                           ;fuzzy.c: 265: qualified(qualified_cons_mf3,cons_mf3,w3);
  2714  007F6E  0104               	movlb	4	; () banked
  2715  007F70  0E04               	movlw	high fuzzy_system_single2@qualified_cons_mf3
  2716  007F72  6E11               	movwf	qualified@y+1,c
  2717  007F74  0104               	movlb	4	; () banked
  2718  007F76  0E00               	movlw	low fuzzy_system_single2@qualified_cons_mf3
  2719  007F78  6E10               	movwf	qualified@y,c
  2720  007F7A  0105               	movlb	5	; () banked
  2721  007F7C  0E05               	movlw	high fuzzy_system_single2@cons_mf3
  2722  007F7E  6E13               	movwf	qualified@x+1,c
  2723  007F80  0105               	movlb	5	; () banked
  2724  007F82  0E00               	movlw	low fuzzy_system_single2@cons_mf3
  2725  007F84  6E12               	movwf	qualified@x,c
  2726  007F86  C05C  F014         	movff	fuzzy_system_single2@w3,qualified@w
  2727  007F8A  C05D  F015         	movff	fuzzy_system_single2@w3+1,qualified@w+1
  2728  007F8E  C05E  F016         	movff	fuzzy_system_single2@w3+2,qualified@w+2
  2729  007F92  ECD7  F036         	call	_qualified	;wreg free
  2730                           
  2731                           ;fuzzy.c: 266: out_mf(overall_out_mf,qualified_cons_mf1,qualified_cons_mf2,qualified_con
      +                          s_mf3);
  2732  007F96  0105               	movlb	5	; () banked
  2733  007F98  0E05               	movlw	high fuzzy_system_single2@overall_out_mf
  2734  007F9A  6E11               	movwf	out_mf@result+1,c
  2735  007F9C  0105               	movlb	5	; () banked
  2736  007F9E  0E78               	movlw	low fuzzy_system_single2@overall_out_mf
  2737  007FA0  6E10               	movwf	out_mf@result,c
  2738  007FA2  0103               	movlb	3	; () banked
  2739  007FA4  0E03               	movlw	high fuzzy_system_single2@qualified_cons_mf1
  2740  007FA6  6E13               	movwf	out_mf@x+1,c
  2741  007FA8  0103               	movlb	3	; () banked
  2742  007FAA  0E78               	movlw	low fuzzy_system_single2@qualified_cons_mf1
  2743  007FAC  6E12               	movwf	out_mf@x,c
  2744  007FAE  0104               	movlb	4	; () banked
  2745  007FB0  0E04               	movlw	high fuzzy_system_single2@qualified_cons_mf2
  2746  007FB2  6E15               	movwf	out_mf@y+1,c
  2747  007FB4  0104               	movlb	4	; () banked
  2748  007FB6  0E78               	movlw	low fuzzy_system_single2@qualified_cons_mf2
  2749  007FB8  6E14               	movwf	out_mf@y,c
  2750  007FBA  0104               	movlb	4	; () banked
  2751  007FBC  0E04               	movlw	high fuzzy_system_single2@qualified_cons_mf3
  2752  007FBE  6E17               	movwf	out_mf@z+1,c
  2753  007FC0  0104               	movlb	4	; () banked
  2754  007FC2  0E00               	movlw	low fuzzy_system_single2@qualified_cons_mf3
  2755  007FC4  6E16               	movwf	out_mf@z,c
  2756  007FC6  EC51  F03B         	call	_out_mf	;wreg free
  2757                           
  2758                           ;fuzzy.c: 267: output= defuzzy(y,overall_out_mf);
  2759  007FCA  0106               	movlb	6	; () banked
  2760  007FCC  0E06               	movlw	high fuzzy_system_single2@y
  2761  007FCE  6E38               	movwf	defuzzy@x+1,c
  2762  007FD0  0106               	movlb	6	; () banked
  2763  007FD2  0E78               	movlw	low fuzzy_system_single2@y
  2764  007FD4  6E37               	movwf	defuzzy@x,c
  2765  007FD6  0105               	movlb	5	; () banked
  2766  007FD8  0E05               	movlw	high fuzzy_system_single2@overall_out_mf
  2767  007FDA  6E3A               	movwf	defuzzy@mf+1,c
  2768  007FDC  0105               	movlb	5	; () banked
  2769  007FDE  0E78               	movlw	low fuzzy_system_single2@overall_out_mf
  2770  007FE0  6E39               	movwf	defuzzy@mf,c
  2771  007FE2  ECD7  F038         	call	_defuzzy	;wreg free
  2772  007FE6  C037  F0DA         	movff	?_defuzzy,fuzzy_system_single2@output
  2773  007FEA  C038  F0DB         	movff	?_defuzzy+1,fuzzy_system_single2@output+1
  2774  007FEE  C039  F0DC         	movff	?_defuzzy+2,fuzzy_system_single2@output+2
  2775                           
  2776                           ;fuzzy.c: 268: return output;
  2777  007FF2  C0DA  F053         	movff	fuzzy_system_single2@output,?_fuzzy_system_single2
  2778  007FF6  C0DB  F054         	movff	fuzzy_system_single2@output+1,?_fuzzy_system_single2+1
  2779  007FFA  C0DC  F055         	movff	fuzzy_system_single2@output+2,?_fuzzy_system_single2+2
  2780  007FFE  0012               	return	
  2781  008000                     __end_of_fuzzy_system_single2:
  2782                           	opt stack 0
  2783                           tblptru	equ	0xFF8
  2784                           tblptrh	equ	0xFF7
  2785                           tblptrl	equ	0xFF6
  2786                           tablat	equ	0xFF5
  2787                           wreg	equ	0xFE8
  2788                           status	equ	0xFD8
  2789                           
  2790 ;; *************** function _fuzzy_system_single1 *****************
  2791 ;; Defined at:
  2792 ;;		line 275 in file "fuzzy.c"
  2793 ;; Parameters:    Size  Location     Type
  2794 ;;  input           3   82[COMRAM] int 
  2795 ;; Auto vars:     Size  Location     Type
  2796 ;;  y             120  120[BANK6 ] [40]
  2797 ;;  x             120    0[BANK6 ] [40]
  2798 ;;  overall_out_  120  120[BANK5 ] [40]
  2799 ;;  qualified_co  120  120[BANK4 ] [40]
  2800 ;;  qualified_co  120  120[BANK3 ] [40]
  2801 ;;  cons_mf3      120    0[BANK5 ] [40]
  2802 ;;  qualified_co  120    0[BANK4 ] [40]
  2803 ;;  cons_mf1      120    0[BANK3 ] [40]
  2804 ;;  ante_mf3      120  120[BANK2 ] [40]
  2805 ;;  cons_mf2      120    0[BANK2 ] [40]
  2806 ;;  ante_mf2      120  120[BANK1 ] [40]
  2807 ;;  ante_mf1      120    0[BANK1 ] [40]
  2808 ;;  output          3  122[BANK0 ] [40]
  2809 ;;  w3              3   91[COMRAM] [40]
  2810 ;;  w2              3   88[COMRAM] [40]
  2811 ;;  w1              3   85[COMRAM] [40]
  2812 ;;  i               2    0        int 
  2813 ;; Return value:  Size  Location     Type
  2814 ;;                  3   82[COMRAM] int 
  2815 ;; Registers used:
  2816 ;;		wreg, fsr1l, fsr1h, fsr2l, fsr2h, status,2, status,0, prodl, prodh, cstack
  2817 ;; Tracked objects:
  2818 ;;		On entry : 0/0
  2819 ;;		On exit  : 0/0
  2820 ;;		Unchanged: 0/0
  2821 ;; Data sizes:     COMRAM   BANK0   BANK1   BANK2   BANK3   BANK4   BANK5   BANK6   BANK7
  2822 ;;      Params:         3       0       0       0       0       0       0       0       0
  2823 ;;      Locals:         9       3     240     240     240     240     240     240       0
  2824 ;;      Temps:          0       0       0       0       0       0       0       0       0
  2825 ;;      Totals:        12       3     240     240     240     240     240     240       0
  2826 ;;Total ram usage:     1455 bytes
  2827 ;; Hardware stack levels used:    1
  2828 ;; Hardware stack levels required when called:    4
  2829 ;; This function calls:
  2830 ;;		_defuzzy
  2831 ;;		_linspace
  2832 ;;		_out_mf
  2833 ;;		_qualified
  2834 ;;		_tri_mf
  2835 ;;		_triangular
  2836 ;; This function is called by:
  2837 ;;		_main
  2838 ;; This function uses a non-reentrant model
  2839 ;;
  2840                           
  2841                           	psect	text17
  2842  0078FC                     __ptext17:
  2843                           	opt stack 0
  2844  0078FC                     _fuzzy_system_single1:
  2845                           	opt stack 26
  2846                           
  2847                           ;fuzzy.c: 277: double ante_mf1[40],cons_mf1[40];
  2848                           ;fuzzy.c: 278: double ante_mf2[40],cons_mf2[40];
  2849                           ;fuzzy.c: 279: double ante_mf3[40],cons_mf3[40];
  2850                           ;fuzzy.c: 280: double x[40],y[40];
  2851                           ;fuzzy.c: 281: double qualified_cons_mf1[40],qualified_cons_mf2[40],qualified_cons_mf3[4
      +                          0];
  2852                           ;fuzzy.c: 282: double overall_out_mf[40];
  2853                           ;fuzzy.c: 283: double w1,w2,w3;
  2854                           ;fuzzy.c: 284: double output;
  2855                           ;fuzzy.c: 285: int i;
  2856                           ;fuzzy.c: 286: linspace(x,-2,2,40);
  2857                           
  2858                           ;incstack = 0
  2859  0078FC  0106               	movlb	6	; () banked
  2860  0078FE  0E06               	movlw	high fuzzy_system_single1@x
  2861  007900  6E38               	movwf	linspace@x+1,c
  2862  007902  0106               	movlb	6	; () banked
  2863  007904  0E00               	movlw	low fuzzy_system_single1@x
  2864  007906  6E37               	movwf	linspace@x,c
  2865  007908  0E00               	movlw	0
  2866  00790A  6E39               	movwf	linspace@start,c
  2867  00790C  0E00               	movlw	0
  2868  00790E  6E3A               	movwf	linspace@start+1,c
  2869  007910  0EC0               	movlw	192
  2870  007912  6E3B               	movwf	linspace@start+2,c
  2871  007914  0E00               	movlw	0
  2872  007916  6E3C               	movwf	linspace@end,c
  2873  007918  0E00               	movlw	0
  2874  00791A  6E3D               	movwf	linspace@end+1,c
  2875  00791C  0E40               	movlw	64
  2876  00791E  6E3E               	movwf	linspace@end+2,c
  2877  007920  0E00               	movlw	0
  2878  007922  6E40               	movwf	linspace@size+1,c
  2879  007924  0E28               	movlw	40
  2880  007926  6E3F               	movwf	linspace@size,c
  2881  007928  ECC5  F037         	call	_linspace	;wreg free
  2882                           
  2883                           ;fuzzy.c: 287: linspace(y,0,100,40);
  2884  00792C  0106               	movlb	6	; () banked
  2885  00792E  0E06               	movlw	high fuzzy_system_single1@y
  2886  007930  6E38               	movwf	linspace@x+1,c
  2887  007932  0106               	movlb	6	; () banked
  2888  007934  0E78               	movlw	low fuzzy_system_single1@y
  2889  007936  6E37               	movwf	linspace@x,c
  2890  007938  0E00               	movlw	0
  2891  00793A  6E39               	movwf	linspace@start,c
  2892  00793C  0E00               	movlw	0
  2893  00793E  6E3A               	movwf	linspace@start+1,c
  2894  007940  0E00               	movlw	0
  2895  007942  6E3B               	movwf	linspace@start+2,c
  2896  007944  0E00               	movlw	0
  2897  007946  6E3C               	movwf	linspace@end,c
  2898  007948  0EC8               	movlw	200
  2899  00794A  6E3D               	movwf	linspace@end+1,c
  2900  00794C  0E42               	movlw	66
  2901  00794E  6E3E               	movwf	linspace@end+2,c
  2902  007950  0E00               	movlw	0
  2903  007952  6E40               	movwf	linspace@size+1,c
  2904  007954  0E28               	movlw	40
  2905  007956  6E3F               	movwf	linspace@size,c
  2906  007958  ECC5  F037         	call	_linspace	;wreg free
  2907                           
  2908                           ;fuzzy.c: 290: tri_mf(ante_mf1,x,-3.6, -2, -0.4);
  2909  00795C  0101               	movlb	1	; () banked
  2910  00795E  0E01               	movlw	high fuzzy_system_single1@ante_mf1
  2911  007960  6E47               	movwf	tri_mf@t_value+1,c
  2912  007962  0101               	movlb	1	; () banked
  2913  007964  0E00               	movlw	low fuzzy_system_single1@ante_mf1
  2914  007966  6E46               	movwf	tri_mf@t_value,c
  2915  007968  0106               	movlb	6	; () banked
  2916  00796A  0E06               	movlw	high fuzzy_system_single1@x
  2917  00796C  6E49               	movwf	tri_mf@x+1,c
  2918  00796E  0106               	movlb	6	; () banked
  2919  007970  0E00               	movlw	low fuzzy_system_single1@x
  2920  007972  6E48               	movwf	tri_mf@x,c
  2921  007974  0E66               	movlw	102
  2922  007976  6E4A               	movwf	tri_mf@a,c
  2923  007978  0E66               	movlw	102
  2924  00797A  6E4B               	movwf	tri_mf@a+1,c
  2925  00797C  0EC0               	movlw	192
  2926  00797E  6E4C               	movwf	tri_mf@a+2,c
  2927  007980  0E00               	movlw	0
  2928  007982  6E4D               	movwf	tri_mf@b,c
  2929  007984  0E00               	movlw	0
  2930  007986  6E4E               	movwf	tri_mf@b+1,c
  2931  007988  0EC0               	movlw	192
  2932  00798A  6E4F               	movwf	tri_mf@b+2,c
  2933  00798C  0ECD               	movlw	205
  2934  00798E  6E50               	movwf	tri_mf@c,c
  2935  007990  0ECC               	movlw	204
  2936  007992  6E51               	movwf	tri_mf@c+1,c
  2937  007994  0EBE               	movlw	190
  2938  007996  6E52               	movwf	tri_mf@c+2,c
  2939  007998  EC46  F038         	call	_tri_mf	;wreg free
  2940                           
  2941                           ;fuzzy.c: 291: tri_mf(ante_mf2,x,-1.6, 0, 1.6);
  2942  00799C  0101               	movlb	1	; () banked
  2943  00799E  0E01               	movlw	high fuzzy_system_single1@ante_mf2
  2944  0079A0  6E47               	movwf	tri_mf@t_value+1,c
  2945  0079A2  0101               	movlb	1	; () banked
  2946  0079A4  0E78               	movlw	low fuzzy_system_single1@ante_mf2
  2947  0079A6  6E46               	movwf	tri_mf@t_value,c
  2948  0079A8  0106               	movlb	6	; () banked
  2949  0079AA  0E06               	movlw	high fuzzy_system_single1@x
  2950  0079AC  6E49               	movwf	tri_mf@x+1,c
  2951  0079AE  0106               	movlb	6	; () banked
  2952  0079B0  0E00               	movlw	low fuzzy_system_single1@x
  2953  0079B2  6E48               	movwf	tri_mf@x,c
  2954  0079B4  0ECD               	movlw	205
  2955  0079B6  6E4A               	movwf	tri_mf@a,c
  2956  0079B8  0ECC               	movlw	204
  2957  0079BA  6E4B               	movwf	tri_mf@a+1,c
  2958  0079BC  0EBF               	movlw	191
  2959  0079BE  6E4C               	movwf	tri_mf@a+2,c
  2960  0079C0  0E00               	movlw	0
  2961  0079C2  6E4D               	movwf	tri_mf@b,c
  2962  0079C4  0E00               	movlw	0
  2963  0079C6  6E4E               	movwf	tri_mf@b+1,c
  2964  0079C8  0E00               	movlw	0
  2965  0079CA  6E4F               	movwf	tri_mf@b+2,c
  2966  0079CC  0ECD               	movlw	205
  2967  0079CE  6E50               	movwf	tri_mf@c,c
  2968  0079D0  0ECC               	movlw	204
  2969  0079D2  6E51               	movwf	tri_mf@c+1,c
  2970  0079D4  0E3F               	movlw	63
  2971  0079D6  6E52               	movwf	tri_mf@c+2,c
  2972  0079D8  EC46  F038         	call	_tri_mf	;wreg free
  2973                           
  2974                           ;fuzzy.c: 292: tri_mf(ante_mf3,x,0.4, 2, 3.6);
  2975  0079DC  0102               	movlb	2	; () banked
  2976  0079DE  0E02               	movlw	high fuzzy_system_single1@ante_mf3
  2977  0079E0  6E47               	movwf	tri_mf@t_value+1,c
  2978  0079E2  0102               	movlb	2	; () banked
  2979  0079E4  0E78               	movlw	low fuzzy_system_single1@ante_mf3
  2980  0079E6  6E46               	movwf	tri_mf@t_value,c
  2981  0079E8  0106               	movlb	6	; () banked
  2982  0079EA  0E06               	movlw	high fuzzy_system_single1@x
  2983  0079EC  6E49               	movwf	tri_mf@x+1,c
  2984  0079EE  0106               	movlb	6	; () banked
  2985  0079F0  0E00               	movlw	low fuzzy_system_single1@x
  2986  0079F2  6E48               	movwf	tri_mf@x,c
  2987  0079F4  0ECD               	movlw	205
  2988  0079F6  6E4A               	movwf	tri_mf@a,c
  2989  0079F8  0ECC               	movlw	204
  2990  0079FA  6E4B               	movwf	tri_mf@a+1,c
  2991  0079FC  0E3E               	movlw	62
  2992  0079FE  6E4C               	movwf	tri_mf@a+2,c
  2993  007A00  0E00               	movlw	0
  2994  007A02  6E4D               	movwf	tri_mf@b,c
  2995  007A04  0E00               	movlw	0
  2996  007A06  6E4E               	movwf	tri_mf@b+1,c
  2997  007A08  0E40               	movlw	64
  2998  007A0A  6E4F               	movwf	tri_mf@b+2,c
  2999  007A0C  0E66               	movlw	102
  3000  007A0E  6E50               	movwf	tri_mf@c,c
  3001  007A10  0E66               	movlw	102
  3002  007A12  6E51               	movwf	tri_mf@c+1,c
  3003  007A14  0E40               	movlw	64
  3004  007A16  6E52               	movwf	tri_mf@c+2,c
  3005  007A18  EC46  F038         	call	_tri_mf	;wreg free
  3006                           
  3007                           ;fuzzy.c: 295: tri_mf(cons_mf1,y,-40, 0, 40);
  3008  007A1C  0103               	movlb	3	; () banked
  3009  007A1E  0E03               	movlw	high fuzzy_system_single1@cons_mf1
  3010  007A20  6E47               	movwf	tri_mf@t_value+1,c
  3011  007A22  0103               	movlb	3	; () banked
  3012  007A24  0E00               	movlw	low fuzzy_system_single1@cons_mf1
  3013  007A26  6E46               	movwf	tri_mf@t_value,c
  3014  007A28  0106               	movlb	6	; () banked
  3015  007A2A  0E06               	movlw	high fuzzy_system_single1@y
  3016  007A2C  6E49               	movwf	tri_mf@x+1,c
  3017  007A2E  0106               	movlb	6	; () banked
  3018  007A30  0E78               	movlw	low fuzzy_system_single1@y
  3019  007A32  6E48               	movwf	tri_mf@x,c
  3020  007A34  0E00               	movlw	0
  3021  007A36  6E4A               	movwf	tri_mf@a,c
  3022  007A38  0E20               	movlw	32
  3023  007A3A  6E4B               	movwf	tri_mf@a+1,c
  3024  007A3C  0EC2               	movlw	194
  3025  007A3E  6E4C               	movwf	tri_mf@a+2,c
  3026  007A40  0E00               	movlw	0
  3027  007A42  6E4D               	movwf	tri_mf@b,c
  3028  007A44  0E00               	movlw	0
  3029  007A46  6E4E               	movwf	tri_mf@b+1,c
  3030  007A48  0E00               	movlw	0
  3031  007A4A  6E4F               	movwf	tri_mf@b+2,c
  3032  007A4C  0E00               	movlw	0
  3033  007A4E  6E50               	movwf	tri_mf@c,c
  3034  007A50  0E20               	movlw	32
  3035  007A52  6E51               	movwf	tri_mf@c+1,c
  3036  007A54  0E42               	movlw	66
  3037  007A56  6E52               	movwf	tri_mf@c+2,c
  3038  007A58  EC46  F038         	call	_tri_mf	;wreg free
  3039                           
  3040                           ;fuzzy.c: 296: tri_mf(cons_mf2,y,10, 50, 90);
  3041  007A5C  0102               	movlb	2	; () banked
  3042  007A5E  0E02               	movlw	high fuzzy_system_single1@cons_mf2
  3043  007A60  6E47               	movwf	tri_mf@t_value+1,c
  3044  007A62  0102               	movlb	2	; () banked
  3045  007A64  0E00               	movlw	low fuzzy_system_single1@cons_mf2
  3046  007A66  6E46               	movwf	tri_mf@t_value,c
  3047  007A68  0106               	movlb	6	; () banked
  3048  007A6A  0E06               	movlw	high fuzzy_system_single1@y
  3049  007A6C  6E49               	movwf	tri_mf@x+1,c
  3050  007A6E  0106               	movlb	6	; () banked
  3051  007A70  0E78               	movlw	low fuzzy_system_single1@y
  3052  007A72  6E48               	movwf	tri_mf@x,c
  3053  007A74  0E00               	movlw	0
  3054  007A76  6E4A               	movwf	tri_mf@a,c
  3055  007A78  0E20               	movlw	32
  3056  007A7A  6E4B               	movwf	tri_mf@a+1,c
  3057  007A7C  0E41               	movlw	65
  3058  007A7E  6E4C               	movwf	tri_mf@a+2,c
  3059  007A80  0E00               	movlw	0
  3060  007A82  6E4D               	movwf	tri_mf@b,c
  3061  007A84  0E48               	movlw	72
  3062  007A86  6E4E               	movwf	tri_mf@b+1,c
  3063  007A88  0E42               	movlw	66
  3064  007A8A  6E4F               	movwf	tri_mf@b+2,c
  3065  007A8C  0E00               	movlw	0
  3066  007A8E  6E50               	movwf	tri_mf@c,c
  3067  007A90  0EB4               	movlw	180
  3068  007A92  6E51               	movwf	tri_mf@c+1,c
  3069  007A94  0E42               	movlw	66
  3070  007A96  6E52               	movwf	tri_mf@c+2,c
  3071  007A98  EC46  F038         	call	_tri_mf	;wreg free
  3072                           
  3073                           ;fuzzy.c: 297: tri_mf(cons_mf3,y,60, 100, 140);
  3074  007A9C  0105               	movlb	5	; () banked
  3075  007A9E  0E05               	movlw	high fuzzy_system_single1@cons_mf3
  3076  007AA0  6E47               	movwf	tri_mf@t_value+1,c
  3077  007AA2  0105               	movlb	5	; () banked
  3078  007AA4  0E00               	movlw	low fuzzy_system_single1@cons_mf3
  3079  007AA6  6E46               	movwf	tri_mf@t_value,c
  3080  007AA8  0106               	movlb	6	; () banked
  3081  007AAA  0E06               	movlw	high fuzzy_system_single1@y
  3082  007AAC  6E49               	movwf	tri_mf@x+1,c
  3083  007AAE  0106               	movlb	6	; () banked
  3084  007AB0  0E78               	movlw	low fuzzy_system_single1@y
  3085  007AB2  6E48               	movwf	tri_mf@x,c
  3086  007AB4  0E00               	movlw	0
  3087  007AB6  6E4A               	movwf	tri_mf@a,c
  3088  007AB8  0E70               	movlw	112
  3089  007ABA  6E4B               	movwf	tri_mf@a+1,c
  3090  007ABC  0E42               	movlw	66
  3091  007ABE  6E4C               	movwf	tri_mf@a+2,c
  3092  007AC0  0E00               	movlw	0
  3093  007AC2  6E4D               	movwf	tri_mf@b,c
  3094  007AC4  0EC8               	movlw	200
  3095  007AC6  6E4E               	movwf	tri_mf@b+1,c
  3096  007AC8  0E42               	movlw	66
  3097  007ACA  6E4F               	movwf	tri_mf@b+2,c
  3098  007ACC  0E00               	movlw	0
  3099  007ACE  6E50               	movwf	tri_mf@c,c
  3100  007AD0  0E0C               	movlw	12
  3101  007AD2  6E51               	movwf	tri_mf@c+1,c
  3102  007AD4  0E43               	movlw	67
  3103  007AD6  6E52               	movwf	tri_mf@c+2,c
  3104  007AD8  EC46  F038         	call	_tri_mf	;wreg free
  3105                           
  3106                           ;fuzzy.c: 301: w1=triangular(-3.6, -2, -0.4,input);
  3107  007ADC  0E66               	movlw	102
  3108  007ADE  6E37               	movwf	triangular@a,c
  3109  007AE0  0E66               	movlw	102
  3110  007AE2  6E38               	movwf	triangular@a+1,c
  3111  007AE4  0EC0               	movlw	192
  3112  007AE6  6E39               	movwf	triangular@a+2,c
  3113  007AE8  0E00               	movlw	0
  3114  007AEA  6E3A               	movwf	triangular@b,c
  3115  007AEC  0E00               	movlw	0
  3116  007AEE  6E3B               	movwf	triangular@b+1,c
  3117  007AF0  0EC0               	movlw	192
  3118  007AF2  6E3C               	movwf	triangular@b+2,c
  3119  007AF4  0ECD               	movlw	205
  3120  007AF6  6E3D               	movwf	triangular@c,c
  3121  007AF8  0ECC               	movlw	204
  3122  007AFA  6E3E               	movwf	triangular@c+1,c
  3123  007AFC  0EBE               	movlw	190
  3124  007AFE  6E3F               	movwf	triangular@c+2,c
  3125  007B00  C053  F040         	movff	fuzzy_system_single1@input,triangular@x
  3126  007B04  C054  F041         	movff	fuzzy_system_single1@input+1,triangular@x+1
  3127  007B08  C055  F042         	movff	fuzzy_system_single1@input+2,triangular@x+2
  3128  007B0C  EC5E  F03A         	call	_triangular	;wreg free
  3129  007B10  C037  F056         	movff	?_triangular,fuzzy_system_single1@w1
  3130  007B14  C038  F057         	movff	?_triangular+1,fuzzy_system_single1@w1+1
  3131  007B18  C039  F058         	movff	?_triangular+2,fuzzy_system_single1@w1+2
  3132                           
  3133                           ;fuzzy.c: 302: w2=triangular(-1.6, 0, 1.6,input);
  3134  007B1C  0ECD               	movlw	205
  3135  007B1E  6E37               	movwf	triangular@a,c
  3136  007B20  0ECC               	movlw	204
  3137  007B22  6E38               	movwf	triangular@a+1,c
  3138  007B24  0EBF               	movlw	191
  3139  007B26  6E39               	movwf	triangular@a+2,c
  3140  007B28  0E00               	movlw	0
  3141  007B2A  6E3A               	movwf	triangular@b,c
  3142  007B2C  0E00               	movlw	0
  3143  007B2E  6E3B               	movwf	triangular@b+1,c
  3144  007B30  0E00               	movlw	0
  3145  007B32  6E3C               	movwf	triangular@b+2,c
  3146  007B34  0ECD               	movlw	205
  3147  007B36  6E3D               	movwf	triangular@c,c
  3148  007B38  0ECC               	movlw	204
  3149  007B3A  6E3E               	movwf	triangular@c+1,c
  3150  007B3C  0E3F               	movlw	63
  3151  007B3E  6E3F               	movwf	triangular@c+2,c
  3152  007B40  C053  F040         	movff	fuzzy_system_single1@input,triangular@x
  3153  007B44  C054  F041         	movff	fuzzy_system_single1@input+1,triangular@x+1
  3154  007B48  C055  F042         	movff	fuzzy_system_single1@input+2,triangular@x+2
  3155  007B4C  EC5E  F03A         	call	_triangular	;wreg free
  3156  007B50  C037  F059         	movff	?_triangular,fuzzy_system_single1@w2
  3157  007B54  C038  F05A         	movff	?_triangular+1,fuzzy_system_single1@w2+1
  3158  007B58  C039  F05B         	movff	?_triangular+2,fuzzy_system_single1@w2+2
  3159                           
  3160                           ;fuzzy.c: 303: w3=triangular(0.4, 2, 3.6,input);
  3161  007B5C  0ECD               	movlw	205
  3162  007B5E  6E37               	movwf	triangular@a,c
  3163  007B60  0ECC               	movlw	204
  3164  007B62  6E38               	movwf	triangular@a+1,c
  3165  007B64  0E3E               	movlw	62
  3166  007B66  6E39               	movwf	triangular@a+2,c
  3167  007B68  0E00               	movlw	0
  3168  007B6A  6E3A               	movwf	triangular@b,c
  3169  007B6C  0E00               	movlw	0
  3170  007B6E  6E3B               	movwf	triangular@b+1,c
  3171  007B70  0E40               	movlw	64
  3172  007B72  6E3C               	movwf	triangular@b+2,c
  3173  007B74  0E66               	movlw	102
  3174  007B76  6E3D               	movwf	triangular@c,c
  3175  007B78  0E66               	movlw	102
  3176  007B7A  6E3E               	movwf	triangular@c+1,c
  3177  007B7C  0E40               	movlw	64
  3178  007B7E  6E3F               	movwf	triangular@c+2,c
  3179  007B80  C053  F040         	movff	fuzzy_system_single1@input,triangular@x
  3180  007B84  C054  F041         	movff	fuzzy_system_single1@input+1,triangular@x+1
  3181  007B88  C055  F042         	movff	fuzzy_system_single1@input+2,triangular@x+2
  3182  007B8C  EC5E  F03A         	call	_triangular	;wreg free
  3183  007B90  C037  F05C         	movff	?_triangular,fuzzy_system_single1@w3
  3184  007B94  C038  F05D         	movff	?_triangular+1,fuzzy_system_single1@w3+1
  3185  007B98  C039  F05E         	movff	?_triangular+2,fuzzy_system_single1@w3+2
  3186                           
  3187                           ;fuzzy.c: 304: qualified(qualified_cons_mf1,cons_mf3,w1);
  3188  007B9C  0103               	movlb	3	; () banked
  3189  007B9E  0E03               	movlw	high fuzzy_system_single1@qualified_cons_mf1
  3190  007BA0  6E11               	movwf	qualified@y+1,c
  3191  007BA2  0103               	movlb	3	; () banked
  3192  007BA4  0E78               	movlw	low fuzzy_system_single1@qualified_cons_mf1
  3193  007BA6  6E10               	movwf	qualified@y,c
  3194  007BA8  0105               	movlb	5	; () banked
  3195  007BAA  0E05               	movlw	high fuzzy_system_single1@cons_mf3
  3196  007BAC  6E13               	movwf	qualified@x+1,c
  3197  007BAE  0105               	movlb	5	; () banked
  3198  007BB0  0E00               	movlw	low fuzzy_system_single1@cons_mf3
  3199  007BB2  6E12               	movwf	qualified@x,c
  3200  007BB4  C056  F014         	movff	fuzzy_system_single1@w1,qualified@w
  3201  007BB8  C057  F015         	movff	fuzzy_system_single1@w1+1,qualified@w+1
  3202  007BBC  C058  F016         	movff	fuzzy_system_single1@w1+2,qualified@w+2
  3203  007BC0  ECD7  F036         	call	_qualified	;wreg free
  3204                           
  3205                           ;fuzzy.c: 305: qualified(qualified_cons_mf2,cons_mf3,w2);
  3206  007BC4  0104               	movlb	4	; () banked
  3207  007BC6  0E04               	movlw	high fuzzy_system_single1@qualified_cons_mf2
  3208  007BC8  6E11               	movwf	qualified@y+1,c
  3209  007BCA  0104               	movlb	4	; () banked
  3210  007BCC  0E78               	movlw	low fuzzy_system_single1@qualified_cons_mf2
  3211  007BCE  6E10               	movwf	qualified@y,c
  3212  007BD0  0105               	movlb	5	; () banked
  3213  007BD2  0E05               	movlw	high fuzzy_system_single1@cons_mf3
  3214  007BD4  6E13               	movwf	qualified@x+1,c
  3215  007BD6  0105               	movlb	5	; () banked
  3216  007BD8  0E00               	movlw	low fuzzy_system_single1@cons_mf3
  3217  007BDA  6E12               	movwf	qualified@x,c
  3218  007BDC  C059  F014         	movff	fuzzy_system_single1@w2,qualified@w
  3219  007BE0  C05A  F015         	movff	fuzzy_system_single1@w2+1,qualified@w+1
  3220  007BE4  C05B  F016         	movff	fuzzy_system_single1@w2+2,qualified@w+2
  3221  007BE8  ECD7  F036         	call	_qualified	;wreg free
  3222                           
  3223                           ;fuzzy.c: 306: qualified(qualified_cons_mf3,cons_mf1,w3);
  3224  007BEC  0104               	movlb	4	; () banked
  3225  007BEE  0E04               	movlw	high fuzzy_system_single1@qualified_cons_mf3
  3226  007BF0  6E11               	movwf	qualified@y+1,c
  3227  007BF2  0104               	movlb	4	; () banked
  3228  007BF4  0E00               	movlw	low fuzzy_system_single1@qualified_cons_mf3
  3229  007BF6  6E10               	movwf	qualified@y,c
  3230  007BF8  0103               	movlb	3	; () banked
  3231  007BFA  0E03               	movlw	high fuzzy_system_single1@cons_mf1
  3232  007BFC  6E13               	movwf	qualified@x+1,c
  3233  007BFE  0103               	movlb	3	; () banked
  3234  007C00  0E00               	movlw	low fuzzy_system_single1@cons_mf1
  3235  007C02  6E12               	movwf	qualified@x,c
  3236  007C04  C05C  F014         	movff	fuzzy_system_single1@w3,qualified@w
  3237  007C08  C05D  F015         	movff	fuzzy_system_single1@w3+1,qualified@w+1
  3238  007C0C  C05E  F016         	movff	fuzzy_system_single1@w3+2,qualified@w+2
  3239  007C10  ECD7  F036         	call	_qualified	;wreg free
  3240                           
  3241                           ;fuzzy.c: 307: out_mf(overall_out_mf,qualified_cons_mf1,qualified_cons_mf2,qualified_con
      +                          s_mf3);
  3242  007C14  0105               	movlb	5	; () banked
  3243  007C16  0E05               	movlw	high fuzzy_system_single1@overall_out_mf
  3244  007C18  6E11               	movwf	out_mf@result+1,c
  3245  007C1A  0105               	movlb	5	; () banked
  3246  007C1C  0E78               	movlw	low fuzzy_system_single1@overall_out_mf
  3247  007C1E  6E10               	movwf	out_mf@result,c
  3248  007C20  0103               	movlb	3	; () banked
  3249  007C22  0E03               	movlw	high fuzzy_system_single1@qualified_cons_mf1
  3250  007C24  6E13               	movwf	out_mf@x+1,c
  3251  007C26  0103               	movlb	3	; () banked
  3252  007C28  0E78               	movlw	low fuzzy_system_single1@qualified_cons_mf1
  3253  007C2A  6E12               	movwf	out_mf@x,c
  3254  007C2C  0104               	movlb	4	; () banked
  3255  007C2E  0E04               	movlw	high fuzzy_system_single1@qualified_cons_mf2
  3256  007C30  6E15               	movwf	out_mf@y+1,c
  3257  007C32  0104               	movlb	4	; () banked
  3258  007C34  0E78               	movlw	low fuzzy_system_single1@qualified_cons_mf2
  3259  007C36  6E14               	movwf	out_mf@y,c
  3260  007C38  0104               	movlb	4	; () banked
  3261  007C3A  0E04               	movlw	high fuzzy_system_single1@qualified_cons_mf3
  3262  007C3C  6E17               	movwf	out_mf@z+1,c
  3263  007C3E  0104               	movlb	4	; () banked
  3264  007C40  0E00               	movlw	low fuzzy_system_single1@qualified_cons_mf3
  3265  007C42  6E16               	movwf	out_mf@z,c
  3266  007C44  EC51  F03B         	call	_out_mf	;wreg free
  3267                           
  3268                           ;fuzzy.c: 308: output= defuzzy(y,overall_out_mf);
  3269  007C48  0106               	movlb	6	; () banked
  3270  007C4A  0E06               	movlw	high fuzzy_system_single1@y
  3271  007C4C  6E38               	movwf	defuzzy@x+1,c
  3272  007C4E  0106               	movlb	6	; () banked
  3273  007C50  0E78               	movlw	low fuzzy_system_single1@y
  3274  007C52  6E37               	movwf	defuzzy@x,c
  3275  007C54  0105               	movlb	5	; () banked
  3276  007C56  0E05               	movlw	high fuzzy_system_single1@overall_out_mf
  3277  007C58  6E3A               	movwf	defuzzy@mf+1,c
  3278  007C5A  0105               	movlb	5	; () banked
  3279  007C5C  0E78               	movlw	low fuzzy_system_single1@overall_out_mf
  3280  007C5E  6E39               	movwf	defuzzy@mf,c
  3281  007C60  ECD7  F038         	call	_defuzzy	;wreg free
  3282  007C64  C037  F0DA         	movff	?_defuzzy,fuzzy_system_single1@output
  3283  007C68  C038  F0DB         	movff	?_defuzzy+1,fuzzy_system_single1@output+1
  3284  007C6C  C039  F0DC         	movff	?_defuzzy+2,fuzzy_system_single1@output+2
  3285                           
  3286                           ;fuzzy.c: 309: return output;
  3287  007C70  C0DA  F053         	movff	fuzzy_system_single1@output,?_fuzzy_system_single1
  3288  007C74  C0DB  F054         	movff	fuzzy_system_single1@output+1,?_fuzzy_system_single1+1
  3289  007C78  C0DC  F055         	movff	fuzzy_system_single1@output+2,?_fuzzy_system_single1+2
  3290  007C7C  0012               	return	
  3291  007C7E                     __end_of_fuzzy_system_single1:
  3292                           	opt stack 0
  3293                           tblptru	equ	0xFF8
  3294                           tblptrh	equ	0xFF7
  3295                           tblptrl	equ	0xFF6
  3296                           tablat	equ	0xFF5
  3297                           wreg	equ	0xFE8
  3298                           status	equ	0xFD8
  3299                           
  3300 ;; *************** function _tri_mf *****************
  3301 ;; Defined at:
  3302 ;;		line 64 in file "fuzzy.c"
  3303 ;; Parameters:    Size  Location     Type
  3304 ;;  t_value         2   69[COMRAM] PTR 
  3305 ;;		 -> fuzzy_system_single1@cons_mf3(120), fuzzy_system_single1@cons_mf2(120), fuzzy_system_single1@cons_mf1(120), fuzz
      +y_system_single1@ante_mf3(120), 
  3306 ;;		 -> fuzzy_system_single1@ante_mf2(120), fuzzy_system_single1@ante_mf1(120), fuzzy_system_single2@cons_mf3(120), fuzz
      +y_system_single2@cons_mf2(120), 
  3307 ;;		 -> fuzzy_system_single2@cons_mf1(120), fuzzy_system_single2@ante_mf3(120), fuzzy_system_single2@ante_mf2(120), fuzz
      +y_system_single2@ante_mf1(120), 
  3308 ;;  x               2   71[COMRAM] PTR 
  3309 ;;		 -> fuzzy_system_single1@y(120), fuzzy_system_single1@x(120), fuzzy_system_single2@y(120), fuzzy_system_single2@x(12
      +0), 
  3310 ;;  a               3   73[COMRAM] PTR 
  3311 ;;  b               3   76[COMRAM] PTR 
  3312 ;;  c               3   79[COMRAM] PTR 
  3313 ;; Auto vars:     Size  Location     Type
  3314 ;;  temp          120    0[BANK0 ] [40]
  3315 ;;  i               2  120[BANK0 ] int 
  3316 ;; Return value:  Size  Location     Type
  3317 ;;		None               void
  3318 ;; Registers used:
  3319 ;;		wreg, fsr1l, fsr1h, fsr2l, fsr2h, status,2, status,0, prodl, prodh, cstack
  3320 ;; Tracked objects:
  3321 ;;		On entry : 0/0
  3322 ;;		On exit  : 0/0
  3323 ;;		Unchanged: 0/0
  3324 ;; Data sizes:     COMRAM   BANK0   BANK1   BANK2   BANK3   BANK4   BANK5   BANK6   BANK7
  3325 ;;      Params:        13       0       0       0       0       0       0       0       0
  3326 ;;      Locals:         0     122       0       0       0       0       0       0       0
  3327 ;;      Temps:          0       0       0       0       0       0       0       0       0
  3328 ;;      Totals:        13     122       0       0       0       0       0       0       0
  3329 ;;Total ram usage:      135 bytes
  3330 ;; Hardware stack levels used:    1
  3331 ;; Hardware stack levels required when called:    3
  3332 ;; This function calls:
  3333 ;;		___wmul
  3334 ;;		_triangular
  3335 ;; This function is called by:
  3336 ;;		_fuzzy_system_single2
  3337 ;;		_fuzzy_system_single1
  3338 ;; This function uses a non-reentrant model
  3339 ;;
  3340                           
  3341                           	psect	text18
  3342  00708C                     __ptext18:
  3343                           	opt stack 0
  3344  00708C                     _tri_mf:
  3345                           	opt stack 26
  3346                           
  3347                           ;fuzzy.c: 66: int i;
  3348                           ;fuzzy.c: 67: double temp[40];
  3349                           ;fuzzy.c: 68: for(i=0; i<40; i++)
  3350                           
  3351                           ;incstack = 0
  3352  00708C  0E00               	movlw	0
  3353  00708E  0100               	movlb	0	; () banked
  3354  007090  6FD9               	movwf	(tri_mf@i+1)& (0+255),b
  3355  007092  0E00               	movlw	0
  3356  007094  0100               	movlb	0	; () banked
  3357  007096  6FD8               	movwf	tri_mf@i& (0+255),b
  3358  007098                     
  3359                           ; BSR set to: 0
  3360  007098  0100               	movlb	0	; () banked
  3361  00709A  51D9               	movf	(tri_mf@i+1)& (0+255),w,b
  3362  00709C  0A80               	xorlw	128
  3363  00709E  0F80               	addlw	-128
  3364  0070A0  0E28               	movlw	40
  3365  0070A2  B4D8               	btfsc	status,2,c
  3366  0070A4  5DD8               	subwf	tri_mf@i& (0+255),w,b
  3367  0070A6  B0D8               	btfsc	status,0,c
  3368  0070A8  D02D               	goto	l2273
  3369                           
  3370                           ; BSR set to: 0
  3371                           ;fuzzy.c: 69: temp[i]= x[i];
  3372                           
  3373                           ; BSR set to: 0
  3374                           
  3375                           ; BSR set to: 0
  3376  0070AA  C0D8  F001         	movff	tri_mf@i,___wmul@multiplier
  3377  0070AE  C0D9  F002         	movff	tri_mf@i+1,___wmul@multiplier+1
  3378  0070B2  0E00               	movlw	0
  3379  0070B4  6E04               	movwf	___wmul@multiplicand+1,c
  3380  0070B6  0E03               	movlw	3
  3381  0070B8  6E03               	movwf	___wmul@multiplicand,c
  3382  0070BA  EC29  F033         	call	___wmul	;wreg free
  3383  0070BE  5001               	movf	?___wmul,w,c
  3384  0070C0  2448               	addwf	tri_mf@x,w,c
  3385  0070C2  6ED9               	movwf	fsr2l,c
  3386  0070C4  5002               	movf	?___wmul+1,w,c
  3387  0070C6  2049               	addwfc	tri_mf@x+1,w,c
  3388  0070C8  6EDA               	movwf	fsr2h,c
  3389  0070CA  C0D8  F001         	movff	tri_mf@i,___wmul@multiplier
  3390  0070CE  C0D9  F002         	movff	tri_mf@i+1,___wmul@multiplier+1
  3391  0070D2  0E00               	movlw	0
  3392  0070D4  6E04               	movwf	___wmul@multiplicand+1,c
  3393  0070D6  0E03               	movlw	3
  3394  0070D8  6E03               	movwf	___wmul@multiplicand,c
  3395  0070DA  EC29  F033         	call	___wmul	;wreg free
  3396  0070DE  0100               	movlb	0	; () banked
  3397  0070E0  0E60               	movlw	low tri_mf@temp
  3398  0070E2  2401               	addwf	?___wmul,w,c
  3399  0070E4  6EE1               	movwf	fsr1l,c
  3400  0070E6  0100               	movlb	0	; () banked
  3401  0070E8  0E00               	movlw	high tri_mf@temp
  3402  0070EA  2002               	addwfc	?___wmul+1,w,c
  3403  0070EC  6EE2               	movwf	fsr1h,c
  3404  0070EE  CFDE FFE6          	movff	postinc2,postinc1
  3405  0070F2  CFDE FFE6          	movff	postinc2,postinc1
  3406  0070F6  CFDE FFE5          	movff	postinc2,postdec1
  3407  0070FA  52E5               	movf	postdec1,f,c
  3408                           
  3409                           ; BSR set to: 0
  3410  0070FC  0100               	movlb	0	; () banked
  3411  0070FE  4BD8               	infsnz	tri_mf@i& (0+255),f,b
  3412  007100  2BD9               	incf	(tri_mf@i+1)& (0+255),f,b
  3413  007102  D7CA               	goto	L6
  3414  007104                     l2273:
  3415                           
  3416                           ; BSR set to: 0
  3417                           ;fuzzy.c: 70: for(i=0; i<40; i++)
  3418  007104  0E00               	movlw	0
  3419  007106  0100               	movlb	0	; () banked
  3420  007108  6FD9               	movwf	(tri_mf@i+1)& (0+255),b
  3421  00710A  0E00               	movlw	0
  3422  00710C  0100               	movlb	0	; () banked
  3423  00710E  6FD8               	movwf	tri_mf@i& (0+255),b
  3424  007110                     
  3425                           ; BSR set to: 0
  3426  007110  0100               	movlb	0	; () banked
  3427  007112  51D9               	movf	(tri_mf@i+1)& (0+255),w,b
  3428  007114  0A80               	xorlw	128
  3429  007116  0F80               	addlw	-128
  3430  007118  0E28               	movlw	40
  3431  00711A  B4D8               	btfsc	status,2,c
  3432  00711C  5DD8               	subwf	tri_mf@i& (0+255),w,b
  3433  00711E  B0D8               	btfsc	status,0,c
  3434  007120  D045               	goto	l101
  3435                           
  3436                           ; BSR set to: 0
  3437                           ;fuzzy.c: 71: t_value[i]= triangular(a,b,c,x[i]);
  3438                           
  3439                           ; BSR set to: 0
  3440                           
  3441                           ; BSR set to: 0
  3442  007122  C0D8  F001         	movff	tri_mf@i,___wmul@multiplier
  3443  007126  C0D9  F002         	movff	tri_mf@i+1,___wmul@multiplier+1
  3444  00712A  0E00               	movlw	0
  3445  00712C  6E04               	movwf	___wmul@multiplicand+1,c
  3446  00712E  0E03               	movlw	3
  3447  007130  6E03               	movwf	___wmul@multiplicand,c
  3448  007132  EC29  F033         	call	___wmul	;wreg free
  3449  007136  5001               	movf	?___wmul,w,c
  3450  007138  2446               	addwf	tri_mf@t_value,w,c
  3451  00713A  6ED9               	movwf	fsr2l,c
  3452  00713C  5002               	movf	?___wmul+1,w,c
  3453  00713E  2047               	addwfc	tri_mf@t_value+1,w,c
  3454  007140  6EDA               	movwf	fsr2h,c
  3455  007142  C04A  F037         	movff	tri_mf@a,triangular@a
  3456  007146  C04B  F038         	movff	tri_mf@a+1,triangular@a+1
  3457  00714A  C04C  F039         	movff	tri_mf@a+2,triangular@a+2
  3458  00714E  C04D  F03A         	movff	tri_mf@b,triangular@b
  3459  007152  C04E  F03B         	movff	tri_mf@b+1,triangular@b+1
  3460  007156  C04F  F03C         	movff	tri_mf@b+2,triangular@b+2
  3461  00715A  C050  F03D         	movff	tri_mf@c,triangular@c
  3462  00715E  C051  F03E         	movff	tri_mf@c+1,triangular@c+1
  3463  007162  C052  F03F         	movff	tri_mf@c+2,triangular@c+2
  3464  007166  C0D8  F001         	movff	tri_mf@i,___wmul@multiplier
  3465  00716A  C0D9  F002         	movff	tri_mf@i+1,___wmul@multiplier+1
  3466  00716E  0E00               	movlw	0
  3467  007170  6E04               	movwf	___wmul@multiplicand+1,c
  3468  007172  0E03               	movlw	3
  3469  007174  6E03               	movwf	___wmul@multiplicand,c
  3470  007176  EC29  F033         	call	___wmul	;wreg free
  3471  00717A  5001               	movf	?___wmul,w,c
  3472  00717C  2448               	addwf	tri_mf@x,w,c
  3473  00717E  6EE1               	movwf	fsr1l,c
  3474  007180  5002               	movf	?___wmul+1,w,c
  3475  007182  2049               	addwfc	tri_mf@x+1,w,c
  3476  007184  6EE2               	movwf	fsr1h,c
  3477  007186  CFE6 F040          	movff	postinc1,triangular@x
  3478  00718A  CFE6 F041          	movff	postinc1,triangular@x+1
  3479  00718E  CFE5 F042          	movff	postdec1,triangular@x+2
  3480  007192  EC5E  F03A         	call	_triangular	;wreg free
  3481  007196  C037  FFDE         	movff	?_triangular,postinc2
  3482  00719A  C038  FFDE         	movff	?_triangular+1,postinc2
  3483  00719E  C039  FFDD         	movff	?_triangular+2,postdec2
  3484  0071A2  52DD               	movf	postdec2,f,c
  3485  0071A4  0100               	movlb	0	; () banked
  3486  0071A6  4BD8               	infsnz	tri_mf@i& (0+255),f,b
  3487  0071A8  2BD9               	incf	(tri_mf@i+1)& (0+255),f,b
  3488  0071AA  D7B2               	goto	L7
  3489  0071AC                     l101:
  3490                           
  3491                           ; BSR set to: 0
  3492  0071AC  0012               	return	
  3493  0071AE                     __end_of_tri_mf:
  3494                           	opt stack 0
  3495                           tblptru	equ	0xFF8
  3496                           tblptrh	equ	0xFF7
  3497                           tblptrl	equ	0xFF6
  3498                           tablat	equ	0xFF5
  3499                           wreg	equ	0xFE8
  3500                           postinc1	equ	0xFE6
  3501                           postdec1	equ	0xFE5
  3502                           fsr1h	equ	0xFE2
  3503                           fsr1l	equ	0xFE1
  3504                           postinc2	equ	0xFDE
  3505                           postdec2	equ	0xFDD
  3506                           fsr2h	equ	0xFDA
  3507                           fsr2l	equ	0xFD9
  3508                           status	equ	0xFD8
  3509                           
  3510 ;; *************** function _triangular *****************
  3511 ;; Defined at:
  3512 ;;		line 46 in file "fuzzy.c"
  3513 ;; Parameters:    Size  Location     Type
  3514 ;;  a               3   54[COMRAM] int 
  3515 ;;  b               3   57[COMRAM] int 
  3516 ;;  c               3   60[COMRAM] int 
  3517 ;;  x               3   63[COMRAM] int 
  3518 ;; Auto vars:     Size  Location     Type
  3519 ;;  ux              3   66[COMRAM] int 
  3520 ;; Return value:  Size  Location     Type
  3521 ;;                  3   54[COMRAM] int 
  3522 ;; Registers used:
  3523 ;;		wreg, status,2, status,0, cstack
  3524 ;; Tracked objects:
  3525 ;;		On entry : 0/0
  3526 ;;		On exit  : 0/0
  3527 ;;		Unchanged: 0/0
  3528 ;; Data sizes:     COMRAM   BANK0   BANK1   BANK2   BANK3   BANK4   BANK5   BANK6   BANK7
  3529 ;;      Params:        12       0       0       0       0       0       0       0       0
  3530 ;;      Locals:         3       0       0       0       0       0       0       0       0
  3531 ;;      Temps:          0       0       0       0       0       0       0       0       0
  3532 ;;      Totals:        15       0       0       0       0       0       0       0       0
  3533 ;;Total ram usage:       15 bytes
  3534 ;; Hardware stack levels used:    1
  3535 ;; Hardware stack levels required when called:    2
  3536 ;; This function calls:
  3537 ;;		___ftadd
  3538 ;;		___ftdiv
  3539 ;;		___ftge
  3540 ;;		___ftneg
  3541 ;; This function is called by:
  3542 ;;		_tri_mf
  3543 ;;		_fuzzy_system_single2
  3544 ;;		_fuzzy_system_single1
  3545 ;; This function uses a non-reentrant model
  3546 ;;
  3547                           
  3548                           	psect	text19
  3549  0074BC                     __ptext19:
  3550                           	opt stack 0
  3551  0074BC                     _triangular:
  3552                           	opt stack 27
  3553                           
  3554                           ;fuzzy.c: 48: double ux=0;
  3555                           
  3556                           ; BSR set to: 0
  3557                           ;incstack = 0
  3558  0074BC  0E00               	movlw	0
  3559  0074BE  6E43               	movwf	triangular@ux,c
  3560  0074C0  0E00               	movlw	0
  3561  0074C2  6E44               	movwf	triangular@ux+1,c
  3562  0074C4  0E00               	movlw	0
  3563  0074C6  6E45               	movwf	triangular@ux+2,c
  3564                           
  3565                           ;fuzzy.c: 49: if(x<=a){
  3566  0074C8  C037  F007         	movff	triangular@a,___ftge@ff1
  3567  0074CC  C038  F008         	movff	triangular@a+1,___ftge@ff1+1
  3568  0074D0  C039  F009         	movff	triangular@a+2,___ftge@ff1+2
  3569  0074D4  C040  F00A         	movff	triangular@x,___ftge@ff2
  3570  0074D8  C041  F00B         	movff	triangular@x+1,___ftge@ff2+1
  3571  0074DC  C042  F00C         	movff	triangular@x+2,___ftge@ff2+2
  3572  0074E0  EC49  F034         	call	___ftge	;wreg free
  3573  0074E4  A0D8               	btfss	status,0,c
  3574  0074E6  D006               	goto	l2041
  3575                           
  3576                           ;fuzzy.c: 50: ux=0;
  3577  0074E8  0E00               	movlw	0
  3578  0074EA  6E43               	movwf	triangular@ux,c
  3579  0074EC  0E00               	movlw	0
  3580  0074EE  6E44               	movwf	triangular@ux+1,c
  3581  0074F0  0E00               	movlw	0
  3582  0074F2  6E45               	movwf	triangular@ux+2,c
  3583  0074F4                     l2041:
  3584                           
  3585                           ;fuzzy.c: 51: }
  3586                           ;fuzzy.c: 52: if(x>a && x<b){
  3587  0074F4  C037  F007         	movff	triangular@a,___ftge@ff1
  3588  0074F8  C038  F008         	movff	triangular@a+1,___ftge@ff1+1
  3589  0074FC  C039  F009         	movff	triangular@a+2,___ftge@ff1+2
  3590  007500  C040  F00A         	movff	triangular@x,___ftge@ff2
  3591  007504  C041  F00B         	movff	triangular@x+1,___ftge@ff2+1
  3592  007508  C042  F00C         	movff	triangular@x+2,___ftge@ff2+2
  3593  00750C  EC49  F034         	call	___ftge	;wreg free
  3594  007510  B0D8               	btfsc	status,0,c
  3595  007512  D050               	goto	l2047
  3596  007514  C040  F007         	movff	triangular@x,___ftge@ff1
  3597  007518  C041  F008         	movff	triangular@x+1,___ftge@ff1+1
  3598  00751C  C042  F009         	movff	triangular@x+2,___ftge@ff1+2
  3599  007520  C03A  F00A         	movff	triangular@b,___ftge@ff2
  3600  007524  C03B  F00B         	movff	triangular@b+1,___ftge@ff2+1
  3601  007528  C03C  F00C         	movff	triangular@b+2,___ftge@ff2+2
  3602  00752C  EC49  F034         	call	___ftge	;wreg free
  3603  007530  B0D8               	btfsc	status,0,c
  3604  007532  D040               	goto	l2047
  3605                           
  3606                           ;fuzzy.c: 53: ux=(x-a)/(b-a);
  3607  007534  C040  F01F         	movff	triangular@x,___ftadd@f2
  3608  007538  C041  F020         	movff	triangular@x+1,___ftadd@f2+1
  3609  00753C  C042  F021         	movff	triangular@x+2,___ftadd@f2+2
  3610  007540  C037  F001         	movff	triangular@a,___ftneg@f1
  3611  007544  C038  F002         	movff	triangular@a+1,___ftneg@f1+1
  3612  007548  C039  F003         	movff	triangular@a+2,___ftneg@f1+2
  3613  00754C  EC3C  F033         	call	___ftneg	;wreg free
  3614  007550  C001  F01C         	movff	?___ftneg,___ftadd@f1
  3615  007554  C002  F01D         	movff	?___ftneg+1,___ftadd@f1+1
  3616  007558  C003  F01E         	movff	?___ftneg+2,___ftadd@f1+2
  3617  00755C  EC88  F039         	call	___ftadd	;wreg free
  3618  007560  C01C  F028         	movff	?___ftadd,___ftdiv@f1
  3619  007564  C01D  F029         	movff	?___ftadd+1,___ftdiv@f1+1
  3620  007568  C01E  F02A         	movff	?___ftadd+2,___ftdiv@f1+2
  3621  00756C  C03A  F01F         	movff	triangular@b,___ftadd@f2
  3622  007570  C03B  F020         	movff	triangular@b+1,___ftadd@f2+1
  3623  007574  C03C  F021         	movff	triangular@b+2,___ftadd@f2+2
  3624  007578  C037  F001         	movff	triangular@a,___ftneg@f1
  3625  00757C  C038  F002         	movff	triangular@a+1,___ftneg@f1+1
  3626  007580  C039  F003         	movff	triangular@a+2,___ftneg@f1+2
  3627  007584  EC3C  F033         	call	___ftneg	;wreg free
  3628  007588  C001  F01C         	movff	?___ftneg,___ftadd@f1
  3629  00758C  C002  F01D         	movff	?___ftneg+1,___ftadd@f1+1
  3630  007590  C003  F01E         	movff	?___ftneg+2,___ftadd@f1+2
  3631  007594  EC88  F039         	call	___ftadd	;wreg free
  3632  007598  C01C  F02B         	movff	?___ftadd,___ftdiv@f2
  3633  00759C  C01D  F02C         	movff	?___ftadd+1,___ftdiv@f2+1
  3634  0075A0  C01E  F02D         	movff	?___ftadd+2,___ftdiv@f2+2
  3635  0075A4  ECFA  F035         	call	___ftdiv	;wreg free
  3636  0075A8  C028  F043         	movff	?___ftdiv,triangular@ux
  3637  0075AC  C029  F044         	movff	?___ftdiv+1,triangular@ux+1
  3638  0075B0  C02A  F045         	movff	?___ftdiv+2,triangular@ux+2
  3639  0075B4                     l2047:
  3640                           
  3641                           ;fuzzy.c: 54: }
  3642                           ;fuzzy.c: 55: if(x==b){
  3643  0075B4  503C               	movf	triangular@b+2,w,c
  3644  0075B6  1842               	xorwf	triangular@x+2,w,c
  3645  0075B8  E105               	bnz	u1915
  3646  0075BA  503B               	movf	triangular@b+1,w,c
  3647  0075BC  1841               	xorwf	triangular@x+1,w,c
  3648  0075BE  E102               	bnz	u1915
  3649  0075C0  503A               	movf	triangular@b,w,c
  3650  0075C2  1840               	xorwf	triangular@x,w,c
  3651  0075C4                     u1915:
  3652  0075C4  A4D8               	btfss	status,2,c
  3653  0075C6  D006               	goto	l2051
  3654                           
  3655                           ;fuzzy.c: 56: ux=1;
  3656  0075C8  0E00               	movlw	0
  3657  0075CA  6E43               	movwf	triangular@ux,c
  3658  0075CC  0E80               	movlw	128
  3659  0075CE  6E44               	movwf	triangular@ux+1,c
  3660  0075D0  0E3F               	movlw	63
  3661  0075D2  6E45               	movwf	triangular@ux+2,c
  3662  0075D4                     l2051:
  3663                           
  3664                           ;fuzzy.c: 57: }
  3665                           ;fuzzy.c: 58: if(x>b && x<c){
  3666  0075D4  C03A  F007         	movff	triangular@b,___ftge@ff1
  3667  0075D8  C03B  F008         	movff	triangular@b+1,___ftge@ff1+1
  3668  0075DC  C03C  F009         	movff	triangular@b+2,___ftge@ff1+2
  3669  0075E0  C040  F00A         	movff	triangular@x,___ftge@ff2
  3670  0075E4  C041  F00B         	movff	triangular@x+1,___ftge@ff2+1
  3671  0075E8  C042  F00C         	movff	triangular@x+2,___ftge@ff2+2
  3672  0075EC  EC49  F034         	call	___ftge	;wreg free
  3673  0075F0  B0D8               	btfsc	status,0,c
  3674  0075F2  D050               	goto	l2057
  3675  0075F4  C040  F007         	movff	triangular@x,___ftge@ff1
  3676  0075F8  C041  F008         	movff	triangular@x+1,___ftge@ff1+1
  3677  0075FC  C042  F009         	movff	triangular@x+2,___ftge@ff1+2
  3678  007600  C03D  F00A         	movff	triangular@c,___ftge@ff2
  3679  007604  C03E  F00B         	movff	triangular@c+1,___ftge@ff2+1
  3680  007608  C03F  F00C         	movff	triangular@c+2,___ftge@ff2+2
  3681  00760C  EC49  F034         	call	___ftge	;wreg free
  3682  007610  B0D8               	btfsc	status,0,c
  3683  007612  D040               	goto	l2057
  3684                           
  3685                           ;fuzzy.c: 59: ux = (c-x)/(c-b);
  3686  007614  C03D  F01F         	movff	triangular@c,___ftadd@f2
  3687  007618  C03E  F020         	movff	triangular@c+1,___ftadd@f2+1
  3688  00761C  C03F  F021         	movff	triangular@c+2,___ftadd@f2+2
  3689  007620  C040  F001         	movff	triangular@x,___ftneg@f1
  3690  007624  C041  F002         	movff	triangular@x+1,___ftneg@f1+1
  3691  007628  C042  F003         	movff	triangular@x+2,___ftneg@f1+2
  3692  00762C  EC3C  F033         	call	___ftneg	;wreg free
  3693  007630  C001  F01C         	movff	?___ftneg,___ftadd@f1
  3694  007634  C002  F01D         	movff	?___ftneg+1,___ftadd@f1+1
  3695  007638  C003  F01E         	movff	?___ftneg+2,___ftadd@f1+2
  3696  00763C  EC88  F039         	call	___ftadd	;wreg free
  3697  007640  C01C  F028         	movff	?___ftadd,___ftdiv@f1
  3698  007644  C01D  F029         	movff	?___ftadd+1,___ftdiv@f1+1
  3699  007648  C01E  F02A         	movff	?___ftadd+2,___ftdiv@f1+2
  3700  00764C  C03D  F01F         	movff	triangular@c,___ftadd@f2
  3701  007650  C03E  F020         	movff	triangular@c+1,___ftadd@f2+1
  3702  007654  C03F  F021         	movff	triangular@c+2,___ftadd@f2+2
  3703  007658  C03A  F001         	movff	triangular@b,___ftneg@f1
  3704  00765C  C03B  F002         	movff	triangular@b+1,___ftneg@f1+1
  3705  007660  C03C  F003         	movff	triangular@b+2,___ftneg@f1+2
  3706  007664  EC3C  F033         	call	___ftneg	;wreg free
  3707  007668  C001  F01C         	movff	?___ftneg,___ftadd@f1
  3708  00766C  C002  F01D         	movff	?___ftneg+1,___ftadd@f1+1
  3709  007670  C003  F01E         	movff	?___ftneg+2,___ftadd@f1+2
  3710  007674  EC88  F039         	call	___ftadd	;wreg free
  3711  007678  C01C  F02B         	movff	?___ftadd,___ftdiv@f2
  3712  00767C  C01D  F02C         	movff	?___ftadd+1,___ftdiv@f2+1
  3713  007680  C01E  F02D         	movff	?___ftadd+2,___ftdiv@f2+2
  3714  007684  ECFA  F035         	call	___ftdiv	;wreg free
  3715  007688  C028  F043         	movff	?___ftdiv,triangular@ux
  3716  00768C  C029  F044         	movff	?___ftdiv+1,triangular@ux+1
  3717  007690  C02A  F045         	movff	?___ftdiv+2,triangular@ux+2
  3718  007694                     l2057:
  3719                           
  3720                           ;fuzzy.c: 60: }
  3721                           ;fuzzy.c: 61: return ux;
  3722  007694  C043  F037         	movff	triangular@ux,?_triangular
  3723  007698  C044  F038         	movff	triangular@ux+1,?_triangular+1
  3724  00769C  C045  F039         	movff	triangular@ux+2,?_triangular+2
  3725  0076A0  0012               	return	
  3726  0076A2                     __end_of_triangular:
  3727                           	opt stack 0
  3728                           tblptru	equ	0xFF8
  3729                           tblptrh	equ	0xFF7
  3730                           tblptrl	equ	0xFF6
  3731                           tablat	equ	0xFF5
  3732                           wreg	equ	0xFE8
  3733                           postinc1	equ	0xFE6
  3734                           postdec1	equ	0xFE5
  3735                           fsr1h	equ	0xFE2
  3736                           fsr1l	equ	0xFE1
  3737                           postinc2	equ	0xFDE
  3738                           postdec2	equ	0xFDD
  3739                           fsr2h	equ	0xFDA
  3740                           fsr2l	equ	0xFD9
  3741                           status	equ	0xFD8
  3742                           
  3743 ;; *************** function ___ftneg *****************
  3744 ;; Defined at:
  3745 ;;		line 15 in file "C:\Program Files\Microchip\xc8\v1.33\sources\common\ftneg.c"
  3746 ;; Parameters:    Size  Location     Type
  3747 ;;  f1              3    0[COMRAM] float 
  3748 ;; Auto vars:     Size  Location     Type
  3749 ;;		None
  3750 ;; Return value:  Size  Location     Type
  3751 ;;                  3    0[COMRAM] float 
  3752 ;; Registers used:
  3753 ;;		wreg, status,2, status,0
  3754 ;; Tracked objects:
  3755 ;;		On entry : 0/0
  3756 ;;		On exit  : 0/0
  3757 ;;		Unchanged: 0/0
  3758 ;; Data sizes:     COMRAM   BANK0   BANK1   BANK2   BANK3   BANK4   BANK5   BANK6   BANK7
  3759 ;;      Params:         3       0       0       0       0       0       0       0       0
  3760 ;;      Locals:         0       0       0       0       0       0       0       0       0
  3761 ;;      Temps:          0       0       0       0       0       0       0       0       0
  3762 ;;      Totals:         3       0       0       0       0       0       0       0       0
  3763 ;;Total ram usage:        3 bytes
  3764 ;; Hardware stack levels used:    1
  3765 ;; This function calls:
  3766 ;;		Nothing
  3767 ;; This function is called by:
  3768 ;;		_triangular
  3769 ;;		_trapezoidal
  3770 ;; This function uses a non-reentrant model
  3771 ;;
  3772                           
  3773                           	psect	text20
  3774  006678                     __ptext20:
  3775                           	opt stack 0
  3776  006678                     ___ftneg:
  3777                           	opt stack 28
  3778                           
  3779                           ;incstack = 0
  3780  006678  0E7F               	movlw	127
  3781  00667A  1403               	andwf	___ftneg@f1+2,w,c
  3782  00667C  1002               	iorwf	___ftneg@f1+1,w,c
  3783  00667E  1001               	iorwf	___ftneg@f1,w,c
  3784  006680  B4D8               	btfsc	status,2,c
  3785  006682  D006               	goto	l710
  3786  006684  0E00               	movlw	0
  3787  006686  1A01               	xorwf	___ftneg@f1,f,c
  3788  006688  0E00               	movlw	0
  3789  00668A  1A02               	xorwf	___ftneg@f1+1,f,c
  3790  00668C  0E80               	movlw	128
  3791  00668E  1A03               	xorwf	___ftneg@f1+2,f,c
  3792  006690                     l710:
  3793  006690  C001  F001         	movff	___ftneg@f1,?___ftneg
  3794  006694  C002  F002         	movff	___ftneg@f1+1,?___ftneg+1
  3795  006698  C003  F003         	movff	___ftneg@f1+2,?___ftneg+2
  3796  00669C  0012               	return	
  3797  00669E                     __end_of___ftneg:
  3798                           	opt stack 0
  3799                           tblptru	equ	0xFF8
  3800                           tblptrh	equ	0xFF7
  3801                           tblptrl	equ	0xFF6
  3802                           tablat	equ	0xFF5
  3803                           wreg	equ	0xFE8
  3804                           postinc1	equ	0xFE6
  3805                           postdec1	equ	0xFE5
  3806                           fsr1h	equ	0xFE2
  3807                           fsr1l	equ	0xFE1
  3808                           postinc2	equ	0xFDE
  3809                           postdec2	equ	0xFDD
  3810                           fsr2h	equ	0xFDA
  3811                           fsr2l	equ	0xFD9
  3812                           status	equ	0xFD8
  3813                           
  3814 ;; *************** function _qualified *****************
  3815 ;; Defined at:
  3816 ;;		line 108 in file "fuzzy.c"
  3817 ;; Parameters:    Size  Location     Type
  3818 ;;  y               2   15[COMRAM] PTR 
  3819 ;;		 -> fuzzy_system_single1@qualified_cons_mf3(120), fuzzy_system_single1@qualified_cons_mf2(120), fuzzy_system_single1
      +@qualified_cons_mf1(120), fuzzy_system_single2@qualified_cons_mf3(120), 
  3820 ;;		 -> fuzzy_system_single2@qualified_cons_mf2(120), fuzzy_system_single2@qualified_cons_mf1(120), fuzzy_system_single@
      +qualified_cons_mf3(120), fuzzy_system_single@qualified_cons_mf2(120), 
  3821 ;;		 -> fuzzy_system_single@qualified_cons_mf1(120), fuzzy_system@qualified_cons_mf3(120), fuzzy_system@qualified_cons_m
      +f2(120), fuzzy_system@qualified_cons_mf1(120), 
  3822 ;;  x               2   17[COMRAM] PTR 
  3823 ;;		 -> fuzzy_system_single1@cons_mf3(120), fuzzy_system_single1@cons_mf1(120), fuzzy_system_single2@cons_mf3(120), fuzz
      +y_system_single2@cons_mf1(120), 
  3824 ;;		 -> fuzzy_system_single@cons_mf3(120), fuzzy_system_single@cons_mf2(120), fuzzy_system_single@cons_mf1(120), fuzzy_s
      +ystem@cons_mf3(120), 
  3825 ;;		 -> fuzzy_system@cons_mf2(120), fuzzy_system@cons_mf1(120), 
  3826 ;;  w               3   19[COMRAM] PTR 
  3827 ;; Auto vars:     Size  Location     Type
  3828 ;;  min             3   22[COMRAM] PTR 
  3829 ;;  i               2   25[COMRAM] int 
  3830 ;; Return value:  Size  Location     Type
  3831 ;;		None               void
  3832 ;; Registers used:
  3833 ;;		wreg, fsr1l, fsr1h, fsr2l, fsr2h, status,2, status,0, prodl, prodh, cstack
  3834 ;; Tracked objects:
  3835 ;;		On entry : 0/0
  3836 ;;		On exit  : 0/0
  3837 ;;		Unchanged: 0/0
  3838 ;; Data sizes:     COMRAM   BANK0   BANK1   BANK2   BANK3   BANK4   BANK5   BANK6   BANK7
  3839 ;;      Params:         7       0       0       0       0       0       0       0       0
  3840 ;;      Locals:         5       0       0       0       0       0       0       0       0
  3841 ;;      Temps:          0       0       0       0       0       0       0       0       0
  3842 ;;      Totals:        12       0       0       0       0       0       0       0       0
  3843 ;;Total ram usage:       12 bytes
  3844 ;; Hardware stack levels used:    1
  3845 ;; Hardware stack levels required when called:    1
  3846 ;; This function calls:
  3847 ;;		___ftge
  3848 ;;		___wmul
  3849 ;; This function is called by:
  3850 ;;		_fuzzy_system_single2
  3851 ;;		_fuzzy_system_single1
  3852 ;;		_fuzzy_system
  3853 ;;		_fuzzy_system_single
  3854 ;; This function uses a non-reentrant model
  3855 ;;
  3856                           
  3857                           	psect	text21
  3858  006DAE                     __ptext21:
  3859                           	opt stack 0
  3860  006DAE                     _qualified:
  3861                           	opt stack 28
  3862                           
  3863                           ;fuzzy.c: 110: double min;
  3864                           ;fuzzy.c: 111: int i;
  3865                           ;fuzzy.c: 112: min=w;
  3866                           
  3867                           ;incstack = 0
  3868  006DAE  C014  F017         	movff	qualified@w,qualified@min
  3869  006DB2  C015  F018         	movff	qualified@w+1,qualified@min+1
  3870  006DB6  C016  F019         	movff	qualified@w+2,qualified@min+2
  3871                           
  3872                           ;fuzzy.c: 113: for(i=0;i<40;i++){
  3873  006DBA  0E00               	movlw	0
  3874  006DBC  6E1B               	movwf	qualified@i+1,c
  3875  006DBE  0E00               	movlw	0
  3876  006DC0  6E1A               	movwf	qualified@i,c
  3877  006DC2  501B               	movf	qualified@i+1,w,c
  3878  006DC4  0A80               	xorlw	128
  3879  006DC6  0F80               	addlw	-128
  3880  006DC8  0E28               	movlw	40
  3881  006DCA  B4D8               	btfsc	status,2,c
  3882  006DCC  5C1A               	subwf	qualified@i,w,c
  3883  006DCE  B0D8               	btfsc	status,0,c
  3884  006DD0  D061               	goto	l123
  3885                           
  3886                           ;fuzzy.c: 114: if (x[i] < w)
  3887  006DD2  C01A  F001         	movff	qualified@i,___wmul@multiplier
  3888  006DD6  C01B  F002         	movff	qualified@i+1,___wmul@multiplier+1
  3889  006DDA  0E00               	movlw	0
  3890  006DDC  6E04               	movwf	___wmul@multiplicand+1,c
  3891  006DDE  0E03               	movlw	3
  3892  006DE0  6E03               	movwf	___wmul@multiplicand,c
  3893  006DE2  EC29  F033         	call	___wmul	;wreg free
  3894  006DE6  5001               	movf	?___wmul,w,c
  3895  006DE8  2412               	addwf	qualified@x,w,c
  3896  006DEA  6ED9               	movwf	fsr2l,c
  3897  006DEC  5002               	movf	?___wmul+1,w,c
  3898  006DEE  2013               	addwfc	qualified@x+1,w,c
  3899  006DF0  6EDA               	movwf	fsr2h,c
  3900  006DF2  CFDE F007          	movff	postinc2,___ftge@ff1
  3901  006DF6  CFDE F008          	movff	postinc2,___ftge@ff1+1
  3902  006DFA  CFDD F009          	movff	postdec2,___ftge@ff1+2
  3903  006DFE  C014  F00A         	movff	qualified@w,___ftge@ff2
  3904  006E02  C015  F00B         	movff	qualified@w+1,___ftge@ff2+1
  3905  006E06  C016  F00C         	movff	qualified@w+2,___ftge@ff2+2
  3906  006E0A  EC49  F034         	call	___ftge	;wreg free
  3907  006E0E  B0D8               	btfsc	status,0,c
  3908  006E10  D028               	goto	l2325
  3909                           
  3910                           ;fuzzy.c: 115: y[i] = x[i];
  3911  006E12  C01A  F001         	movff	qualified@i,___wmul@multiplier
  3912  006E16  C01B  F002         	movff	qualified@i+1,___wmul@multiplier+1
  3913  006E1A  0E00               	movlw	0
  3914  006E1C  6E04               	movwf	___wmul@multiplicand+1,c
  3915  006E1E  0E03               	movlw	3
  3916  006E20  6E03               	movwf	___wmul@multiplicand,c
  3917  006E22  EC29  F033         	call	___wmul	;wreg free
  3918  006E26  5001               	movf	?___wmul,w,c
  3919  006E28  2412               	addwf	qualified@x,w,c
  3920  006E2A  6ED9               	movwf	fsr2l,c
  3921  006E2C  5002               	movf	?___wmul+1,w,c
  3922  006E2E  2013               	addwfc	qualified@x+1,w,c
  3923  006E30  6EDA               	movwf	fsr2h,c
  3924  006E32  C01A  F001         	movff	qualified@i,___wmul@multiplier
  3925  006E36  C01B  F002         	movff	qualified@i+1,___wmul@multiplier+1
  3926  006E3A  0E00               	movlw	0
  3927  006E3C  6E04               	movwf	___wmul@multiplicand+1,c
  3928  006E3E  0E03               	movlw	3
  3929  006E40  6E03               	movwf	___wmul@multiplicand,c
  3930  006E42  EC29  F033         	call	___wmul	;wreg free
  3931  006E46  5001               	movf	?___wmul,w,c
  3932  006E48  2410               	addwf	qualified@y,w,c
  3933  006E4A  6EE1               	movwf	fsr1l,c
  3934  006E4C  5002               	movf	?___wmul+1,w,c
  3935  006E4E  2011               	addwfc	qualified@y+1,w,c
  3936  006E50  6EE2               	movwf	fsr1h,c
  3937  006E52  CFDE FFE6          	movff	postinc2,postinc1
  3938  006E56  CFDE FFE6          	movff	postinc2,postinc1
  3939  006E5A  CFDE FFE5          	movff	postinc2,postdec1
  3940  006E5E  52E5               	movf	postdec1,f,c
  3941  006E60  D016               	goto	l2327
  3942  006E62                     l2325:
  3943                           
  3944                           ;fuzzy.c: 116: else
  3945                           ;fuzzy.c: 117: y[i] = w;
  3946  006E62  C01A  F001         	movff	qualified@i,___wmul@multiplier
  3947  006E66  C01B  F002         	movff	qualified@i+1,___wmul@multiplier+1
  3948  006E6A  0E00               	movlw	0
  3949  006E6C  6E04               	movwf	___wmul@multiplicand+1,c
  3950  006E6E  0E03               	movlw	3
  3951  006E70  6E03               	movwf	___wmul@multiplicand,c
  3952  006E72  EC29  F033         	call	___wmul	;wreg free
  3953  006E76  5001               	movf	?___wmul,w,c
  3954  006E78  2410               	addwf	qualified@y,w,c
  3955  006E7A  6ED9               	movwf	fsr2l,c
  3956  006E7C  5002               	movf	?___wmul+1,w,c
  3957  006E7E  2011               	addwfc	qualified@y+1,w,c
  3958  006E80  6EDA               	movwf	fsr2h,c
  3959  006E82  C014  FFDE         	movff	qualified@w,postinc2
  3960  006E86  C015  FFDE         	movff	qualified@w+1,postinc2
  3961  006E8A  C016  FFDD         	movff	qualified@w+2,postdec2
  3962  006E8E                     l2327:
  3963  006E8E  4A1A               	infsnz	qualified@i,f,c
  3964  006E90  2A1B               	incf	qualified@i+1,f,c
  3965  006E92  D797               	goto	L8
  3966  006E94                     l123:
  3967  006E94  0012               	return	
  3968  006E96                     __end_of_qualified:
  3969                           	opt stack 0
  3970                           tblptru	equ	0xFF8
  3971                           tblptrh	equ	0xFF7
  3972                           tblptrl	equ	0xFF6
  3973                           tablat	equ	0xFF5
  3974                           wreg	equ	0xFE8
  3975                           postinc1	equ	0xFE6
  3976                           postdec1	equ	0xFE5
  3977                           fsr1h	equ	0xFE2
  3978                           fsr1l	equ	0xFE1
  3979                           postinc2	equ	0xFDE
  3980                           postdec2	equ	0xFDD
  3981                           fsr2h	equ	0xFDA
  3982                           fsr2l	equ	0xFD9
  3983                           status	equ	0xFD8
  3984                           
  3985 ;; *************** function _out_mf *****************
  3986 ;; Defined at:
  3987 ;;		line 123 in file "fuzzy.c"
  3988 ;; Parameters:    Size  Location     Type
  3989 ;;  result          2   15[COMRAM] PTR 
  3990 ;;		 -> fuzzy_system_single1@overall_out_mf(120), fuzzy_system_single2@overall_out_mf(120), fuzzy_system_single@overall_
      +out_mf(120), fuzzy_system@overall_out_mf(120), 
  3991 ;;  x               2   17[COMRAM] PTR 
  3992 ;;		 -> fuzzy_system_single1@qualified_cons_mf1(120), fuzzy_system_single2@qualified_cons_mf1(120), fuzzy_system_single@
      +qualified_cons_mf1(120), fuzzy_system@qualified_cons_mf1(120), 
  3993 ;;  y               2   19[COMRAM] PTR 
  3994 ;;		 -> fuzzy_system_single1@qualified_cons_mf2(120), fuzzy_system_single2@qualified_cons_mf2(120), fuzzy_system_single@
      +qualified_cons_mf2(120), fuzzy_system@qualified_cons_mf2(120), 
  3995 ;;  z               2   21[COMRAM] PTR 
  3996 ;;		 -> fuzzy_system_single1@qualified_cons_mf3(120), fuzzy_system_single2@qualified_cons_mf3(120), fuzzy_system_single@
      +qualified_cons_mf3(120), fuzzy_system@qualified_cons_mf3(120), 
  3997 ;; Auto vars:     Size  Location     Type
  3998 ;;  i               2   23[COMRAM] int 
  3999 ;; Return value:  Size  Location     Type
  4000 ;;		None               void
  4001 ;; Registers used:
  4002 ;;		wreg, fsr1l, fsr1h, fsr2l, fsr2h, status,2, status,0, prodl, prodh, cstack
  4003 ;; Tracked objects:
  4004 ;;		On entry : 0/0
  4005 ;;		On exit  : 0/0
  4006 ;;		Unchanged: 0/0
  4007 ;; Data sizes:     COMRAM   BANK0   BANK1   BANK2   BANK3   BANK4   BANK5   BANK6   BANK7
  4008 ;;      Params:         8       0       0       0       0       0       0       0       0
  4009 ;;      Locals:         2       0       0       0       0       0       0       0       0
  4010 ;;      Temps:          0       0       0       0       0       0       0       0       0
  4011 ;;      Totals:        10       0       0       0       0       0       0       0       0
  4012 ;;Total ram usage:       10 bytes
  4013 ;; Hardware stack levels used:    1
  4014 ;; Hardware stack levels required when called:    1
  4015 ;; This function calls:
  4016 ;;		___ftge
  4017 ;;		___wmul
  4018 ;; This function is called by:
  4019 ;;		_fuzzy_system_single2
  4020 ;;		_fuzzy_system_single1
  4021 ;;		_fuzzy_system
  4022 ;;		_fuzzy_system_single
  4023 ;; This function uses a non-reentrant model
  4024 ;;
  4025                           
  4026                           	psect	text22
  4027  0076A2                     __ptext22:
  4028                           	opt stack 0
  4029  0076A2                     _out_mf:
  4030                           	opt stack 28
  4031                           
  4032                           ;fuzzy.c: 125: int i;
  4033                           ;fuzzy.c: 126: for(i=0; i<40;i++){
  4034                           
  4035                           ;incstack = 0
  4036  0076A2  0E00               	movlw	0
  4037  0076A4  6E19               	movwf	out_mf@i+1,c
  4038  0076A6  0E00               	movlw	0
  4039  0076A8  6E18               	movwf	out_mf@i,c
  4040  0076AA  5019               	movf	out_mf@i+1,w,c
  4041  0076AC  0A80               	xorlw	128
  4042  0076AE  0F80               	addlw	-128
  4043  0076B0  0E28               	movlw	40
  4044  0076B2  B4D8               	btfsc	status,2,c
  4045  0076B4  5C18               	subwf	out_mf@i,w,c
  4046  0076B6  B0D8               	btfsc	status,0,c
  4047  0076B8  D120               	goto	l132
  4048                           
  4049                           ;fuzzy.c: 127: if(x[i] > y[i] && x[i] > z[i])
  4050  0076BA  C018  F001         	movff	out_mf@i,___wmul@multiplier
  4051  0076BE  C019  F002         	movff	out_mf@i+1,___wmul@multiplier+1
  4052  0076C2  0E00               	movlw	0
  4053  0076C4  6E04               	movwf	___wmul@multiplicand+1,c
  4054  0076C6  0E03               	movlw	3
  4055  0076C8  6E03               	movwf	___wmul@multiplicand,c
  4056  0076CA  EC29  F033         	call	___wmul	;wreg free
  4057  0076CE  5001               	movf	?___wmul,w,c
  4058  0076D0  2414               	addwf	out_mf@y,w,c
  4059  0076D2  6ED9               	movwf	fsr2l,c
  4060  0076D4  5002               	movf	?___wmul+1,w,c
  4061  0076D6  2015               	addwfc	out_mf@y+1,w,c
  4062  0076D8  6EDA               	movwf	fsr2h,c
  4063  0076DA  CFDE F007          	movff	postinc2,___ftge@ff1
  4064  0076DE  CFDE F008          	movff	postinc2,___ftge@ff1+1
  4065  0076E2  CFDD F009          	movff	postdec2,___ftge@ff1+2
  4066  0076E6  C018  F001         	movff	out_mf@i,___wmul@multiplier
  4067  0076EA  C019  F002         	movff	out_mf@i+1,___wmul@multiplier+1
  4068  0076EE  0E00               	movlw	0
  4069  0076F0  6E04               	movwf	___wmul@multiplicand+1,c
  4070  0076F2  0E03               	movlw	3
  4071  0076F4  6E03               	movwf	___wmul@multiplicand,c
  4072  0076F6  EC29  F033         	call	___wmul	;wreg free
  4073  0076FA  5001               	movf	?___wmul,w,c
  4074  0076FC  2412               	addwf	out_mf@x,w,c
  4075  0076FE  6ED9               	movwf	fsr2l,c
  4076  007700  5002               	movf	?___wmul+1,w,c
  4077  007702  2013               	addwfc	out_mf@x+1,w,c
  4078  007704  6EDA               	movwf	fsr2h,c
  4079  007706  CFDE F00A          	movff	postinc2,___ftge@ff2
  4080  00770A  CFDE F00B          	movff	postinc2,___ftge@ff2+1
  4081  00770E  CFDD F00C          	movff	postdec2,___ftge@ff2+2
  4082  007712  EC49  F034         	call	___ftge	;wreg free
  4083  007716  B0D8               	btfsc	status,0,c
  4084  007718  D04B               	goto	l2343
  4085  00771A  C018  F001         	movff	out_mf@i,___wmul@multiplier
  4086  00771E  C019  F002         	movff	out_mf@i+1,___wmul@multiplier+1
  4087  007722  0E00               	movlw	0
  4088  007724  6E04               	movwf	___wmul@multiplicand+1,c
  4089  007726  0E03               	movlw	3
  4090  007728  6E03               	movwf	___wmul@multiplicand,c
  4091  00772A  EC29  F033         	call	___wmul	;wreg free
  4092  00772E  5001               	movf	?___wmul,w,c
  4093  007730  2416               	addwf	out_mf@z,w,c
  4094  007732  6ED9               	movwf	fsr2l,c
  4095  007734  5002               	movf	?___wmul+1,w,c
  4096  007736  2017               	addwfc	out_mf@z+1,w,c
  4097  007738  6EDA               	movwf	fsr2h,c
  4098  00773A  CFDE F007          	movff	postinc2,___ftge@ff1
  4099  00773E  CFDE F008          	movff	postinc2,___ftge@ff1+1
  4100  007742  CFDD F009          	movff	postdec2,___ftge@ff1+2
  4101  007746  C018  F001         	movff	out_mf@i,___wmul@multiplier
  4102  00774A  C019  F002         	movff	out_mf@i+1,___wmul@multiplier+1
  4103  00774E  0E00               	movlw	0
  4104  007750  6E04               	movwf	___wmul@multiplicand+1,c
  4105  007752  0E03               	movlw	3
  4106  007754  6E03               	movwf	___wmul@multiplicand,c
  4107  007756  EC29  F033         	call	___wmul	;wreg free
  4108  00775A  5001               	movf	?___wmul,w,c
  4109  00775C  2412               	addwf	out_mf@x,w,c
  4110  00775E  6ED9               	movwf	fsr2l,c
  4111  007760  5002               	movf	?___wmul+1,w,c
  4112  007762  2013               	addwfc	out_mf@x+1,w,c
  4113  007764  6EDA               	movwf	fsr2h,c
  4114  007766  CFDE F00A          	movff	postinc2,___ftge@ff2
  4115  00776A  CFDE F00B          	movff	postinc2,___ftge@ff2+1
  4116  00776E  CFDD F00C          	movff	postdec2,___ftge@ff2+2
  4117  007772  EC49  F034         	call	___ftge	;wreg free
  4118  007776  B0D8               	btfsc	status,0,c
  4119  007778  D01B               	goto	l2343
  4120                           
  4121                           ;fuzzy.c: 128: {
  4122                           ;fuzzy.c: 130: result[i]=x[i];
  4123  00777A  C018  F001         	movff	out_mf@i,___wmul@multiplier
  4124  00777E  C019  F002         	movff	out_mf@i+1,___wmul@multiplier+1
  4125  007782  0E00               	movlw	0
  4126  007784  6E04               	movwf	___wmul@multiplicand+1,c
  4127  007786  0E03               	movlw	3
  4128  007788  6E03               	movwf	___wmul@multiplicand,c
  4129  00778A  EC29  F033         	call	___wmul	;wreg free
  4130  00778E  5001               	movf	?___wmul,w,c
  4131  007790  2412               	addwf	out_mf@x,w,c
  4132  007792  6ED9               	movwf	fsr2l,c
  4133  007794  5002               	movf	?___wmul+1,w,c
  4134  007796  2013               	addwfc	out_mf@x+1,w,c
  4135  007798  6EDA               	movwf	fsr2h,c
  4136  00779A  C018  F001         	movff	out_mf@i,___wmul@multiplier
  4137  00779E  C019  F002         	movff	out_mf@i+1,___wmul@multiplier+1
  4138  0077A2  0E00               	movlw	0
  4139  0077A4  6E04               	movwf	___wmul@multiplicand+1,c
  4140  0077A6  0E03               	movlw	3
  4141  0077A8  6E03               	movwf	___wmul@multiplicand,c
  4142  0077AA  EC29  F033         	call	___wmul	;wreg free
  4143  0077AE  D095               	goto	L10
  4144  0077B0                     l2343:
  4145                           
  4146                           ;fuzzy.c: 132: else
  4147                           ;fuzzy.c: 133: {
  4148                           ;fuzzy.c: 134: if( y[i] > x[i] && y[i] > z[i]){
  4149  0077B0  C018  F001         	movff	out_mf@i,___wmul@multiplier
  4150  0077B4  C019  F002         	movff	out_mf@i+1,___wmul@multiplier+1
  4151  0077B8  0E00               	movlw	0
  4152  0077BA  6E04               	movwf	___wmul@multiplicand+1,c
  4153  0077BC  0E03               	movlw	3
  4154  0077BE  6E03               	movwf	___wmul@multiplicand,c
  4155  0077C0  EC29  F033         	call	___wmul	;wreg free
  4156  0077C4  5001               	movf	?___wmul,w,c
  4157  0077C6  2412               	addwf	out_mf@x,w,c
  4158  0077C8  6ED9               	movwf	fsr2l,c
  4159  0077CA  5002               	movf	?___wmul+1,w,c
  4160  0077CC  2013               	addwfc	out_mf@x+1,w,c
  4161  0077CE  6EDA               	movwf	fsr2h,c
  4162  0077D0  CFDE F007          	movff	postinc2,___ftge@ff1
  4163  0077D4  CFDE F008          	movff	postinc2,___ftge@ff1+1
  4164  0077D8  CFDD F009          	movff	postdec2,___ftge@ff1+2
  4165  0077DC  C018  F001         	movff	out_mf@i,___wmul@multiplier
  4166  0077E0  C019  F002         	movff	out_mf@i+1,___wmul@multiplier+1
  4167  0077E4  0E00               	movlw	0
  4168  0077E6  6E04               	movwf	___wmul@multiplicand+1,c
  4169  0077E8  0E03               	movlw	3
  4170  0077EA  6E03               	movwf	___wmul@multiplicand,c
  4171  0077EC  EC29  F033         	call	___wmul	;wreg free
  4172  0077F0  5001               	movf	?___wmul,w,c
  4173  0077F2  2414               	addwf	out_mf@y,w,c
  4174  0077F4  6ED9               	movwf	fsr2l,c
  4175  0077F6  5002               	movf	?___wmul+1,w,c
  4176  0077F8  2015               	addwfc	out_mf@y+1,w,c
  4177  0077FA  6EDA               	movwf	fsr2h,c
  4178  0077FC  CFDE F00A          	movff	postinc2,___ftge@ff2
  4179  007800  CFDE F00B          	movff	postinc2,___ftge@ff2+1
  4180  007804  CFDD F00C          	movff	postdec2,___ftge@ff2+2
  4181  007808  EC49  F034         	call	___ftge	;wreg free
  4182  00780C  B0D8               	btfsc	status,0,c
  4183  00780E  D04B               	goto	l2349
  4184  007810  C018  F001         	movff	out_mf@i,___wmul@multiplier
  4185  007814  C019  F002         	movff	out_mf@i+1,___wmul@multiplier+1
  4186  007818  0E00               	movlw	0
  4187  00781A  6E04               	movwf	___wmul@multiplicand+1,c
  4188  00781C  0E03               	movlw	3
  4189  00781E  6E03               	movwf	___wmul@multiplicand,c
  4190  007820  EC29  F033         	call	___wmul	;wreg free
  4191  007824  5001               	movf	?___wmul,w,c
  4192  007826  2416               	addwf	out_mf@z,w,c
  4193  007828  6ED9               	movwf	fsr2l,c
  4194  00782A  5002               	movf	?___wmul+1,w,c
  4195  00782C  2017               	addwfc	out_mf@z+1,w,c
  4196  00782E  6EDA               	movwf	fsr2h,c
  4197  007830  CFDE F007          	movff	postinc2,___ftge@ff1
  4198  007834  CFDE F008          	movff	postinc2,___ftge@ff1+1
  4199  007838  CFDD F009          	movff	postdec2,___ftge@ff1+2
  4200  00783C  C018  F001         	movff	out_mf@i,___wmul@multiplier
  4201  007840  C019  F002         	movff	out_mf@i+1,___wmul@multiplier+1
  4202  007844  0E00               	movlw	0
  4203  007846  6E04               	movwf	___wmul@multiplicand+1,c
  4204  007848  0E03               	movlw	3
  4205  00784A  6E03               	movwf	___wmul@multiplicand,c
  4206  00784C  EC29  F033         	call	___wmul	;wreg free
  4207  007850  5001               	movf	?___wmul,w,c
  4208  007852  2414               	addwf	out_mf@y,w,c
  4209  007854  6ED9               	movwf	fsr2l,c
  4210  007856  5002               	movf	?___wmul+1,w,c
  4211  007858  2015               	addwfc	out_mf@y+1,w,c
  4212  00785A  6EDA               	movwf	fsr2h,c
  4213  00785C  CFDE F00A          	movff	postinc2,___ftge@ff2
  4214  007860  CFDE F00B          	movff	postinc2,___ftge@ff2+1
  4215  007864  CFDD F00C          	movff	postdec2,___ftge@ff2+2
  4216  007868  EC49  F034         	call	___ftge	;wreg free
  4217  00786C  B0D8               	btfsc	status,0,c
  4218  00786E  D01B               	goto	l2349
  4219                           
  4220                           ;fuzzy.c: 136: result[i]=y[i];
  4221  007870  C018  F001         	movff	out_mf@i,___wmul@multiplier
  4222  007874  C019  F002         	movff	out_mf@i+1,___wmul@multiplier+1
  4223  007878  0E00               	movlw	0
  4224  00787A  6E04               	movwf	___wmul@multiplicand+1,c
  4225  00787C  0E03               	movlw	3
  4226  00787E  6E03               	movwf	___wmul@multiplicand,c
  4227  007880  EC29  F033         	call	___wmul	;wreg free
  4228  007884  5001               	movf	?___wmul,w,c
  4229  007886  2414               	addwf	out_mf@y,w,c
  4230  007888  6ED9               	movwf	fsr2l,c
  4231  00788A  5002               	movf	?___wmul+1,w,c
  4232  00788C  2015               	addwfc	out_mf@y+1,w,c
  4233  00788E  6EDA               	movwf	fsr2h,c
  4234  007890  C018  F001         	movff	out_mf@i,___wmul@multiplier
  4235  007894  C019  F002         	movff	out_mf@i+1,___wmul@multiplier+1
  4236  007898  0E00               	movlw	0
  4237  00789A  6E04               	movwf	___wmul@multiplicand+1,c
  4238  00789C  0E03               	movlw	3
  4239  00789E  6E03               	movwf	___wmul@multiplicand,c
  4240  0078A0  EC29  F033         	call	___wmul	;wreg free
  4241  0078A4  D01A               	goto	L10
  4242  0078A6                     l2349:
  4243                           
  4244                           ;fuzzy.c: 138: else
  4245                           ;fuzzy.c: 139: {
  4246                           ;fuzzy.c: 141: result[i]=z[i];
  4247  0078A6  C018  F001         	movff	out_mf@i,___wmul@multiplier
  4248  0078AA  C019  F002         	movff	out_mf@i+1,___wmul@multiplier+1
  4249  0078AE  0E00               	movlw	0
  4250  0078B0  6E04               	movwf	___wmul@multiplicand+1,c
  4251  0078B2  0E03               	movlw	3
  4252  0078B4  6E03               	movwf	___wmul@multiplicand,c
  4253  0078B6  EC29  F033         	call	___wmul	;wreg free
  4254  0078BA  5001               	movf	?___wmul,w,c
  4255  0078BC  2416               	addwf	out_mf@z,w,c
  4256  0078BE  6ED9               	movwf	fsr2l,c
  4257  0078C0  5002               	movf	?___wmul+1,w,c
  4258  0078C2  2017               	addwfc	out_mf@z+1,w,c
  4259  0078C4  6EDA               	movwf	fsr2h,c
  4260  0078C6  C018  F001         	movff	out_mf@i,___wmul@multiplier
  4261  0078CA  C019  F002         	movff	out_mf@i+1,___wmul@multiplier+1
  4262  0078CE  0E00               	movlw	0
  4263  0078D0  6E04               	movwf	___wmul@multiplicand+1,c
  4264  0078D2  0E03               	movlw	3
  4265  0078D4  6E03               	movwf	___wmul@multiplicand,c
  4266  0078D6  EC29  F033         	call	___wmul	;wreg free
  4267  0078DA                     L10:
  4268  0078DA  5001               	movf	?___wmul,w,c
  4269  0078DC  2410               	addwf	out_mf@result,w,c
  4270  0078DE  6EE1               	movwf	fsr1l,c
  4271  0078E0  5002               	movf	?___wmul+1,w,c
  4272  0078E2  2011               	addwfc	out_mf@result+1,w,c
  4273  0078E4  6EE2               	movwf	fsr1h,c
  4274  0078E6  CFDE FFE6          	movff	postinc2,postinc1
  4275  0078EA  CFDE FFE6          	movff	postinc2,postinc1
  4276  0078EE  CFDE FFE5          	movff	postinc2,postdec1
  4277  0078F2  52E5               	movf	postdec1,f,c
  4278  0078F4  4A18               	infsnz	out_mf@i,f,c
  4279  0078F6  2A19               	incf	out_mf@i+1,f,c
  4280  0078F8  D6D8               	goto	L11
  4281  0078FA                     l132:
  4282  0078FA  0012               	return	
  4283  0078FC                     __end_of_out_mf:
  4284                           	opt stack 0
  4285                           tblptru	equ	0xFF8
  4286                           tblptrh	equ	0xFF7
  4287                           tblptrl	equ	0xFF6
  4288                           tablat	equ	0xFF5
  4289                           wreg	equ	0xFE8
  4290                           postinc1	equ	0xFE6
  4291                           postdec1	equ	0xFE5
  4292                           fsr1h	equ	0xFE2
  4293                           fsr1l	equ	0xFE1
  4294                           postinc2	equ	0xFDE
  4295                           postdec2	equ	0xFDD
  4296                           fsr2h	equ	0xFDA
  4297                           fsr2l	equ	0xFD9
  4298                           status	equ	0xFD8
  4299                           
  4300 ;; *************** function ___ftge *****************
  4301 ;; Defined at:
  4302 ;;		line 4 in file "C:\Program Files\Microchip\xc8\v1.33\sources\common\ftge.c"
  4303 ;; Parameters:    Size  Location     Type
  4304 ;;  ff1             3    6[COMRAM] float 
  4305 ;;  ff2             3    9[COMRAM] float 
  4306 ;; Auto vars:     Size  Location     Type
  4307 ;;		None
  4308 ;; Return value:  Size  Location     Type
  4309 ;;		None               void
  4310 ;; Registers used:
  4311 ;;		wreg, status,2, status,0
  4312 ;; Tracked objects:
  4313 ;;		On entry : 0/0
  4314 ;;		On exit  : 0/0
  4315 ;;		Unchanged: 0/0
  4316 ;; Data sizes:     COMRAM   BANK0   BANK1   BANK2   BANK3   BANK4   BANK5   BANK6   BANK7
  4317 ;;      Params:         6       0       0       0       0       0       0       0       0
  4318 ;;      Locals:         0       0       0       0       0       0       0       0       0
  4319 ;;      Temps:          3       0       0       0       0       0       0       0       0
  4320 ;;      Totals:         9       0       0       0       0       0       0       0       0
  4321 ;;Total ram usage:        9 bytes
  4322 ;; Hardware stack levels used:    1
  4323 ;; This function calls:
  4324 ;;		Nothing
  4325 ;; This function is called by:
  4326 ;;		_triangular
  4327 ;;		_qualified
  4328 ;;		_out_mf
  4329 ;;		_minimo
  4330 ;;		_maximo
  4331 ;;		_trapezoidal
  4332 ;; This function uses a non-reentrant model
  4333 ;;
  4334                           
  4335                           	psect	text23
  4336  006892                     __ptext23:
  4337                           	opt stack 0
  4338  006892                     ___ftge:
  4339                           	opt stack 28
  4340                           
  4341                           ;incstack = 0
  4342  006892  AE09               	btfss	___ftge@ff1+2,7,c
  4343  006894  D016               	goto	l2017
  4344  006896  C007  F00D         	movff	___ftge@ff1,??___ftge
  4345  00689A  C008  F00E         	movff	___ftge@ff1+1,??___ftge+1
  4346  00689E  C009  F00F         	movff	___ftge@ff1+2,??___ftge+2
  4347  0068A2  1E0D               	comf	??___ftge,f,c
  4348  0068A4  1E0E               	comf	??___ftge+1,f,c
  4349  0068A6  1E0F               	comf	??___ftge+2,f,c
  4350  0068A8  2A0D               	incf	??___ftge,f,c
  4351  0068AA  0E00               	movlw	0
  4352  0068AC  220E               	addwfc	??___ftge+1,f,c
  4353  0068AE  220F               	addwfc	??___ftge+2,f,c
  4354  0068B0  0E00               	movlw	0
  4355  0068B2  240D               	addwf	??___ftge,w,c
  4356  0068B4  6E07               	movwf	___ftge@ff1,c
  4357  0068B6  0E00               	movlw	0
  4358  0068B8  200E               	addwfc	??___ftge+1,w,c
  4359  0068BA  6E08               	movwf	___ftge@ff1+1,c
  4360  0068BC  0E80               	movlw	128
  4361  0068BE  200F               	addwfc	??___ftge+2,w,c
  4362  0068C0  6E09               	movwf	___ftge@ff1+2,c
  4363  0068C2                     l2017:
  4364  0068C2  AE0C               	btfss	___ftge@ff2+2,7,c
  4365  0068C4  D016               	goto	l2021
  4366  0068C6  C00A  F00D         	movff	___ftge@ff2,??___ftge
  4367  0068CA  C00B  F00E         	movff	___ftge@ff2+1,??___ftge+1
  4368  0068CE  C00C  F00F         	movff	___ftge@ff2+2,??___ftge+2
  4369  0068D2  1E0D               	comf	??___ftge,f,c
  4370  0068D4  1E0E               	comf	??___ftge+1,f,c
  4371  0068D6  1E0F               	comf	??___ftge+2,f,c
  4372  0068D8  2A0D               	incf	??___ftge,f,c
  4373  0068DA  0E00               	movlw	0
  4374  0068DC  220E               	addwfc	??___ftge+1,f,c
  4375  0068DE  220F               	addwfc	??___ftge+2,f,c
  4376  0068E0  0E00               	movlw	0
  4377  0068E2  240D               	addwf	??___ftge,w,c
  4378  0068E4  6E0A               	movwf	___ftge@ff2,c
  4379  0068E6  0E00               	movlw	0
  4380  0068E8  200E               	addwfc	??___ftge+1,w,c
  4381  0068EA  6E0B               	movwf	___ftge@ff2+1,c
  4382  0068EC  0E80               	movlw	128
  4383  0068EE  200F               	addwfc	??___ftge+2,w,c
  4384  0068F0  6E0C               	movwf	___ftge@ff2+2,c
  4385  0068F2                     l2021:
  4386  0068F2  0E00               	movlw	0
  4387  0068F4  1A07               	xorwf	___ftge@ff1,f,c
  4388  0068F6  0E00               	movlw	0
  4389  0068F8  1A08               	xorwf	___ftge@ff1+1,f,c
  4390  0068FA  0E80               	movlw	128
  4391  0068FC  1A09               	xorwf	___ftge@ff1+2,f,c
  4392  0068FE  0E00               	movlw	0
  4393  006900  1A0A               	xorwf	___ftge@ff2,f,c
  4394  006902  0E00               	movlw	0
  4395  006904  1A0B               	xorwf	___ftge@ff2+1,f,c
  4396  006906  0E80               	movlw	128
  4397  006908  1A0C               	xorwf	___ftge@ff2+2,f,c
  4398  00690A  500A               	movf	___ftge@ff2,w,c
  4399  00690C  5C07               	subwf	___ftge@ff1,w,c
  4400  00690E  500B               	movf	___ftge@ff2+1,w,c
  4401  006910  5808               	subwfb	___ftge@ff1+1,w,c
  4402  006912  500C               	movf	___ftge@ff2+2,w,c
  4403  006914  5809               	subwfb	___ftge@ff1+2,w,c
  4404  006916  B0D8               	btfsc	status,0,c
  4405  006918  D002               	goto	l2027
  4406  00691A  90D8               	bcf	status,0,c
  4407  00691C  D001               	goto	l694
  4408  00691E                     l2027:
  4409  00691E  80D8               	bsf	status,0,c
  4410  006920                     l694:
  4411  006920  0012               	return	
  4412  006922                     __end_of___ftge:
  4413                           	opt stack 0
  4414                           tblptru	equ	0xFF8
  4415                           tblptrh	equ	0xFF7
  4416                           tblptrl	equ	0xFF6
  4417                           tablat	equ	0xFF5
  4418                           wreg	equ	0xFE8
  4419                           postinc1	equ	0xFE6
  4420                           postdec1	equ	0xFE5
  4421                           fsr1h	equ	0xFE2
  4422                           fsr1l	equ	0xFE1
  4423                           postinc2	equ	0xFDE
  4424                           postdec2	equ	0xFDD
  4425                           fsr2h	equ	0xFDA
  4426                           fsr2l	equ	0xFD9
  4427                           status	equ	0xFD8
  4428                           
  4429 ;; *************** function _linspace *****************
  4430 ;; Defined at:
  4431 ;;		line 12 in file "fuzzy.c"
  4432 ;; Parameters:    Size  Location     Type
  4433 ;;  x               2   54[COMRAM] PTR 
  4434 ;;		 -> fuzzy_system_single1@y(120), fuzzy_system_single1@x(120), fuzzy_system_single2@y(120), fuzzy_system_single2@x(12
      +0), 
  4435 ;;		 -> fuzzy_system_single@y(120), fuzzy_system_single@x(120), fuzzy_system@y(120), fuzzy_system@x(120), 
  4436 ;;  start           3   56[COMRAM] PTR 
  4437 ;;  end             3   59[COMRAM] PTR 
  4438 ;;  size            2   62[COMRAM] int 
  4439 ;; Auto vars:     Size  Location     Type
  4440 ;;  i               2   66[COMRAM] int 
  4441 ;; Return value:  Size  Location     Type
  4442 ;;		None               void
  4443 ;; Registers used:
  4444 ;;		wreg, fsr2l, fsr2h, status,2, status,0, prodl, prodh, cstack
  4445 ;; Tracked objects:
  4446 ;;		On entry : 0/0
  4447 ;;		On exit  : 0/0
  4448 ;;		Unchanged: 0/0
  4449 ;; Data sizes:     COMRAM   BANK0   BANK1   BANK2   BANK3   BANK4   BANK5   BANK6   BANK7
  4450 ;;      Params:        10       0       0       0       0       0       0       0       0
  4451 ;;      Locals:         2       0       0       0       0       0       0       0       0
  4452 ;;      Temps:          2       0       0       0       0       0       0       0       0
  4453 ;;      Totals:        14       0       0       0       0       0       0       0       0
  4454 ;;Total ram usage:       14 bytes
  4455 ;; Hardware stack levels used:    1
  4456 ;; Hardware stack levels required when called:    2
  4457 ;; This function calls:
  4458 ;;		___awtoft
  4459 ;;		___ftadd
  4460 ;;		___ftdiv
  4461 ;;		___ftmul
  4462 ;;		___wmul
  4463 ;; This function is called by:
  4464 ;;		_fuzzy_system_single2
  4465 ;;		_fuzzy_system_single1
  4466 ;;		_fuzzy_system
  4467 ;;		_fuzzy_system_single
  4468 ;; This function uses a non-reentrant model
  4469 ;;
  4470                           
  4471                           	psect	text24
  4472  006F8A                     __ptext24:
  4473                           	opt stack 0
  4474  006F8A                     _linspace:
  4475                           	opt stack 27
  4476                           
  4477                           ;fuzzy.c: 14: int i;
  4478                           ;fuzzy.c: 15: for (i=0; i<size; i++)
  4479                           
  4480                           ;incstack = 0
  4481  006F8A  0E00               	movlw	0
  4482  006F8C  6E44               	movwf	linspace@i+1,c
  4483  006F8E  0E00               	movlw	0
  4484  006F90  6E43               	movwf	linspace@i,c
  4485  006F92  D071               	goto	l2259
  4486  006F94                     l2255:
  4487                           
  4488                           ;fuzzy.c: 16: x[i] = ( i*end + (size-1-i)*start ) / (size-1);
  4489  006F94  C043  F001         	movff	linspace@i,___wmul@multiplier
  4490  006F98  C044  F002         	movff	linspace@i+1,___wmul@multiplier+1
  4491  006F9C  0E00               	movlw	0
  4492  006F9E  6E04               	movwf	___wmul@multiplicand+1,c
  4493  006FA0  0E03               	movlw	3
  4494  006FA2  6E03               	movwf	___wmul@multiplicand,c
  4495  006FA4  EC29  F033         	call	___wmul	;wreg free
  4496  006FA8  5001               	movf	?___wmul,w,c
  4497  006FAA  2437               	addwf	linspace@x,w,c
  4498  006FAC  6ED9               	movwf	fsr2l,c
  4499  006FAE  5002               	movf	?___wmul+1,w,c
  4500  006FB0  2038               	addwfc	linspace@x+1,w,c
  4501  006FB2  6EDA               	movwf	fsr2h,c
  4502  006FB4  C039  F010         	movff	linspace@start,___ftmul@f2
  4503  006FB8  C03A  F011         	movff	linspace@start+1,___ftmul@f2+1
  4504  006FBC  C03B  F012         	movff	linspace@start+2,___ftmul@f2+2
  4505  006FC0  0E01               	movlw	1
  4506  006FC2  2443               	addwf	linspace@i,w,c
  4507  006FC4  6E41               	movwf	??_linspace& (0+255),c
  4508  006FC6  0E00               	movlw	0
  4509  006FC8  2044               	addwfc	linspace@i+1,w,c
  4510  006FCA  6E42               	movwf	(??_linspace+1)& (0+255),c
  4511  006FCC  1E41               	comf	??_linspace,f,c
  4512  006FCE  1E42               	comf	??_linspace+1,f,c
  4513  006FD0  4A41               	infsnz	??_linspace,f,c
  4514  006FD2  2A42               	incf	??_linspace+1,f,c
  4515  006FD4  503F               	movf	linspace@size,w,c
  4516  006FD6  2441               	addwf	??_linspace,w,c
  4517  006FD8  6E09               	movwf	___awtoft@c,c
  4518  006FDA  5040               	movf	linspace@size+1,w,c
  4519  006FDC  2042               	addwfc	??_linspace+1,w,c
  4520  006FDE  6E0A               	movwf	___awtoft@c+1,c
  4521  006FE0  ECBB  F033         	call	___awtoft	;wreg free
  4522  006FE4  C009  F00D         	movff	?___awtoft,___ftmul@f1
  4523  006FE8  C00A  F00E         	movff	?___awtoft+1,___ftmul@f1+1
  4524  006FEC  C00B  F00F         	movff	?___awtoft+2,___ftmul@f1+2
  4525  006FF0  EC65  F036         	call	___ftmul	;wreg free
  4526  006FF4  C00D  F01F         	movff	?___ftmul,___ftadd@f2
  4527  006FF8  C00E  F020         	movff	?___ftmul+1,___ftadd@f2+1
  4528  006FFC  C00F  F021         	movff	?___ftmul+2,___ftadd@f2+2
  4529  007000  C03C  F010         	movff	linspace@end,___ftmul@f2
  4530  007004  C03D  F011         	movff	linspace@end+1,___ftmul@f2+1
  4531  007008  C03E  F012         	movff	linspace@end+2,___ftmul@f2+2
  4532  00700C  C043  F009         	movff	linspace@i,___awtoft@c
  4533  007010  C044  F00A         	movff	linspace@i+1,___awtoft@c+1
  4534  007014  ECBB  F033         	call	___awtoft	;wreg free
  4535  007018  C009  F00D         	movff	?___awtoft,___ftmul@f1
  4536  00701C  C00A  F00E         	movff	?___awtoft+1,___ftmul@f1+1
  4537  007020  C00B  F00F         	movff	?___awtoft+2,___ftmul@f1+2
  4538  007024  EC65  F036         	call	___ftmul	;wreg free
  4539  007028  C00D  F01C         	movff	?___ftmul,___ftadd@f1
  4540  00702C  C00E  F01D         	movff	?___ftmul+1,___ftadd@f1+1
  4541  007030  C00F  F01E         	movff	?___ftmul+2,___ftadd@f1+2
  4542  007034  EC88  F039         	call	___ftadd	;wreg free
  4543  007038  C01C  F028         	movff	?___ftadd,___ftdiv@f1
  4544  00703C  C01D  F029         	movff	?___ftadd+1,___ftdiv@f1+1
  4545  007040  C01E  F02A         	movff	?___ftadd+2,___ftdiv@f1+2
  4546  007044  0EFF               	movlw	255
  4547  007046  243F               	addwf	linspace@size,w,c
  4548  007048  6E09               	movwf	___awtoft@c,c
  4549  00704A  0EFF               	movlw	255
  4550  00704C  2040               	addwfc	linspace@size+1,w,c
  4551  00704E  6E0A               	movwf	___awtoft@c+1,c
  4552  007050  ECBB  F033         	call	___awtoft	;wreg free
  4553  007054  C009  F02B         	movff	?___awtoft,___ftdiv@f2
  4554  007058  C00A  F02C         	movff	?___awtoft+1,___ftdiv@f2+1
  4555  00705C  C00B  F02D         	movff	?___awtoft+2,___ftdiv@f2+2
  4556  007060  ECFA  F035         	call	___ftdiv	;wreg free
  4557  007064  C028  FFDE         	movff	?___ftdiv,postinc2
  4558  007068  C029  FFDE         	movff	?___ftdiv+1,postinc2
  4559  00706C  C02A  FFDD         	movff	?___ftdiv+2,postdec2
  4560  007070  52DD               	movf	postdec2,f,c
  4561  007072  4A43               	infsnz	linspace@i,f,c
  4562  007074  2A44               	incf	linspace@i+1,f,c
  4563  007076                     l2259:
  4564  007076  5044               	movf	linspace@i+1,w,c
  4565  007078  0A80               	xorlw	128
  4566  00707A  6E41               	movwf	??_linspace& (0+255),c
  4567  00707C  503F               	movf	linspace@size,w,c
  4568  00707E  5C43               	subwf	linspace@i,w,c
  4569  007080  5040               	movf	linspace@size+1,w,c
  4570  007082  0A80               	xorlw	128
  4571  007084  5841               	subwfb	??_linspace& (0+255),w,c
  4572  007086  B0D8               	btfsc	status,0,c
  4573                           
  4574                           ;fuzzy.c: 17: return;
  4575  007088  0012               	return	
  4576  00708A  D784               	goto	l2255
  4577  00708C                     __end_of_linspace:
  4578                           	opt stack 0
  4579                           tblptru	equ	0xFF8
  4580                           tblptrh	equ	0xFF7
  4581                           tblptrl	equ	0xFF6
  4582                           tablat	equ	0xFF5
  4583                           wreg	equ	0xFE8
  4584                           postinc1	equ	0xFE6
  4585                           postdec1	equ	0xFE5
  4586                           fsr1h	equ	0xFE2
  4587                           fsr1l	equ	0xFE1
  4588                           postinc2	equ	0xFDE
  4589                           postdec2	equ	0xFDD
  4590                           fsr2h	equ	0xFDA
  4591                           fsr2l	equ	0xFD9
  4592                           status	equ	0xFD8
  4593                           
  4594 ;; *************** function ___awtoft *****************
  4595 ;; Defined at:
  4596 ;;		line 32 in file "C:\Program Files\Microchip\xc8\v1.33\sources\common\awtoft.c"
  4597 ;; Parameters:    Size  Location     Type
  4598 ;;  c               2    8[COMRAM] int 
  4599 ;; Auto vars:     Size  Location     Type
  4600 ;;  sign            1   11[COMRAM] unsigned char 
  4601 ;; Return value:  Size  Location     Type
  4602 ;;                  3    8[COMRAM] float 
  4603 ;; Registers used:
  4604 ;;		wreg, status,2, status,0, prodl, cstack
  4605 ;; Tracked objects:
  4606 ;;		On entry : 0/0
  4607 ;;		On exit  : 0/0
  4608 ;;		Unchanged: 0/0
  4609 ;; Data sizes:     COMRAM   BANK0   BANK1   BANK2   BANK3   BANK4   BANK5   BANK6   BANK7
  4610 ;;      Params:         3       0       0       0       0       0       0       0       0
  4611 ;;      Locals:         1       0       0       0       0       0       0       0       0
  4612 ;;      Temps:          0       0       0       0       0       0       0       0       0
  4613 ;;      Totals:         4       0       0       0       0       0       0       0       0
  4614 ;;Total ram usage:        4 bytes
  4615 ;; Hardware stack levels used:    1
  4616 ;; Hardware stack levels required when called:    1
  4617 ;; This function calls:
  4618 ;;		___ftpack
  4619 ;; This function is called by:
  4620 ;;		_main
  4621 ;;		_linspace
  4622 ;; This function uses a non-reentrant model
  4623 ;;
  4624                           
  4625                           	psect	text25
  4626  006776                     __ptext25:
  4627                           	opt stack 0
  4628  006776                     ___awtoft:
  4629                           	opt stack 27
  4630                           
  4631                           ;incstack = 0
  4632  006776  0E00               	movlw	0
  4633  006778  6E0C               	movwf	___awtoft@sign,c
  4634  00677A  500A               	movf	___awtoft@c+1,w,c
  4635  00677C  0A80               	xorlw	128
  4636  00677E  6EF3               	movwf	prodl,c
  4637  006780  0E80               	movlw	128
  4638  006782  5CF3               	subwf	prodl,w,c
  4639  006784  0E00               	movlw	0
  4640  006786  B4D8               	btfsc	status,2,c
  4641  006788  5C09               	subwf	___awtoft@c,w,c
  4642  00678A  B0D8               	btfsc	status,0,c
  4643  00678C  D006               	goto	l2151
  4644  00678E  6C09               	negf	___awtoft@c,c
  4645  006790  1E0A               	comf	___awtoft@c+1,f,c
  4646  006792  B0D8               	btfsc	status,0,c
  4647  006794  2A0A               	incf	___awtoft@c+1,f,c
  4648  006796  0E01               	movlw	1
  4649  006798  6E0C               	movwf	___awtoft@sign,c
  4650  00679A                     l2151:
  4651  00679A  C009  F001         	movff	___awtoft@c,___ftpack@arg
  4652  00679E  C00A  F002         	movff	___awtoft@c+1,___ftpack@arg+1
  4653  0067A2  6A03               	clrf	___ftpack@arg+2,c
  4654  0067A4  0E8E               	movlw	142
  4655  0067A6  6E04               	movwf	___ftpack@exp,c
  4656  0067A8  C00C  F005         	movff	___awtoft@sign,___ftpack@sign
  4657  0067AC  ECE0  F034         	call	___ftpack	;wreg free
  4658  0067B0  C001  F009         	movff	?___ftpack,?___awtoft
  4659  0067B4  C002  F00A         	movff	?___ftpack+1,?___awtoft+1
  4660  0067B8  C003  F00B         	movff	?___ftpack+2,?___awtoft+2
  4661  0067BC  0012               	return	
  4662  0067BE                     __end_of___awtoft:
  4663                           	opt stack 0
  4664                           tblptru	equ	0xFF8
  4665                           tblptrh	equ	0xFF7
  4666                           tblptrl	equ	0xFF6
  4667                           tablat	equ	0xFF5
  4668                           prodl	equ	0xFF3
  4669                           wreg	equ	0xFE8
  4670                           postinc1	equ	0xFE6
  4671                           postdec1	equ	0xFE5
  4672                           fsr1h	equ	0xFE2
  4673                           fsr1l	equ	0xFE1
  4674                           postinc2	equ	0xFDE
  4675                           postdec2	equ	0xFDD
  4676                           fsr2h	equ	0xFDA
  4677                           fsr2l	equ	0xFD9
  4678                           status	equ	0xFD8
  4679                           
  4680 ;; *************** function _defuzzy *****************
  4681 ;; Defined at:
  4682 ;;		line 147 in file "fuzzy.c"
  4683 ;; Parameters:    Size  Location     Type
  4684 ;;  x               2   54[COMRAM] PTR 
  4685 ;;		 -> fuzzy_system_single1@y(120), fuzzy_system_single2@y(120), fuzzy_system_single@y(120), fuzzy_system@y(120), 
  4686 ;;  mf              2   56[COMRAM] PTR 
  4687 ;;		 -> fuzzy_system_single1@overall_out_mf(120), fuzzy_system_single2@overall_out_mf(120), fuzzy_system_single@overall_
      +out_mf(120), fuzzy_system@overall_out_mf(120), 
  4688 ;; Auto vars:     Size  Location     Type
  4689 ;;  sum2            3   64[COMRAM] PTR 
  4690 ;;  sum1            3   61[COMRAM] PTR 
  4691 ;;  out             3   58[COMRAM] PTR 
  4692 ;;  i               2   67[COMRAM] int 
  4693 ;; Return value:  Size  Location     Type
  4694 ;;                  3   54[COMRAM] int 
  4695 ;; Registers used:
  4696 ;;		wreg, fsr2l, fsr2h, status,2, status,0, prodl, prodh, cstack
  4697 ;; Tracked objects:
  4698 ;;		On entry : 0/0
  4699 ;;		On exit  : 0/0
  4700 ;;		Unchanged: 0/0
  4701 ;; Data sizes:     COMRAM   BANK0   BANK1   BANK2   BANK3   BANK4   BANK5   BANK6   BANK7
  4702 ;;      Params:         4       0       0       0       0       0       0       0       0
  4703 ;;      Locals:        11       0       0       0       0       0       0       0       0
  4704 ;;      Temps:          0       0       0       0       0       0       0       0       0
  4705 ;;      Totals:        15       0       0       0       0       0       0       0       0
  4706 ;;Total ram usage:       15 bytes
  4707 ;; Hardware stack levels used:    1
  4708 ;; Hardware stack levels required when called:    2
  4709 ;; This function calls:
  4710 ;;		___ftadd
  4711 ;;		___ftdiv
  4712 ;;		___ftmul
  4713 ;;		___wmul
  4714 ;; This function is called by:
  4715 ;;		_fuzzy_system_single2
  4716 ;;		_fuzzy_system_single1
  4717 ;;		_fuzzy_system
  4718 ;;		_fuzzy_system_single
  4719 ;; This function uses a non-reentrant model
  4720 ;;
  4721                           
  4722                           	psect	text26
  4723  0071AE                     __ptext26:
  4724                           	opt stack 0
  4725  0071AE                     _defuzzy:
  4726                           	opt stack 27
  4727                           
  4728                           ;fuzzy.c: 149: double sum1=0, sum2=0,out=0;
  4729                           
  4730                           ;incstack = 0
  4731  0071AE  0E00               	movlw	0
  4732  0071B0  6E3E               	movwf	defuzzy@sum1,c
  4733  0071B2  0E00               	movlw	0
  4734  0071B4  6E3F               	movwf	defuzzy@sum1+1,c
  4735  0071B6  0E00               	movlw	0
  4736  0071B8  6E40               	movwf	defuzzy@sum1+2,c
  4737  0071BA  0E00               	movlw	0
  4738  0071BC  6E41               	movwf	defuzzy@sum2,c
  4739  0071BE  0E00               	movlw	0
  4740  0071C0  6E42               	movwf	defuzzy@sum2+1,c
  4741  0071C2  0E00               	movlw	0
  4742  0071C4  6E43               	movwf	defuzzy@sum2+2,c
  4743  0071C6  0E00               	movlw	0
  4744  0071C8  6E3B               	movwf	defuzzy@out,c
  4745  0071CA  0E00               	movlw	0
  4746  0071CC  6E3C               	movwf	defuzzy@out+1,c
  4747  0071CE  0E00               	movlw	0
  4748  0071D0  6E3D               	movwf	defuzzy@out+2,c
  4749                           
  4750                           ;fuzzy.c: 150: int i;
  4751                           ;fuzzy.c: 151: for(i=0;i<40; i++)
  4752  0071D2  0E00               	movlw	0
  4753  0071D4  6E45               	movwf	defuzzy@i+1,c
  4754  0071D6  0E00               	movlw	0
  4755  0071D8  6E44               	movwf	defuzzy@i,c
  4756  0071DA  5045               	movf	defuzzy@i+1,w,c
  4757  0071DC  0A80               	xorlw	128
  4758  0071DE  0F80               	addlw	-128
  4759  0071E0  0E28               	movlw	40
  4760  0071E2  B4D8               	btfsc	status,2,c
  4761  0071E4  5C44               	subwf	defuzzy@i,w,c
  4762  0071E6  B0D8               	btfsc	status,0,c
  4763  0071E8  D045               	goto	l2367
  4764                           
  4765                           ;fuzzy.c: 152: sum1+=x[i]*mf[i];
  4766  0071EA  C03E  F01C         	movff	defuzzy@sum1,___ftadd@f1
  4767  0071EE  C03F  F01D         	movff	defuzzy@sum1+1,___ftadd@f1+1
  4768  0071F2  C040  F01E         	movff	defuzzy@sum1+2,___ftadd@f1+2
  4769  0071F6  C044  F001         	movff	defuzzy@i,___wmul@multiplier
  4770  0071FA  C045  F002         	movff	defuzzy@i+1,___wmul@multiplier+1
  4771  0071FE  0E00               	movlw	0
  4772  007200  6E04               	movwf	___wmul@multiplicand+1,c
  4773  007202  0E03               	movlw	3
  4774  007204  6E03               	movwf	___wmul@multiplicand,c
  4775  007206  EC29  F033         	call	___wmul	;wreg free
  4776  00720A  5001               	movf	?___wmul,w,c
  4777  00720C  2439               	addwf	defuzzy@mf,w,c
  4778  00720E  6ED9               	movwf	fsr2l,c
  4779  007210  5002               	movf	?___wmul+1,w,c
  4780  007212  203A               	addwfc	defuzzy@mf+1,w,c
  4781  007214  6EDA               	movwf	fsr2h,c
  4782  007216  CFDE F010          	movff	postinc2,___ftmul@f2
  4783  00721A  CFDE F011          	movff	postinc2,___ftmul@f2+1
  4784  00721E  CFDD F012          	movff	postdec2,___ftmul@f2+2
  4785  007222  C044  F001         	movff	defuzzy@i,___wmul@multiplier
  4786  007226  C045  F002         	movff	defuzzy@i+1,___wmul@multiplier+1
  4787  00722A  0E00               	movlw	0
  4788  00722C  6E04               	movwf	___wmul@multiplicand+1,c
  4789  00722E  0E03               	movlw	3
  4790  007230  6E03               	movwf	___wmul@multiplicand,c
  4791  007232  EC29  F033         	call	___wmul	;wreg free
  4792  007236  5001               	movf	?___wmul,w,c
  4793  007238  2437               	addwf	defuzzy@x,w,c
  4794  00723A  6ED9               	movwf	fsr2l,c
  4795  00723C  5002               	movf	?___wmul+1,w,c
  4796  00723E  2038               	addwfc	defuzzy@x+1,w,c
  4797  007240  6EDA               	movwf	fsr2h,c
  4798  007242  CFDE F00D          	movff	postinc2,___ftmul@f1
  4799  007246  CFDE F00E          	movff	postinc2,___ftmul@f1+1
  4800  00724A  CFDD F00F          	movff	postdec2,___ftmul@f1+2
  4801  00724E  EC65  F036         	call	___ftmul	;wreg free
  4802  007252  C00D  F01F         	movff	?___ftmul,___ftadd@f2
  4803  007256  C00E  F020         	movff	?___ftmul+1,___ftadd@f2+1
  4804  00725A  C00F  F021         	movff	?___ftmul+2,___ftadd@f2+2
  4805  00725E  EC88  F039         	call	___ftadd	;wreg free
  4806  007262  C01C  F03E         	movff	?___ftadd,defuzzy@sum1
  4807  007266  C01D  F03F         	movff	?___ftadd+1,defuzzy@sum1+1
  4808  00726A  C01E  F040         	movff	?___ftadd+2,defuzzy@sum1+2
  4809  00726E  4A44               	infsnz	defuzzy@i,f,c
  4810  007270  2A45               	incf	defuzzy@i+1,f,c
  4811  007272  D7B3               	goto	L12
  4812  007274                     l2367:
  4813                           
  4814                           ;fuzzy.c: 153: for(i=0;i<40; i++)
  4815  007274  0E00               	movlw	0
  4816  007276  6E45               	movwf	defuzzy@i+1,c
  4817  007278  0E00               	movlw	0
  4818  00727A  6E44               	movwf	defuzzy@i,c
  4819  00727C  5045               	movf	defuzzy@i+1,w,c
  4820  00727E  0A80               	xorlw	128
  4821  007280  0F80               	addlw	-128
  4822  007282  0E28               	movlw	40
  4823  007284  B4D8               	btfsc	status,2,c
  4824  007286  5C44               	subwf	defuzzy@i,w,c
  4825  007288  B0D8               	btfsc	status,0,c
  4826  00728A  D027               	goto	l2379
  4827                           
  4828                           ;fuzzy.c: 154: sum2+=mf[i];
  4829  00728C  C041  F01C         	movff	defuzzy@sum2,___ftadd@f1
  4830  007290  C042  F01D         	movff	defuzzy@sum2+1,___ftadd@f1+1
  4831  007294  C043  F01E         	movff	defuzzy@sum2+2,___ftadd@f1+2
  4832  007298  C044  F001         	movff	defuzzy@i,___wmul@multiplier
  4833  00729C  C045  F002         	movff	defuzzy@i+1,___wmul@multiplier+1
  4834  0072A0  0E00               	movlw	0
  4835  0072A2  6E04               	movwf	___wmul@multiplicand+1,c
  4836  0072A4  0E03               	movlw	3
  4837  0072A6  6E03               	movwf	___wmul@multiplicand,c
  4838  0072A8  EC29  F033         	call	___wmul	;wreg free
  4839  0072AC  5001               	movf	?___wmul,w,c
  4840  0072AE  2439               	addwf	defuzzy@mf,w,c
  4841  0072B0  6ED9               	movwf	fsr2l,c
  4842  0072B2  5002               	movf	?___wmul+1,w,c
  4843  0072B4  203A               	addwfc	defuzzy@mf+1,w,c
  4844  0072B6  6EDA               	movwf	fsr2h,c
  4845  0072B8  CFDE F01F          	movff	postinc2,___ftadd@f2
  4846  0072BC  CFDE F020          	movff	postinc2,___ftadd@f2+1
  4847  0072C0  CFDD F021          	movff	postdec2,___ftadd@f2+2
  4848  0072C4  EC88  F039         	call	___ftadd	;wreg free
  4849  0072C8  C01C  F041         	movff	?___ftadd,defuzzy@sum2
  4850  0072CC  C01D  F042         	movff	?___ftadd+1,defuzzy@sum2+1
  4851  0072D0  C01E  F043         	movff	?___ftadd+2,defuzzy@sum2+2
  4852  0072D4  4A44               	infsnz	defuzzy@i,f,c
  4853  0072D6  2A45               	incf	defuzzy@i+1,f,c
  4854  0072D8  D7D1               	goto	L13
  4855  0072DA                     l2379:
  4856                           
  4857                           ;fuzzy.c: 155: out=sum1/sum2;
  4858  0072DA  C03E  F028         	movff	defuzzy@sum1,___ftdiv@f1
  4859  0072DE  C03F  F029         	movff	defuzzy@sum1+1,___ftdiv@f1+1
  4860  0072E2  C040  F02A         	movff	defuzzy@sum1+2,___ftdiv@f1+2
  4861  0072E6  C041  F02B         	movff	defuzzy@sum2,___ftdiv@f2
  4862  0072EA  C042  F02C         	movff	defuzzy@sum2+1,___ftdiv@f2+1
  4863  0072EE  C043  F02D         	movff	defuzzy@sum2+2,___ftdiv@f2+2
  4864  0072F2  ECFA  F035         	call	___ftdiv	;wreg free
  4865  0072F6  C028  F03B         	movff	?___ftdiv,defuzzy@out
  4866  0072FA  C029  F03C         	movff	?___ftdiv+1,defuzzy@out+1
  4867  0072FE  C02A  F03D         	movff	?___ftdiv+2,defuzzy@out+2
  4868                           
  4869                           ;fuzzy.c: 156: return out;
  4870  007302  C03B  F037         	movff	defuzzy@out,?_defuzzy
  4871  007306  C03C  F038         	movff	defuzzy@out+1,?_defuzzy+1
  4872  00730A  C03D  F039         	movff	defuzzy@out+2,?_defuzzy+2
  4873  00730E  0012               	return	
  4874  007310                     __end_of_defuzzy:
  4875                           	opt stack 0
  4876                           tblptru	equ	0xFF8
  4877                           tblptrh	equ	0xFF7
  4878                           tblptrl	equ	0xFF6
  4879                           tablat	equ	0xFF5
  4880                           prodl	equ	0xFF3
  4881                           wreg	equ	0xFE8
  4882                           postinc1	equ	0xFE6
  4883                           postdec1	equ	0xFE5
  4884                           fsr1h	equ	0xFE2
  4885                           fsr1l	equ	0xFE1
  4886                           postinc2	equ	0xFDE
  4887                           postdec2	equ	0xFDD
  4888                           fsr2h	equ	0xFDA
  4889                           fsr2l	equ	0xFD9
  4890                           status	equ	0xFD8
  4891                           
  4892 ;; *************** function ___wmul *****************
  4893 ;; Defined at:
  4894 ;;		line 15 in file "C:\Program Files\Microchip\xc8\v1.33\sources\common\Umul16.c"
  4895 ;; Parameters:    Size  Location     Type
  4896 ;;  multiplier      2    0[COMRAM] unsigned int 
  4897 ;;  multiplicand    2    2[COMRAM] unsigned int 
  4898 ;; Auto vars:     Size  Location     Type
  4899 ;;  product         2    4[COMRAM] unsigned int 
  4900 ;; Return value:  Size  Location     Type
  4901 ;;                  2    0[COMRAM] unsigned int 
  4902 ;; Registers used:
  4903 ;;		wreg, status,2, status,0, prodl, prodh
  4904 ;; Tracked objects:
  4905 ;;		On entry : 0/0
  4906 ;;		On exit  : 0/0
  4907 ;;		Unchanged: 0/0
  4908 ;; Data sizes:     COMRAM   BANK0   BANK1   BANK2   BANK3   BANK4   BANK5   BANK6   BANK7
  4909 ;;      Params:         4       0       0       0       0       0       0       0       0
  4910 ;;      Locals:         2       0       0       0       0       0       0       0       0
  4911 ;;      Temps:          0       0       0       0       0       0       0       0       0
  4912 ;;      Totals:         6       0       0       0       0       0       0       0       0
  4913 ;;Total ram usage:        6 bytes
  4914 ;; Hardware stack levels used:    1
  4915 ;; This function calls:
  4916 ;;		Nothing
  4917 ;; This function is called by:
  4918 ;;		_linspace
  4919 ;;		_tri_mf
  4920 ;;		_qualified
  4921 ;;		_out_mf
  4922 ;;		_defuzzy
  4923 ;;		_minimo
  4924 ;;		_maximo
  4925 ;;		_trap_mf
  4926 ;;		_fuzzy_system
  4927 ;; This function uses a non-reentrant model
  4928 ;;
  4929                           
  4930                           	psect	text27
  4931  006652                     __ptext27:
  4932                           	opt stack 0
  4933  006652                     ___wmul:
  4934                           	opt stack 28
  4935                           
  4936                           ;incstack = 0
  4937  006652  5001               	movf	___wmul@multiplier,w,c
  4938  006654  0203               	mulwf	___wmul@multiplicand,c
  4939  006656  CFF3 F005          	movff	prodl,___wmul@product
  4940  00665A  CFF4 F006          	movff	prodh,___wmul@product+1
  4941  00665E  5001               	movf	___wmul@multiplier,w,c
  4942  006660  0204               	mulwf	___wmul@multiplicand+1,c
  4943  006662  50F3               	movf	prodl,w,c
  4944  006664  2606               	addwf	___wmul@product+1,f,c
  4945  006666  5002               	movf	___wmul@multiplier+1,w,c
  4946  006668  0203               	mulwf	___wmul@multiplicand,c
  4947  00666A  50F3               	movf	prodl,w,c
  4948  00666C  2606               	addwf	___wmul@product+1,f,c
  4949  00666E  C005  F001         	movff	___wmul@product,?___wmul
  4950  006672  C006  F002         	movff	___wmul@product+1,?___wmul+1
  4951  006676  0012               	return	
  4952  006678                     __end_of___wmul:
  4953                           	opt stack 0
  4954                           tblptru	equ	0xFF8
  4955                           tblptrh	equ	0xFF7
  4956                           tblptrl	equ	0xFF6
  4957                           tablat	equ	0xFF5
  4958                           prodh	equ	0xFF4
  4959                           prodl	equ	0xFF3
  4960                           wreg	equ	0xFE8
  4961                           postinc1	equ	0xFE6
  4962                           postdec1	equ	0xFE5
  4963                           fsr1h	equ	0xFE2
  4964                           fsr1l	equ	0xFE1
  4965                           postinc2	equ	0xFDE
  4966                           postdec2	equ	0xFDD
  4967                           fsr2h	equ	0xFDA
  4968                           fsr2l	equ	0xFD9
  4969                           status	equ	0xFD8
  4970                           
  4971 ;; *************** function ___ftmul *****************
  4972 ;; Defined at:
  4973 ;;		line 62 in file "C:\Program Files\Microchip\xc8\v1.33\sources\common\ftmul.c"
  4974 ;; Parameters:    Size  Location     Type
  4975 ;;  f1              3   12[COMRAM] float 
  4976 ;;  f2              3   15[COMRAM] float 
  4977 ;; Auto vars:     Size  Location     Type
  4978 ;;  f3_as_produc    3   22[COMRAM] unsigned um
  4979 ;;  sign            1   26[COMRAM] unsigned char 
  4980 ;;  cntr            1   25[COMRAM] unsigned char 
  4981 ;;  exp             1   21[COMRAM] unsigned char 
  4982 ;; Return value:  Size  Location     Type
  4983 ;;                  3   12[COMRAM] float 
  4984 ;; Registers used:
  4985 ;;		wreg, status,2, status,0, cstack
  4986 ;; Tracked objects:
  4987 ;;		On entry : 0/0
  4988 ;;		On exit  : 0/0
  4989 ;;		Unchanged: 0/0
  4990 ;; Data sizes:     COMRAM   BANK0   BANK1   BANK2   BANK3   BANK4   BANK5   BANK6   BANK7
  4991 ;;      Params:         6       0       0       0       0       0       0       0       0
  4992 ;;      Locals:         6       0       0       0       0       0       0       0       0
  4993 ;;      Temps:          3       0       0       0       0       0       0       0       0
  4994 ;;      Totals:        15       0       0       0       0       0       0       0       0
  4995 ;;Total ram usage:       15 bytes
  4996 ;; Hardware stack levels used:    1
  4997 ;; Hardware stack levels required when called:    1
  4998 ;; This function calls:
  4999 ;;		___ftpack
  5000 ;; This function is called by:
  5001 ;;		_linspace
  5002 ;;		_defuzzy
  5003 ;;		_PWM_DutyCycle1
  5004 ;;		_PWM_DutyCycle2
  5005 ;; This function uses a non-reentrant model
  5006 ;;
  5007                           
  5008                           	psect	text28
  5009  006CCA                     __ptext28:
  5010                           	opt stack 0
  5011  006CCA                     ___ftmul:
  5012                           	opt stack 27
  5013                           
  5014                           ;incstack = 0
  5015  006CCA  C00F  F013         	movff	___ftmul@f1+2,??___ftmul
  5016  006CCE  6A14               	clrf	(??___ftmul+1)& (0+255),c
  5017  006CD0  6A15               	clrf	(??___ftmul+2)& (0+255),c
  5018  006CD2  340E               	rlcf	___ftmul@f1+1,w,c
  5019  006CD4  3613               	rlcf	??___ftmul& (0+255),f,c
  5020  006CD6  E301               	bnc	u1981
  5021  006CD8  8014               	bsf	(??___ftmul+1)& (0+255),0,c
  5022  006CDA                     u1981:
  5023  006CDA  5013               	movf	??___ftmul,w,c
  5024  006CDC  6E16               	movwf	___ftmul@exp,c
  5025  006CDE  6616               	tstfsz	___ftmul@exp& (0+255),c
  5026  006CE0  D001               	goto	l2101
  5027  006CE2  D00C               	goto	u2010
  5028  006CE4                     l2101:
  5029  006CE4  C012  F013         	movff	___ftmul@f2+2,??___ftmul
  5030  006CE8  6A14               	clrf	(??___ftmul+1)& (0+255),c
  5031  006CEA  6A15               	clrf	(??___ftmul+2)& (0+255),c
  5032  006CEC  3411               	rlcf	___ftmul@f2+1,w,c
  5033  006CEE  3613               	rlcf	??___ftmul& (0+255),f,c
  5034  006CF0  E301               	bnc	u2001
  5035  006CF2  8014               	bsf	(??___ftmul+1)& (0+255),0,c
  5036  006CF4                     u2001:
  5037  006CF4  5013               	movf	??___ftmul,w,c
  5038  006CF6  6E1B               	movwf	___ftmul@sign,c
  5039  006CF8  661B               	tstfsz	___ftmul@sign& (0+255),c
  5040  006CFA  D007               	goto	l2107
  5041  006CFC                     u2010:
  5042  006CFC  0E00               	movlw	0
  5043  006CFE  6E0D               	movwf	?___ftmul,c
  5044  006D00  0E00               	movlw	0
  5045  006D02  6E0E               	movwf	?___ftmul+1,c
  5046  006D04  0E00               	movlw	0
  5047  006D06  6E0F               	movwf	?___ftmul+2,c
  5048  006D08  D051               	goto	l700
  5049  006D0A                     l2107:
  5050  006D0A  501B               	movf	___ftmul@sign,w,c
  5051  006D0C  0F7B               	addlw	123
  5052  006D0E  2616               	addwf	___ftmul@exp,f,c
  5053  006D10  C00F  F01B         	movff	___ftmul@f1+2,___ftmul@sign
  5054  006D14  5012               	movf	___ftmul@f2+2,w,c
  5055  006D16  1A1B               	xorwf	___ftmul@sign,f,c
  5056  006D18  0E80               	movlw	128
  5057  006D1A  161B               	andwf	___ftmul@sign,f,c
  5058  006D1C  8E0E               	bsf	___ftmul@f1+1,7,c
  5059  006D1E  8E11               	bsf	___ftmul@f2+1,7,c
  5060  006D20  0EFF               	movlw	255
  5061  006D22  1610               	andwf	___ftmul@f2,f,c
  5062  006D24  0EFF               	movlw	255
  5063  006D26  1611               	andwf	___ftmul@f2+1,f,c
  5064  006D28  0E00               	movlw	0
  5065  006D2A  1612               	andwf	___ftmul@f2+2,f,c
  5066  006D2C  0E00               	movlw	0
  5067  006D2E  6E17               	movwf	___ftmul@f3_as_product,c
  5068  006D30  0E00               	movlw	0
  5069  006D32  6E18               	movwf	___ftmul@f3_as_product+1,c
  5070  006D34  0E00               	movlw	0
  5071  006D36  6E19               	movwf	___ftmul@f3_as_product+2,c
  5072  006D38  0E07               	movlw	7
  5073  006D3A  6E1A               	movwf	___ftmul@cntr,c
  5074  006D3C                     l2121:
  5075  006D3C  A00D               	btfss	___ftmul@f1,0,c
  5076  006D3E  D006               	goto	l2125
  5077  006D40  5010               	movf	___ftmul@f2,w,c
  5078  006D42  2617               	addwf	___ftmul@f3_as_product,f,c
  5079  006D44  5011               	movf	___ftmul@f2+1,w,c
  5080  006D46  2218               	addwfc	___ftmul@f3_as_product+1,f,c
  5081  006D48  5012               	movf	___ftmul@f2+2,w,c
  5082  006D4A  2219               	addwfc	___ftmul@f3_as_product+2,f,c
  5083  006D4C                     l2125:
  5084  006D4C  90D8               	bcf	status,0,c
  5085  006D4E  320F               	rrcf	___ftmul@f1+2,f,c
  5086  006D50  320E               	rrcf	___ftmul@f1+1,f,c
  5087  006D52  320D               	rrcf	___ftmul@f1,f,c
  5088  006D54  90D8               	bcf	status,0,c
  5089  006D56  3610               	rlcf	___ftmul@f2,f,c
  5090  006D58  3611               	rlcf	___ftmul@f2+1,f,c
  5091  006D5A  3612               	rlcf	___ftmul@f2+2,f,c
  5092  006D5C  2E1A               	decfsz	___ftmul@cntr,f,c
  5093  006D5E  D7EE               	goto	l2121
  5094  006D60  0E09               	movlw	9
  5095  006D62  6E1A               	movwf	___ftmul@cntr,c
  5096  006D64                     l2131:
  5097  006D64  A00D               	btfss	___ftmul@f1,0,c
  5098  006D66  D006               	goto	l2135
  5099  006D68  5010               	movf	___ftmul@f2,w,c
  5100  006D6A  2617               	addwf	___ftmul@f3_as_product,f,c
  5101  006D6C  5011               	movf	___ftmul@f2+1,w,c
  5102  006D6E  2218               	addwfc	___ftmul@f3_as_product+1,f,c
  5103  006D70  5012               	movf	___ftmul@f2+2,w,c
  5104  006D72  2219               	addwfc	___ftmul@f3_as_product+2,f,c
  5105  006D74                     l2135:
  5106  006D74  90D8               	bcf	status,0,c
  5107  006D76  320F               	rrcf	___ftmul@f1+2,f,c
  5108  006D78  320E               	rrcf	___ftmul@f1+1,f,c
  5109  006D7A  320D               	rrcf	___ftmul@f1,f,c
  5110  006D7C  90D8               	bcf	status,0,c
  5111  006D7E  3219               	rrcf	___ftmul@f3_as_product+2,f,c
  5112  006D80  3218               	rrcf	___ftmul@f3_as_product+1,f,c
  5113  006D82  3217               	rrcf	___ftmul@f3_as_product,f,c
  5114  006D84  2E1A               	decfsz	___ftmul@cntr,f,c
  5115  006D86  D7EE               	goto	l2131
  5116  006D88  C017  F001         	movff	___ftmul@f3_as_product,___ftpack@arg
  5117  006D8C  C018  F002         	movff	___ftmul@f3_as_product+1,___ftpack@arg+1
  5118  006D90  C019  F003         	movff	___ftmul@f3_as_product+2,___ftpack@arg+2
  5119  006D94  C016  F004         	movff	___ftmul@exp,___ftpack@exp
  5120  006D98  C01B  F005         	movff	___ftmul@sign,___ftpack@sign
  5121  006D9C  ECE0  F034         	call	___ftpack	;wreg free
  5122  006DA0  C001  F00D         	movff	?___ftpack,?___ftmul
  5123  006DA4  C002  F00E         	movff	?___ftpack+1,?___ftmul+1
  5124  006DA8  C003  F00F         	movff	?___ftpack+2,?___ftmul+2
  5125  006DAC                     l700:
  5126  006DAC  0012               	return	
  5127  006DAE                     __end_of___ftmul:
  5128                           	opt stack 0
  5129                           tblptru	equ	0xFF8
  5130                           tblptrh	equ	0xFF7
  5131                           tblptrl	equ	0xFF6
  5132                           tablat	equ	0xFF5
  5133                           prodh	equ	0xFF4
  5134                           prodl	equ	0xFF3
  5135                           wreg	equ	0xFE8
  5136                           postinc1	equ	0xFE6
  5137                           postdec1	equ	0xFE5
  5138                           fsr1h	equ	0xFE2
  5139                           fsr1l	equ	0xFE1
  5140                           postinc2	equ	0xFDE
  5141                           postdec2	equ	0xFDD
  5142                           fsr2h	equ	0xFDA
  5143                           fsr2l	equ	0xFD9
  5144                           status	equ	0xFD8
  5145                           
  5146 ;; *************** function ___ftdiv *****************
  5147 ;; Defined at:
  5148 ;;		line 49 in file "C:\Program Files\Microchip\xc8\v1.33\sources\common\ftdiv.c"
  5149 ;; Parameters:    Size  Location     Type
  5150 ;;  f1              3   39[COMRAM] float 
  5151 ;;  f2              3   42[COMRAM] float 
  5152 ;; Auto vars:     Size  Location     Type
  5153 ;;  f3              3   49[COMRAM] float 
  5154 ;;  sign            1   53[COMRAM] unsigned char 
  5155 ;;  exp             1   52[COMRAM] unsigned char 
  5156 ;;  cntr            1   48[COMRAM] unsigned char 
  5157 ;; Return value:  Size  Location     Type
  5158 ;;                  3   39[COMRAM] float 
  5159 ;; Registers used:
  5160 ;;		wreg, status,2, status,0, cstack
  5161 ;; Tracked objects:
  5162 ;;		On entry : 0/0
  5163 ;;		On exit  : 0/0
  5164 ;;		Unchanged: 0/0
  5165 ;; Data sizes:     COMRAM   BANK0   BANK1   BANK2   BANK3   BANK4   BANK5   BANK6   BANK7
  5166 ;;      Params:         6       0       0       0       0       0       0       0       0
  5167 ;;      Locals:         6       0       0       0       0       0       0       0       0
  5168 ;;      Temps:          3       0       0       0       0       0       0       0       0
  5169 ;;      Totals:        15       0       0       0       0       0       0       0       0
  5170 ;;Total ram usage:       15 bytes
  5171 ;; Hardware stack levels used:    1
  5172 ;; Hardware stack levels required when called:    1
  5173 ;; This function calls:
  5174 ;;		___ftpack
  5175 ;; This function is called by:
  5176 ;;		_linspace
  5177 ;;		_triangular
  5178 ;;		_defuzzy
  5179 ;;		_trapezoidal
  5180 ;; This function uses a non-reentrant model
  5181 ;;
  5182                           
  5183                           	psect	text29
  5184  006BF4                     __ptext29:
  5185                           	opt stack 0
  5186  006BF4                     ___ftdiv:
  5187                           	opt stack 27
  5188                           
  5189                           ;incstack = 0
  5190  006BF4  C02A  F02E         	movff	___ftdiv@f1+2,??___ftdiv
  5191  006BF8  6A2F               	clrf	(??___ftdiv+1)& (0+255),c
  5192  006BFA  6A30               	clrf	(??___ftdiv+2)& (0+255),c
  5193  006BFC  3429               	rlcf	___ftdiv@f1+1,w,c
  5194  006BFE  362E               	rlcf	??___ftdiv& (0+255),f,c
  5195  006C00  E301               	bnc	u1791
  5196  006C02  802F               	bsf	(??___ftdiv+1)& (0+255),0,c
  5197  006C04                     u1791:
  5198  006C04  502E               	movf	??___ftdiv,w,c
  5199  006C06  6E35               	movwf	___ftdiv@exp,c
  5200  006C08  6635               	tstfsz	___ftdiv@exp& (0+255),c
  5201  006C0A  D001               	goto	l1973
  5202  006C0C  D00C               	goto	u1820
  5203  006C0E                     l1973:
  5204  006C0E  C02D  F02E         	movff	___ftdiv@f2+2,??___ftdiv
  5205  006C12  6A2F               	clrf	(??___ftdiv+1)& (0+255),c
  5206  006C14  6A30               	clrf	(??___ftdiv+2)& (0+255),c
  5207  006C16  342C               	rlcf	___ftdiv@f2+1,w,c
  5208  006C18  362E               	rlcf	??___ftdiv& (0+255),f,c
  5209  006C1A  E301               	bnc	u1811
  5210  006C1C  802F               	bsf	(??___ftdiv+1)& (0+255),0,c
  5211  006C1E                     u1811:
  5212  006C1E  502E               	movf	??___ftdiv,w,c
  5213  006C20  6E36               	movwf	___ftdiv@sign,c
  5214  006C22  6636               	tstfsz	___ftdiv@sign& (0+255),c
  5215  006C24  D007               	goto	l1979
  5216  006C26                     u1820:
  5217  006C26  0E00               	movlw	0
  5218  006C28  6E28               	movwf	?___ftdiv,c
  5219  006C2A  0E00               	movlw	0
  5220  006C2C  6E29               	movwf	?___ftdiv+1,c
  5221  006C2E  0E00               	movlw	0
  5222  006C30  6E2A               	movwf	?___ftdiv+2,c
  5223  006C32  D04A               	goto	l685
  5224  006C34                     l1979:
  5225  006C34  0E00               	movlw	0
  5226  006C36  6E32               	movwf	___ftdiv@f3,c
  5227  006C38  0E00               	movlw	0
  5228  006C3A  6E33               	movwf	___ftdiv@f3+1,c
  5229  006C3C  0E00               	movlw	0
  5230  006C3E  6E34               	movwf	___ftdiv@f3+2,c
  5231  006C40  5036               	movf	___ftdiv@sign,w,c
  5232  006C42  0F89               	addlw	137
  5233  006C44  5E35               	subwf	___ftdiv@exp,f,c
  5234  006C46  C02A  F036         	movff	___ftdiv@f1+2,___ftdiv@sign
  5235  006C4A  502D               	movf	___ftdiv@f2+2,w,c
  5236  006C4C  1A36               	xorwf	___ftdiv@sign,f,c
  5237  006C4E  0E80               	movlw	128
  5238  006C50  1636               	andwf	___ftdiv@sign,f,c
  5239  006C52  8E29               	bsf	___ftdiv@f1+1,7,c
  5240  006C54  0EFF               	movlw	255
  5241  006C56  1628               	andwf	___ftdiv@f1,f,c
  5242  006C58  0EFF               	movlw	255
  5243  006C5A  1629               	andwf	___ftdiv@f1+1,f,c
  5244  006C5C  0E00               	movlw	0
  5245  006C5E  162A               	andwf	___ftdiv@f1+2,f,c
  5246  006C60  8E2C               	bsf	___ftdiv@f2+1,7,c
  5247  006C62  0EFF               	movlw	255
  5248  006C64  162B               	andwf	___ftdiv@f2,f,c
  5249  006C66  0EFF               	movlw	255
  5250  006C68  162C               	andwf	___ftdiv@f2+1,f,c
  5251  006C6A  0E00               	movlw	0
  5252  006C6C  162D               	andwf	___ftdiv@f2+2,f,c
  5253  006C6E  0E18               	movlw	24
  5254  006C70  6E31               	movwf	___ftdiv@cntr,c
  5255  006C72                     l1999:
  5256  006C72  90D8               	bcf	status,0,c
  5257  006C74  3632               	rlcf	___ftdiv@f3,f,c
  5258  006C76  3633               	rlcf	___ftdiv@f3+1,f,c
  5259  006C78  3634               	rlcf	___ftdiv@f3+2,f,c
  5260  006C7A  502B               	movf	___ftdiv@f2,w,c
  5261  006C7C  5C28               	subwf	___ftdiv@f1,w,c
  5262  006C7E  502C               	movf	___ftdiv@f2+1,w,c
  5263  006C80  5829               	subwfb	___ftdiv@f1+1,w,c
  5264  006C82  502D               	movf	___ftdiv@f2+2,w,c
  5265  006C84  582A               	subwfb	___ftdiv@f1+2,w,c
  5266  006C86  A0D8               	btfss	status,0,c
  5267  006C88  D007               	goto	l688
  5268  006C8A  502B               	movf	___ftdiv@f2,w,c
  5269  006C8C  5E28               	subwf	___ftdiv@f1,f,c
  5270  006C8E  502C               	movf	___ftdiv@f2+1,w,c
  5271  006C90  5A29               	subwfb	___ftdiv@f1+1,f,c
  5272  006C92  502D               	movf	___ftdiv@f2+2,w,c
  5273  006C94  5A2A               	subwfb	___ftdiv@f1+2,f,c
  5274  006C96  8032               	bsf	___ftdiv@f3,0,c
  5275  006C98                     l688:
  5276  006C98  90D8               	bcf	status,0,c
  5277  006C9A  3628               	rlcf	___ftdiv@f1,f,c
  5278  006C9C  3629               	rlcf	___ftdiv@f1+1,f,c
  5279  006C9E  362A               	rlcf	___ftdiv@f1+2,f,c
  5280  006CA0  2E31               	decfsz	___ftdiv@cntr,f,c
  5281  006CA2  D7E7               	goto	l1999
  5282  006CA4  C032  F001         	movff	___ftdiv@f3,___ftpack@arg
  5283  006CA8  C033  F002         	movff	___ftdiv@f3+1,___ftpack@arg+1
  5284  006CAC  C034  F003         	movff	___ftdiv@f3+2,___ftpack@arg+2
  5285  006CB0  C035  F004         	movff	___ftdiv@exp,___ftpack@exp
  5286  006CB4  C036  F005         	movff	___ftdiv@sign,___ftpack@sign
  5287  006CB8  ECE0  F034         	call	___ftpack	;wreg free
  5288  006CBC  C001  F028         	movff	?___ftpack,?___ftdiv
  5289  006CC0  C002  F029         	movff	?___ftpack+1,?___ftdiv+1
  5290  006CC4  C003  F02A         	movff	?___ftpack+2,?___ftdiv+2
  5291  006CC8                     l685:
  5292  006CC8  0012               	return	
  5293  006CCA                     __end_of___ftdiv:
  5294                           	opt stack 0
  5295                           tblptru	equ	0xFF8
  5296                           tblptrh	equ	0xFF7
  5297                           tblptrl	equ	0xFF6
  5298                           tablat	equ	0xFF5
  5299                           prodh	equ	0xFF4
  5300                           prodl	equ	0xFF3
  5301                           wreg	equ	0xFE8
  5302                           postinc1	equ	0xFE6
  5303                           postdec1	equ	0xFE5
  5304                           fsr1h	equ	0xFE2
  5305                           fsr1l	equ	0xFE1
  5306                           postinc2	equ	0xFDE
  5307                           postdec2	equ	0xFDD
  5308                           fsr2h	equ	0xFDA
  5309                           fsr2l	equ	0xFD9
  5310                           status	equ	0xFD8
  5311                           
  5312 ;; *************** function ___ftadd *****************
  5313 ;; Defined at:
  5314 ;;		line 86 in file "C:\Program Files\Microchip\xc8\v1.33\sources\common\ftadd.c"
  5315 ;; Parameters:    Size  Location     Type
  5316 ;;  f1              3   27[COMRAM] float 
  5317 ;;  f2              3   30[COMRAM] float 
  5318 ;; Auto vars:     Size  Location     Type
  5319 ;;  exp1            1   38[COMRAM] unsigned char 
  5320 ;;  exp2            1   37[COMRAM] unsigned char 
  5321 ;;  sign            1   36[COMRAM] unsigned char 
  5322 ;; Return value:  Size  Location     Type
  5323 ;;                  3   27[COMRAM] float 
  5324 ;; Registers used:
  5325 ;;		wreg, status,2, status,0, cstack
  5326 ;; Tracked objects:
  5327 ;;		On entry : 0/0
  5328 ;;		On exit  : 0/0
  5329 ;;		Unchanged: 0/0
  5330 ;; Data sizes:     COMRAM   BANK0   BANK1   BANK2   BANK3   BANK4   BANK5   BANK6   BANK7
  5331 ;;      Params:         6       0       0       0       0       0       0       0       0
  5332 ;;      Locals:         3       0       0       0       0       0       0       0       0
  5333 ;;      Temps:          3       0       0       0       0       0       0       0       0
  5334 ;;      Totals:        12       0       0       0       0       0       0       0       0
  5335 ;;Total ram usage:       12 bytes
  5336 ;; Hardware stack levels used:    1
  5337 ;; Hardware stack levels required when called:    1
  5338 ;; This function calls:
  5339 ;;		___ftpack
  5340 ;; This function is called by:
  5341 ;;		_linspace
  5342 ;;		_triangular
  5343 ;;		_defuzzy
  5344 ;;		_trapezoidal
  5345 ;; This function uses a non-reentrant model
  5346 ;;
  5347                           
  5348                           	psect	text30
  5349  007310                     __ptext30:
  5350                           	opt stack 0
  5351  007310                     ___ftadd:
  5352                           	opt stack 27
  5353                           
  5354                           ;incstack = 0
  5355  007310  C01E  F022         	movff	___ftadd@f1+2,??___ftadd
  5356  007314  6A23               	clrf	(??___ftadd+1)& (0+255),c
  5357  007316  6A24               	clrf	(??___ftadd+2)& (0+255),c
  5358  007318  341D               	rlcf	___ftadd@f1+1,w,c
  5359  00731A  3622               	rlcf	??___ftadd& (0+255),f,c
  5360  00731C  E301               	bnc	u1581
  5361  00731E  8023               	bsf	(??___ftadd+1)& (0+255),0,c
  5362  007320                     u1581:
  5363  007320  5022               	movf	??___ftadd,w,c
  5364  007322  6E27               	movwf	___ftadd@exp1,c
  5365  007324  C021  F022         	movff	___ftadd@f2+2,??___ftadd
  5366  007328  6A23               	clrf	(??___ftadd+1)& (0+255),c
  5367  00732A  6A24               	clrf	(??___ftadd+2)& (0+255),c
  5368  00732C  3420               	rlcf	___ftadd@f2+1,w,c
  5369  00732E  3622               	rlcf	??___ftadd& (0+255),f,c
  5370  007330  E301               	bnc	u1591
  5371  007332  8023               	bsf	(??___ftadd+1)& (0+255),0,c
  5372  007334                     u1591:
  5373  007334  5022               	movf	??___ftadd,w,c
  5374  007336  6E26               	movwf	___ftadd@exp2,c
  5375  007338  5027               	movf	___ftadd@exp1,w,c
  5376  00733A  B4D8               	btfsc	status,2,c
  5377  00733C  D00C               	goto	l653
  5378  00733E  5026               	movf	___ftadd@exp2,w,c
  5379  007340  5C27               	subwf	___ftadd@exp1,w,c
  5380  007342  B0D8               	btfsc	status,0,c
  5381  007344  D00F               	goto	l1905
  5382  007346  5027               	movf	___ftadd@exp1,w,c
  5383  007348  0800               	sublw	0
  5384  00734A  2426               	addwf	___ftadd@exp2,w,c
  5385  00734C  6E22               	movwf	??___ftadd& (0+255),c
  5386  00734E  0E19               	movlw	25
  5387  007350  5C22               	subwf	??___ftadd,w,c
  5388  007352  A0D8               	btfss	status,0,c
  5389  007354  D007               	goto	l1905
  5390  007356                     l653:
  5391  007356  C01F  F01C         	movff	___ftadd@f2,?___ftadd
  5392  00735A  C020  F01D         	movff	___ftadd@f2+1,?___ftadd+1
  5393  00735E  C021  F01E         	movff	___ftadd@f2+2,?___ftadd+2
  5394  007362  D0AB               	goto	l654
  5395  007364                     l1905:
  5396  007364  5026               	movf	___ftadd@exp2,w,c
  5397  007366  B4D8               	btfsc	status,2,c
  5398  007368  D00C               	goto	l657
  5399  00736A  5027               	movf	___ftadd@exp1,w,c
  5400  00736C  5C26               	subwf	___ftadd@exp2,w,c
  5401  00736E  B0D8               	btfsc	status,0,c
  5402  007370  D00F               	goto	l1911
  5403  007372  5026               	movf	___ftadd@exp2,w,c
  5404  007374  0800               	sublw	0
  5405  007376  2427               	addwf	___ftadd@exp1,w,c
  5406  007378  6E22               	movwf	??___ftadd& (0+255),c
  5407  00737A  0E19               	movlw	25
  5408  00737C  5C22               	subwf	??___ftadd,w,c
  5409  00737E  A0D8               	btfss	status,0,c
  5410  007380  D007               	goto	l1911
  5411  007382                     l657:
  5412  007382  C01C  F01C         	movff	___ftadd@f1,?___ftadd
  5413  007386  C01D  F01D         	movff	___ftadd@f1+1,?___ftadd+1
  5414  00738A  C01E  F01E         	movff	___ftadd@f1+2,?___ftadd+2
  5415  00738E  D095               	goto	l654
  5416  007390                     l1911:
  5417  007390  0E06               	movlw	6
  5418  007392  6E25               	movwf	___ftadd@sign,c
  5419  007394  BE1E               	btfsc	___ftadd@f1+2,7,c
  5420  007396  8E25               	bsf	___ftadd@sign,7,c
  5421  007398  BE21               	btfsc	___ftadd@f2+2,7,c
  5422  00739A  8C25               	bsf	___ftadd@sign,6,c
  5423  00739C  8E1D               	bsf	___ftadd@f1+1,7,c
  5424  00739E  0EFF               	movlw	255
  5425  0073A0  161C               	andwf	___ftadd@f1,f,c
  5426  0073A2  0EFF               	movlw	255
  5427  0073A4  161D               	andwf	___ftadd@f1+1,f,c
  5428  0073A6  0E00               	movlw	0
  5429  0073A8  161E               	andwf	___ftadd@f1+2,f,c
  5430  0073AA  8E20               	bsf	___ftadd@f2+1,7,c
  5431  0073AC  0EFF               	movlw	255
  5432  0073AE  161F               	andwf	___ftadd@f2,f,c
  5433  0073B0  0EFF               	movlw	255
  5434  0073B2  1620               	andwf	___ftadd@f2+1,f,c
  5435  0073B4  0E00               	movlw	0
  5436  0073B6  1621               	andwf	___ftadd@f2+2,f,c
  5437  0073B8  5026               	movf	___ftadd@exp2,w,c
  5438  0073BA  5C27               	subwf	___ftadd@exp1,w,c
  5439  0073BC  B0D8               	btfsc	status,0,c
  5440  0073BE  D01A               	goto	l1937
  5441  0073C0                     l1927:
  5442  0073C0  90D8               	bcf	status,0,c
  5443  0073C2  361F               	rlcf	___ftadd@f2,f,c
  5444  0073C4  3620               	rlcf	___ftadd@f2+1,f,c
  5445  0073C6  3621               	rlcf	___ftadd@f2+2,f,c
  5446  0073C8  0626               	decf	___ftadd@exp2,f,c
  5447  0073CA  5026               	movf	___ftadd@exp2,w,c
  5448  0073CC  1827               	xorwf	___ftadd@exp1,w,c
  5449  0073CE  B4D8               	btfsc	status,2,c
  5450  0073D0  D00D               	goto	l1935
  5451  0073D2  0625               	decf	___ftadd@sign,f,c
  5452  0073D4  C025  F022         	movff	___ftadd@sign,??___ftadd
  5453  0073D8  0E07               	movlw	7
  5454  0073DA  1622               	andwf	??___ftadd,f,c
  5455  0073DC  B4D8               	btfsc	status,2,c
  5456  0073DE  D006               	goto	l1935
  5457  0073E0  D7EF               	goto	l1927
  5458  0073E2                     l1933:
  5459  0073E2  90D8               	bcf	status,0,c
  5460  0073E4  321E               	rrcf	___ftadd@f1+2,f,c
  5461  0073E6  321D               	rrcf	___ftadd@f1+1,f,c
  5462  0073E8  321C               	rrcf	___ftadd@f1,f,c
  5463  0073EA  2A27               	incf	___ftadd@exp1,f,c
  5464  0073EC                     l1935:
  5465  0073EC  5026               	movf	___ftadd@exp2,w,c
  5466  0073EE  6227               	cpfseq	___ftadd@exp1,c
  5467  0073F0  D7F8               	goto	l1933
  5468  0073F2  D01D               	goto	l668
  5469  0073F4                     l1937:
  5470  0073F4  5027               	movf	___ftadd@exp1,w,c
  5471  0073F6  5C26               	subwf	___ftadd@exp2,w,c
  5472  0073F8  B0D8               	btfsc	status,0,c
  5473  0073FA  D019               	goto	l668
  5474  0073FC                     l1939:
  5475  0073FC  90D8               	bcf	status,0,c
  5476  0073FE  361C               	rlcf	___ftadd@f1,f,c
  5477  007400  361D               	rlcf	___ftadd@f1+1,f,c
  5478  007402  361E               	rlcf	___ftadd@f1+2,f,c
  5479  007404  0627               	decf	___ftadd@exp1,f,c
  5480  007406  5026               	movf	___ftadd@exp2,w,c
  5481  007408  1827               	xorwf	___ftadd@exp1,w,c
  5482  00740A  B4D8               	btfsc	status,2,c
  5483  00740C  D00D               	goto	l1947
  5484  00740E  0625               	decf	___ftadd@sign,f,c
  5485  007410  C025  F022         	movff	___ftadd@sign,??___ftadd
  5486  007414  0E07               	movlw	7
  5487  007416  1622               	andwf	??___ftadd,f,c
  5488  007418  B4D8               	btfsc	status,2,c
  5489  00741A  D006               	goto	l1947
  5490  00741C  D7EF               	goto	l1939
  5491  00741E                     l1945:
  5492  00741E  90D8               	bcf	status,0,c
  5493  007420  3221               	rrcf	___ftadd@f2+2,f,c
  5494  007422  3220               	rrcf	___ftadd@f2+1,f,c
  5495  007424  321F               	rrcf	___ftadd@f2,f,c
  5496  007426  2A26               	incf	___ftadd@exp2,f,c
  5497  007428                     l1947:
  5498  007428  5026               	movf	___ftadd@exp2,w,c
  5499  00742A  6227               	cpfseq	___ftadd@exp1,c
  5500  00742C  D7F8               	goto	l1945
  5501  00742E                     l668:
  5502  00742E  AE25               	btfss	___ftadd@sign,7,c
  5503  007430  D00C               	goto	l677
  5504  007432  0EFF               	movlw	255
  5505  007434  1A1C               	xorwf	___ftadd@f1,f,c
  5506  007436  0EFF               	movlw	255
  5507  007438  1A1D               	xorwf	___ftadd@f1+1,f,c
  5508  00743A  0EFF               	movlw	255
  5509  00743C  1A1E               	xorwf	___ftadd@f1+2,f,c
  5510  00743E  0E01               	movlw	1
  5511  007440  261C               	addwf	___ftadd@f1,f,c
  5512  007442  0E00               	movlw	0
  5513  007444  221D               	addwfc	___ftadd@f1+1,f,c
  5514  007446  0E00               	movlw	0
  5515  007448  221E               	addwfc	___ftadd@f1+2,f,c
  5516  00744A                     l677:
  5517  00744A  AC25               	btfss	___ftadd@sign,6,c
  5518  00744C  D00C               	goto	l1953
  5519  00744E  0EFF               	movlw	255
  5520  007450  1A1F               	xorwf	___ftadd@f2,f,c
  5521  007452  0EFF               	movlw	255
  5522  007454  1A20               	xorwf	___ftadd@f2+1,f,c
  5523  007456  0EFF               	movlw	255
  5524  007458  1A21               	xorwf	___ftadd@f2+2,f,c
  5525  00745A  0E01               	movlw	1
  5526  00745C  261F               	addwf	___ftadd@f2,f,c
  5527  00745E  0E00               	movlw	0
  5528  007460  2220               	addwfc	___ftadd@f2+1,f,c
  5529  007462  0E00               	movlw	0
  5530  007464  2221               	addwfc	___ftadd@f2+2,f,c
  5531  007466                     l1953:
  5532  007466  0E00               	movlw	0
  5533  007468  6E25               	movwf	___ftadd@sign,c
  5534  00746A  501C               	movf	___ftadd@f1,w,c
  5535  00746C  261F               	addwf	___ftadd@f2,f,c
  5536  00746E  501D               	movf	___ftadd@f1+1,w,c
  5537  007470  2220               	addwfc	___ftadd@f2+1,f,c
  5538  007472  501E               	movf	___ftadd@f1+2,w,c
  5539  007474  2221               	addwfc	___ftadd@f2+2,f,c
  5540  007476  AE21               	btfss	___ftadd@f2+2,7,c
  5541  007478  D00E               	goto	l1963
  5542  00747A  0EFF               	movlw	255
  5543  00747C  1A1F               	xorwf	___ftadd@f2,f,c
  5544  00747E  0EFF               	movlw	255
  5545  007480  1A20               	xorwf	___ftadd@f2+1,f,c
  5546  007482  0EFF               	movlw	255
  5547  007484  1A21               	xorwf	___ftadd@f2+2,f,c
  5548  007486  0E01               	movlw	1
  5549  007488  261F               	addwf	___ftadd@f2,f,c
  5550  00748A  0E00               	movlw	0
  5551  00748C  2220               	addwfc	___ftadd@f2+1,f,c
  5552  00748E  0E00               	movlw	0
  5553  007490  2221               	addwfc	___ftadd@f2+2,f,c
  5554  007492  0E01               	movlw	1
  5555  007494  6E25               	movwf	___ftadd@sign,c
  5556  007496                     l1963:
  5557  007496  C01F  F001         	movff	___ftadd@f2,___ftpack@arg
  5558  00749A  C020  F002         	movff	___ftadd@f2+1,___ftpack@arg+1
  5559  00749E  C021  F003         	movff	___ftadd@f2+2,___ftpack@arg+2
  5560  0074A2  C027  F004         	movff	___ftadd@exp1,___ftpack@exp
  5561  0074A6  C025  F005         	movff	___ftadd@sign,___ftpack@sign
  5562  0074AA  ECE0  F034         	call	___ftpack	;wreg free
  5563  0074AE  C001  F01C         	movff	?___ftpack,?___ftadd
  5564  0074B2  C002  F01D         	movff	?___ftpack+1,?___ftadd+1
  5565  0074B6  C003  F01E         	movff	?___ftpack+2,?___ftadd+2
  5566  0074BA                     l654:
  5567  0074BA  0012               	return	
  5568  0074BC                     __end_of___ftadd:
  5569                           	opt stack 0
  5570                           tblptru	equ	0xFF8
  5571                           tblptrh	equ	0xFF7
  5572                           tblptrl	equ	0xFF6
  5573                           tablat	equ	0xFF5
  5574                           prodh	equ	0xFF4
  5575                           prodl	equ	0xFF3
  5576                           wreg	equ	0xFE8
  5577                           postinc1	equ	0xFE6
  5578                           postdec1	equ	0xFE5
  5579                           fsr1h	equ	0xFE2
  5580                           fsr1l	equ	0xFE1
  5581                           postinc2	equ	0xFDE
  5582                           postdec2	equ	0xFDD
  5583                           fsr2h	equ	0xFDA
  5584                           fsr2l	equ	0xFD9
  5585                           status	equ	0xFD8
  5586                           
  5587 ;; *************** function ___ftpack *****************
  5588 ;; Defined at:
  5589 ;;		line 62 in file "C:\Program Files\Microchip\xc8\v1.33\sources\common\float.c"
  5590 ;; Parameters:    Size  Location     Type
  5591 ;;  arg             3    0[COMRAM] unsigned um
  5592 ;;  exp             1    3[COMRAM] unsigned char 
  5593 ;;  sign            1    4[COMRAM] unsigned char 
  5594 ;; Auto vars:     Size  Location     Type
  5595 ;;		None
  5596 ;; Return value:  Size  Location     Type
  5597 ;;                  3    0[COMRAM] float 
  5598 ;; Registers used:
  5599 ;;		wreg, status,2, status,0
  5600 ;; Tracked objects:
  5601 ;;		On entry : 0/0
  5602 ;;		On exit  : 0/0
  5603 ;;		Unchanged: 0/0
  5604 ;; Data sizes:     COMRAM   BANK0   BANK1   BANK2   BANK3   BANK4   BANK5   BANK6   BANK7
  5605 ;;      Params:         5       0       0       0       0       0       0       0       0
  5606 ;;      Locals:         0       0       0       0       0       0       0       0       0
  5607 ;;      Temps:          3       0       0       0       0       0       0       0       0
  5608 ;;      Totals:         8       0       0       0       0       0       0       0       0
  5609 ;;Total ram usage:        8 bytes
  5610 ;; Hardware stack levels used:    1
  5611 ;; This function calls:
  5612 ;;		Nothing
  5613 ;; This function is called by:
  5614 ;;		___awtoft
  5615 ;;		___ftadd
  5616 ;;		___ftdiv
  5617 ;;		___ftmul
  5618 ;;		___lbtoft
  5619 ;; This function uses a non-reentrant model
  5620 ;;
  5621                           
  5622                           	psect	text31
  5623  0069C0                     __ptext31:
  5624                           	opt stack 0
  5625  0069C0                     ___ftpack:
  5626                           	opt stack 27
  5627                           
  5628                           ;incstack = 0
  5629  0069C0  5004               	movf	___ftpack@exp,w,c
  5630  0069C2  B4D8               	btfsc	status,2,c
  5631  0069C4  D005               	goto	l1867
  5632  0069C6  5001               	movf	___ftpack@arg,w,c
  5633  0069C8  1002               	iorwf	___ftpack@arg+1,w,c
  5634  0069CA  1003               	iorwf	___ftpack@arg+2,w,c
  5635  0069CC  A4D8               	btfss	status,2,c
  5636  0069CE  D00C               	goto	l1873
  5637  0069D0                     l1867:
  5638  0069D0  0E00               	movlw	0
  5639  0069D2  6E01               	movwf	?___ftpack,c
  5640  0069D4  0E00               	movlw	0
  5641  0069D6  6E02               	movwf	?___ftpack+1,c
  5642  0069D8  0E00               	movlw	0
  5643  0069DA  6E03               	movwf	?___ftpack+2,c
  5644  0069DC  D044               	goto	l616
  5645  0069DE                     l1871:
  5646  0069DE  2A04               	incf	___ftpack@exp,f,c
  5647  0069E0  90D8               	bcf	status,0,c
  5648  0069E2  3203               	rrcf	___ftpack@arg+2,f,c
  5649  0069E4  3202               	rrcf	___ftpack@arg+1,f,c
  5650  0069E6  3201               	rrcf	___ftpack@arg,f,c
  5651  0069E8                     l1873:
  5652  0069E8  0E00               	movlw	0
  5653  0069EA  1401               	andwf	___ftpack@arg,w,c
  5654  0069EC  6E06               	movwf	??___ftpack& (0+255),c
  5655  0069EE  0E00               	movlw	0
  5656  0069F0  1402               	andwf	___ftpack@arg+1,w,c
  5657  0069F2  6E07               	movwf	(??___ftpack+1)& (0+255),c
  5658  0069F4  0EFE               	movlw	254
  5659  0069F6  1403               	andwf	___ftpack@arg+2,w,c
  5660  0069F8  6E08               	movwf	(??___ftpack+2)& (0+255),c
  5661  0069FA  5006               	movf	??___ftpack,w,c
  5662  0069FC  1007               	iorwf	??___ftpack+1,w,c
  5663  0069FE  1008               	iorwf	??___ftpack+2,w,c
  5664  006A00  B4D8               	btfsc	status,2,c
  5665  006A02  D00C               	goto	l1879
  5666  006A04  D7EC               	goto	l1871
  5667  006A06                     l1875:
  5668  006A06  2A04               	incf	___ftpack@exp,f,c
  5669  006A08  0E01               	movlw	1
  5670  006A0A  2601               	addwf	___ftpack@arg,f,c
  5671  006A0C  0E00               	movlw	0
  5672  006A0E  2202               	addwfc	___ftpack@arg+1,f,c
  5673  006A10  0E00               	movlw	0
  5674  006A12  2203               	addwfc	___ftpack@arg+2,f,c
  5675  006A14  90D8               	bcf	status,0,c
  5676  006A16  3203               	rrcf	___ftpack@arg+2,f,c
  5677  006A18  3202               	rrcf	___ftpack@arg+1,f,c
  5678  006A1A  3201               	rrcf	___ftpack@arg,f,c
  5679  006A1C                     l1879:
  5680  006A1C  0E00               	movlw	0
  5681  006A1E  1401               	andwf	___ftpack@arg,w,c
  5682  006A20  6E06               	movwf	??___ftpack& (0+255),c
  5683  006A22  0E00               	movlw	0
  5684  006A24  1402               	andwf	___ftpack@arg+1,w,c
  5685  006A26  6E07               	movwf	(??___ftpack+1)& (0+255),c
  5686  006A28  0EFF               	movlw	255
  5687  006A2A  1403               	andwf	___ftpack@arg+2,w,c
  5688  006A2C  6E08               	movwf	(??___ftpack+2)& (0+255),c
  5689  006A2E  5006               	movf	??___ftpack,w,c
  5690  006A30  1007               	iorwf	??___ftpack+1,w,c
  5691  006A32  1008               	iorwf	??___ftpack+2,w,c
  5692  006A34  B4D8               	btfsc	status,2,c
  5693  006A36  D006               	goto	l1883
  5694  006A38  D7E6               	goto	l1875
  5695  006A3A                     l1881:
  5696  006A3A  0604               	decf	___ftpack@exp,f,c
  5697  006A3C  90D8               	bcf	status,0,c
  5698  006A3E  3601               	rlcf	___ftpack@arg,f,c
  5699  006A40  3602               	rlcf	___ftpack@arg+1,f,c
  5700  006A42  3603               	rlcf	___ftpack@arg+2,f,c
  5701  006A44                     l1883:
  5702  006A44  AE02               	btfss	___ftpack@arg+1,7,c
  5703  006A46  D7F9               	goto	l1881
  5704  006A48  A004               	btfss	___ftpack@exp,0,c
  5705  006A4A  9E02               	bcf	___ftpack@arg+1,7,c
  5706  006A4C  90D8               	bcf	status,0,c
  5707  006A4E  3204               	rrcf	___ftpack@exp,f,c
  5708  006A50  5004               	movf	___ftpack@exp,w,c
  5709  006A52  1203               	iorwf	___ftpack@arg+2,f,c
  5710  006A54  5005               	movf	___ftpack@sign,w,c
  5711  006A56  A4D8               	btfss	status,2,c
  5712  006A58  8E03               	bsf	___ftpack@arg+2,7,c
  5713  006A5A  C001  F001         	movff	___ftpack@arg,?___ftpack
  5714  006A5E  C002  F002         	movff	___ftpack@arg+1,?___ftpack+1
  5715  006A62  C003  F003         	movff	___ftpack@arg+2,?___ftpack+2
  5716  006A66                     l616:
  5717  006A66  0012               	return	
  5718  006A68                     __end_of___ftpack:
  5719                           	opt stack 0
  5720  0000                     tblptru	equ	0xFF8
  5721                           tblptrh	equ	0xFF7
  5722                           tblptrl	equ	0xFF6
  5723                           tablat	equ	0xFF5
  5724                           prodh	equ	0xFF4
  5725                           prodl	equ	0xFF3
  5726                           wreg	equ	0xFE8
  5727                           postinc1	equ	0xFE6
  5728                           postdec1	equ	0xFE5
  5729                           fsr1h	equ	0xFE2
  5730                           fsr1l	equ	0xFE1
  5731                           postinc2	equ	0xFDE
  5732                           postdec2	equ	0xFDD
  5733                           fsr2h	equ	0xFDA
  5734                           fsr2l	equ	0xFD9
  5735                           status	equ	0xFD8
  5736                           tblptru	equ	0xFF8
  5737                           tblptrh	equ	0xFF7
  5738                           tblptrl	equ	0xFF6
  5739                           tablat	equ	0xFF5
  5740                           prodh	equ	0xFF4
  5741                           prodl	equ	0xFF3
  5742                           wreg	equ	0xFE8
  5743                           postinc1	equ	0xFE6
  5744                           postdec1	equ	0xFE5
  5745                           fsr1h	equ	0xFE2
  5746                           fsr1l	equ	0xFE1
  5747                           postinc2	equ	0xFDE
  5748                           postdec2	equ	0xFDD
  5749                           fsr2h	equ	0xFDA
  5750                           fsr2l	equ	0xFD9
  5751                           status	equ	0xFD8
  5752                           
  5753                           	psect	rparam
  5754  0000                     tblptru	equ	0xFF8
  5755                           tblptrh	equ	0xFF7
  5756                           tblptrl	equ	0xFF6
  5757                           tablat	equ	0xFF5
  5758                           prodh	equ	0xFF4
  5759                           prodl	equ	0xFF3
  5760                           wreg	equ	0xFE8
  5761                           postinc1	equ	0xFE6
  5762                           postdec1	equ	0xFE5
  5763                           fsr1h	equ	0xFE2
  5764                           fsr1l	equ	0xFE1
  5765                           postinc2	equ	0xFDE
  5766                           postdec2	equ	0xFDD
  5767                           fsr2h	equ	0xFDA
  5768                           fsr2l	equ	0xFD9
  5769                           status	equ	0xFD8


Data Sizes:
    Strings     0
    Constant    0
    Data        2
    BSS         5
    Persistent  0
    Stack       0

Auto Spaces:
    Space          Size  Autos    Used
    COMRAM           95     94      95
    BANK0           160    143     149
    BANK1           256    240     240
    BANK2           256    240     240
    BANK3           256    240     240
    BANK4           256    240     240
    BANK5           256    240     240
    BANK6           256    240     240
    BANK7           256      0       0

Pointer List with Targets:

    defuzzy@mf	PTR  size(2) Largest target is 120
		 -> fuzzy_system_single1@overall_out_mf(BANK5[120]), fuzzy_system_single2@overall_out_mf(BANK5[120]), fuzzy_system_single@overall_out_mf(BANK0[120]), fuzzy_system@overall_out_mf(BANK0[120]), 

    defuzzy@x	PTR  size(2) Largest target is 120
		 -> fuzzy_system_single1@y(BANK6[120]), fuzzy_system_single2@y(BANK6[120]), fuzzy_system_single@y(BANK0[120]), fuzzy_system@y(BANK0[120]), 

    out_mf@result	PTR  size(2) Largest target is 120
		 -> fuzzy_system_single1@overall_out_mf(BANK5[120]), fuzzy_system_single2@overall_out_mf(BANK5[120]), fuzzy_system_single@overall_out_mf(BANK0[120]), fuzzy_system@overall_out_mf(BANK0[120]), 

    out_mf@z	PTR  size(2) Largest target is 120
		 -> fuzzy_system_single1@qualified_cons_mf3(BANK4[120]), fuzzy_system_single2@qualified_cons_mf3(BANK4[120]), fuzzy_system_single@qualified_cons_mf3(BANK0[120]), fuzzy_system@qualified_cons_mf3(BANK0[120]), 

    out_mf@y	PTR  size(2) Largest target is 120
		 -> fuzzy_system_single1@qualified_cons_mf2(BANK4[120]), fuzzy_system_single2@qualified_cons_mf2(BANK4[120]), fuzzy_system_single@qualified_cons_mf2(BANK0[120]), fuzzy_system@qualified_cons_mf2(BANK0[120]), 

    out_mf@x	PTR  size(2) Largest target is 120
		 -> fuzzy_system_single1@qualified_cons_mf1(BANK3[120]), fuzzy_system_single2@qualified_cons_mf1(BANK3[120]), fuzzy_system_single@qualified_cons_mf1(BANK0[120]), fuzzy_system@qualified_cons_mf1(BANK0[120]), 

    qualified@y	PTR  size(2) Largest target is 120
		 -> fuzzy_system_single1@qualified_cons_mf3(BANK4[120]), fuzzy_system_single1@qualified_cons_mf2(BANK4[120]), fuzzy_system_single1@qualified_cons_mf1(BANK3[120]), fuzzy_system_single2@qualified_cons_mf3(BANK4[120]), 
		 -> fuzzy_system_single2@qualified_cons_mf2(BANK4[120]), fuzzy_system_single2@qualified_cons_mf1(BANK3[120]), fuzzy_system_single@qualified_cons_mf3(BANK0[120]), fuzzy_system_single@qualified_cons_mf2(BANK0[120]), 
		 -> fuzzy_system_single@qualified_cons_mf1(BANK0[120]), fuzzy_system@qualified_cons_mf3(BANK0[120]), fuzzy_system@qualified_cons_mf2(BANK0[120]), fuzzy_system@qualified_cons_mf1(BANK0[120]), 

    qualified@x	PTR  size(2) Largest target is 120
		 -> fuzzy_system_single1@cons_mf3(BANK5[120]), fuzzy_system_single1@cons_mf1(BANK3[120]), fuzzy_system_single2@cons_mf3(BANK5[120]), fuzzy_system_single2@cons_mf1(BANK3[120]), 
		 -> fuzzy_system_single@cons_mf3(BANK0[120]), fuzzy_system_single@cons_mf2(BANK0[120]), fuzzy_system_single@cons_mf1(BANK0[120]), fuzzy_system@cons_mf3(BANK0[120]), 
		 -> fuzzy_system@cons_mf2(BANK0[120]), fuzzy_system@cons_mf1(BANK0[120]), 

    tri_mf@t_value	PTR  size(2) Largest target is 120
		 -> fuzzy_system_single1@cons_mf3(BANK5[120]), fuzzy_system_single1@cons_mf2(BANK2[120]), fuzzy_system_single1@cons_mf1(BANK3[120]), fuzzy_system_single1@ante_mf3(BANK2[120]), 
		 -> fuzzy_system_single1@ante_mf2(BANK1[120]), fuzzy_system_single1@ante_mf1(BANK1[120]), fuzzy_system_single2@cons_mf3(BANK5[120]), fuzzy_system_single2@cons_mf2(BANK2[120]), 
		 -> fuzzy_system_single2@cons_mf1(BANK3[120]), fuzzy_system_single2@ante_mf3(BANK2[120]), fuzzy_system_single2@ante_mf2(BANK1[120]), fuzzy_system_single2@ante_mf1(BANK1[120]), 

    tri_mf@x	PTR  size(2) Largest target is 120
		 -> fuzzy_system_single1@y(BANK6[120]), fuzzy_system_single1@x(BANK6[120]), fuzzy_system_single2@y(BANK6[120]), fuzzy_system_single2@x(BANK6[120]), 

    linspace@x	PTR  size(2) Largest target is 120
		 -> fuzzy_system_single1@y(BANK6[120]), fuzzy_system_single1@x(BANK6[120]), fuzzy_system_single2@y(BANK6[120]), fuzzy_system_single2@x(BANK6[120]), 
		 -> fuzzy_system_single@y(BANK0[120]), fuzzy_system_single@x(BANK0[120]), fuzzy_system@y(BANK0[120]), fuzzy_system@x(BANK0[120]), 


Critical Paths under _main in COMRAM

    _main->_fuzzy_system_single1
    _main->_fuzzy_system_single2
    _mcu_init->_PWM_DutyCycle1
    _mcu_init->_PWM_DutyCycle2
    _PWM_init2->_OpenPWM2
    _PWM_init1->_OpenPWM1
    _go_back->_PWM_DutyCycle1
    _go_back->_PWM_DutyCycle2
    _PWM_DutyCycle2->___fttol
    _PWM_DutyCycle1->___fttol
    ___lbtoft->___ftpack
    ___fttol->___ftmul
    _fuzzy_system_single2->_tri_mf
    _fuzzy_system_single1->_tri_mf
    _tri_mf->_triangular
    _triangular->___ftdiv
    _qualified->___ftge
    _out_mf->___ftge
    ___ftge->___wmul
    _linspace->___ftdiv
    ___awtoft->___ftpack
    _defuzzy->___ftdiv
    ___ftmul->___awtoft
    ___ftmul->___lbtoft
    ___ftdiv->___ftadd
    ___ftadd->___ftmul

Critical Paths under _main in BANK0

    _main->_fuzzy_system_single1
    _main->_fuzzy_system_single2
    _fuzzy_system_single2->_tri_mf
    _fuzzy_system_single1->_tri_mf

Critical Paths under _main in BANK1

    _main->_fuzzy_system_single1
    _main->_fuzzy_system_single2

Critical Paths under _main in BANK2

    _main->_fuzzy_system_single1
    _main->_fuzzy_system_single2

Critical Paths under _main in BANK3

    _main->_fuzzy_system_single1
    _main->_fuzzy_system_single2

Critical Paths under _main in BANK4

    _main->_fuzzy_system_single1
    _main->_fuzzy_system_single2

Critical Paths under _main in BANK5

    _main->_fuzzy_system_single1
    _main->_fuzzy_system_single2

Critical Paths under _main in BANK6

    _main->_fuzzy_system_single1
    _main->_fuzzy_system_single2

Critical Paths under _main in BANK7

    None.

Call Graph Tables:

 ---------------------------------------------------------------------------------
 (Depth) Function   	        Calls       Base Space   Used Autos Params    Refs
 ---------------------------------------------------------------------------------
 (0) _main                                                18    18      0  188513
                                            125 BANK0     18    18      0
                     _PWM_DutyCycle1
                     _PWM_DutyCycle2
                           ___awtoft
                            ___fttol
               _fuzzy_system_single1
               _fuzzy_system_single2
                      _getCNY70Value
                            _go_back
                           _mcu_init
                      _motor_forward
 ---------------------------------------------------------------------------------
 (1) _motor_forward                                        0     0      0       0
 ---------------------------------------------------------------------------------
 (1) _mcu_init                                             3     3      0   10113
                                             51 COMRAM     3     3      0
                     _PWM_DutyCycle1
                     _PWM_DutyCycle2
                          _PWM_init1
                          _PWM_init2
 ---------------------------------------------------------------------------------
 (2) _PWM_init2                                            1     1      0      68
                                              3 COMRAM     1     1      0
                           _OpenPWM2
 ---------------------------------------------------------------------------------
 (3) _OpenPWM2                                             4     4      0      46
                                              0 COMRAM     3     3      0
 ---------------------------------------------------------------------------------
 (2) _PWM_init1                                            1     1      0      44
                                              1 COMRAM     1     1      0
                           _OpenPWM1
 ---------------------------------------------------------------------------------
 (3) _OpenPWM1                                             1     1      0      22
                                              0 COMRAM     1     1      0
 ---------------------------------------------------------------------------------
 (1) _go_back                                              2     1      1   10097
                                             51 COMRAM     2     1      1
                     _PWM_DutyCycle1
                     _PWM_DutyCycle2
                  _motor_Backforward
 ---------------------------------------------------------------------------------
 (2) _motor_Backforward                                    0     0      0       0
 ---------------------------------------------------------------------------------
 (2) _PWM_DutyCycle2                                       9     9      0    5000
                                             42 COMRAM     9     9      0
                          _SetDCPWM2
                            ___ftmul
                            ___fttol
                           ___lbtoft
 ---------------------------------------------------------------------------------
 (3) _SetDCPWM2                                            6     4      2     121
                                              0 COMRAM     6     4      2
 ---------------------------------------------------------------------------------
 (2) _PWM_DutyCycle1                                       9     9      0    5000
                                             42 COMRAM     9     9      0
                          _SetDCPWM1
                            ___ftmul
                            ___fttol
                           ___lbtoft
 ---------------------------------------------------------------------------------
 (3) ___lbtoft                                             4     1      3    1746
                                              8 COMRAM     4     1      3
                           ___ftpack
 ---------------------------------------------------------------------------------
 (3) ___fttol                                             15    11      4     464
                                             27 COMRAM    15    11      4
                            ___ftmul (ARG)
                           ___lbtoft (ARG)
 ---------------------------------------------------------------------------------
 (3) _SetDCPWM1                                            6     4      2     121
                                              0 COMRAM     6     4      2
 ---------------------------------------------------------------------------------
 (1) _getCNY70Value                                        2     0      2       0
                                              0 COMRAM     2     0      2
 ---------------------------------------------------------------------------------
 (1) _fuzzy_system_single2                              1457  1454      3   77811
                                             82 COMRAM    12     9      3
                                            122 BANK0      3     3      0
                                              0 BANK1    240   240      0
                                              0 BANK2    240   240      0
                                              0 BANK3    240   240      0
                                              0 BANK4    240   240      0
                                              0 BANK5    240   240      0
                                              0 BANK6    240   240      0
                            _defuzzy
                           _linspace
                             _out_mf
                          _qualified
                             _tri_mf
                         _triangular
 ---------------------------------------------------------------------------------
 (1) _fuzzy_system_single1                              1457  1454      3   77811
                                             82 COMRAM    12     9      3
                                            122 BANK0      3     3      0
                                              0 BANK1    240   240      0
                                              0 BANK2    240   240      0
                                              0 BANK3    240   240      0
                                              0 BANK4    240   240      0
                                              0 BANK5    240   240      0
                                              0 BANK6    240   240      0
                            _defuzzy
                           _linspace
                             _out_mf
                          _qualified
                             _tri_mf
                         _triangular
 ---------------------------------------------------------------------------------
 (2) _tri_mf                                             135   122     13   18615
                                             69 COMRAM    13     0     13
                                              0 BANK0    122   122      0
                             ___wmul
                         _triangular
 ---------------------------------------------------------------------------------
 (2) _triangular                                          15     3     12   10912
                                             54 COMRAM    15     3     12
                            ___ftadd
                            ___ftdiv
                             ___ftge
                            ___ftneg
                             ___wmul (ARG)
 ---------------------------------------------------------------------------------
 (3) ___ftneg                                              3     0      3     469
                                              0 COMRAM     3     0      3
 ---------------------------------------------------------------------------------
 (2) _qualified                                           12     5      7    8342
                                             15 COMRAM    12     5      7
                             ___ftge
                             ___wmul
 ---------------------------------------------------------------------------------
 (2) _out_mf                                              10     2      8    7655
                                             15 COMRAM    10     2      8
                             ___ftge
                             ___wmul
 ---------------------------------------------------------------------------------
 (3) ___ftge                                               9     3      6    1958
                                              6 COMRAM     9     3      6
                             ___wmul (ARG)
 ---------------------------------------------------------------------------------
 (2) _linspace                                            14     4     10   17341
                                             54 COMRAM    14     4     10
                           ___awtoft
                            ___ftadd
                            ___ftdiv
                            ___ftmul
                             ___wmul
 ---------------------------------------------------------------------------------
 (3) ___awtoft                                             4     1      3    2080
                                              8 COMRAM     4     1      3
                           ___ftpack
 ---------------------------------------------------------------------------------
 (2) _defuzzy                                             15    11      4   14107
                                             54 COMRAM    15    11      4
                            ___ftadd
                            ___ftdiv
                            ___ftmul
                             ___wmul
 ---------------------------------------------------------------------------------
 (3) ___wmul                                               6     2      4    4187
                                              0 COMRAM     6     2      4
 ---------------------------------------------------------------------------------
 (3) ___ftmul                                             15     9      6    2622
                                             12 COMRAM    15     9      6
                           ___awtoft (ARG)
                           ___ftpack
                           ___lbtoft (ARG)
                             ___wmul (ARG)
 ---------------------------------------------------------------------------------
 (3) ___ftdiv                                             15     9      6    2720
                                             39 COMRAM    15     9      6
                           ___awtoft (ARG)
                            ___ftadd (ARG)
                            ___ftmul (ARG)
                            ___ftneg (ARG)
                           ___ftpack
 ---------------------------------------------------------------------------------
 (3) ___ftadd                                             12     6      6    3814
                                             27 COMRAM    12     6      6
                           ___awtoft (ARG)
                            ___ftmul (ARG)
                            ___ftneg (ARG)
                           ___ftpack
                             ___wmul (ARG)
 ---------------------------------------------------------------------------------
 (4) ___ftpack                                             8     3      5    1724
                                              0 COMRAM     8     3      5
 ---------------------------------------------------------------------------------
 Estimated maximum stack depth 4
 ---------------------------------------------------------------------------------

 Call Graph Graphs:

 _main (ROOT)
   _PWM_DutyCycle1
     _SetDCPWM1
     ___ftmul
       ___awtoft (ARG)
         ___ftpack
       ___ftpack (ARG)
       ___lbtoft (ARG)
         ___ftpack
       ___wmul (ARG)
     ___fttol
       ___ftmul (ARG)
         ___awtoft (ARG)
           ___ftpack
         ___ftpack (ARG)
         ___lbtoft (ARG)
           ___ftpack
         ___wmul (ARG)
       ___lbtoft (ARG)
         ___ftpack
     ___lbtoft
       ___ftpack
   _PWM_DutyCycle2
     _SetDCPWM2
     ___ftmul
       ___awtoft (ARG)
         ___ftpack
       ___ftpack (ARG)
       ___lbtoft (ARG)
         ___ftpack
       ___wmul (ARG)
     ___fttol
       ___ftmul (ARG)
         ___awtoft (ARG)
           ___ftpack
         ___ftpack (ARG)
         ___lbtoft (ARG)
           ___ftpack
         ___wmul (ARG)
       ___lbtoft (ARG)
         ___ftpack
     ___lbtoft
       ___ftpack
   ___awtoft
     ___ftpack
   ___fttol
     ___ftmul (ARG)
       ___awtoft (ARG)
         ___ftpack
       ___ftpack (ARG)
       ___lbtoft (ARG)
         ___ftpack
       ___wmul (ARG)
     ___lbtoft (ARG)
       ___ftpack
   _fuzzy_system_single1
     _defuzzy
       ___ftadd
         ___awtoft (ARG)
           ___ftpack
         ___ftmul (ARG)
           ___awtoft (ARG)
             ___ftpack
           ___ftpack (ARG)
           ___lbtoft (ARG)
             ___ftpack
           ___wmul (ARG)
         ___ftneg (ARG)
         ___ftpack (ARG)
         ___wmul (ARG)
       ___ftdiv
         ___awtoft (ARG)
           ___ftpack
         ___ftadd (ARG)
           ___awtoft (ARG)
             ___ftpack
           ___ftmul (ARG)
             ___awtoft (ARG)
               ___ftpack
             ___ftpack (ARG)
             ___lbtoft (ARG)
               ___ftpack
             ___wmul (ARG)
           ___ftneg (ARG)
           ___ftpack (ARG)
           ___wmul (ARG)
         ___ftmul (ARG)
           ___awtoft (ARG)
             ___ftpack
           ___ftpack (ARG)
           ___lbtoft (ARG)
             ___ftpack
           ___wmul (ARG)
         ___ftneg (ARG)
         ___ftpack (ARG)
       ___ftmul
         ___awtoft (ARG)
           ___ftpack
         ___ftpack (ARG)
         ___lbtoft (ARG)
           ___ftpack
         ___wmul (ARG)
       ___wmul
     _linspace
       ___awtoft
         ___ftpack
       ___ftadd
         ___awtoft (ARG)
           ___ftpack
         ___ftmul (ARG)
           ___awtoft (ARG)
             ___ftpack
           ___ftpack (ARG)
           ___lbtoft (ARG)
             ___ftpack
           ___wmul (ARG)
         ___ftneg (ARG)
         ___ftpack (ARG)
         ___wmul (ARG)
       ___ftdiv
         ___awtoft (ARG)
           ___ftpack
         ___ftadd (ARG)
           ___awtoft (ARG)
             ___ftpack
           ___ftmul (ARG)
             ___awtoft (ARG)
               ___ftpack
             ___ftpack (ARG)
             ___lbtoft (ARG)
               ___ftpack
             ___wmul (ARG)
           ___ftneg (ARG)
           ___ftpack (ARG)
           ___wmul (ARG)
         ___ftmul (ARG)
           ___awtoft (ARG)
             ___ftpack
           ___ftpack (ARG)
           ___lbtoft (ARG)
             ___ftpack
           ___wmul (ARG)
         ___ftneg (ARG)
         ___ftpack (ARG)
       ___ftmul
         ___awtoft (ARG)
           ___ftpack
         ___ftpack (ARG)
         ___lbtoft (ARG)
           ___ftpack
         ___wmul (ARG)
       ___wmul
     _out_mf
       ___ftge
         ___wmul (ARG)
       ___wmul
     _qualified
       ___ftge
         ___wmul (ARG)
       ___wmul
     _tri_mf
       ___wmul
       _triangular
         ___ftadd
           ___awtoft (ARG)
             ___ftpack
           ___ftmul (ARG)
             ___awtoft (ARG)
               ___ftpack
             ___ftpack (ARG)
             ___lbtoft (ARG)
               ___ftpack
             ___wmul (ARG)
           ___ftneg (ARG)
           ___ftpack (ARG)
           ___wmul (ARG)
         ___ftdiv
           ___awtoft (ARG)
             ___ftpack
           ___ftadd (ARG)
             ___awtoft (ARG)
               ___ftpack
             ___ftmul (ARG)
               ___awtoft (ARG)
                 ___ftpack
               ___ftpack (ARG)
               ___lbtoft (ARG)
                 ___ftpack
               ___wmul (ARG)
             ___ftneg (ARG)
             ___ftpack (ARG)
             ___wmul (ARG)
           ___ftmul (ARG)
             ___awtoft (ARG)
               ___ftpack
             ___ftpack (ARG)
             ___lbtoft (ARG)
               ___ftpack
             ___wmul (ARG)
           ___ftneg (ARG)
           ___ftpack (ARG)
         ___ftge
           ___wmul (ARG)
         ___ftneg
         ___wmul (ARG)
     _triangular
       ___ftadd
         ___awtoft (ARG)
           ___ftpack
         ___ftmul (ARG)
           ___awtoft (ARG)
             ___ftpack
           ___ftpack (ARG)
           ___lbtoft (ARG)
             ___ftpack
           ___wmul (ARG)
         ___ftneg (ARG)
         ___ftpack (ARG)
         ___wmul (ARG)
       ___ftdiv
         ___awtoft (ARG)
           ___ftpack
         ___ftadd (ARG)
           ___awtoft (ARG)
             ___ftpack
           ___ftmul (ARG)
             ___awtoft (ARG)
               ___ftpack
             ___ftpack (ARG)
             ___lbtoft (ARG)
               ___ftpack
             ___wmul (ARG)
           ___ftneg (ARG)
           ___ftpack (ARG)
           ___wmul (ARG)
         ___ftmul (ARG)
           ___awtoft (ARG)
             ___ftpack
           ___ftpack (ARG)
           ___lbtoft (ARG)
             ___ftpack
           ___wmul (ARG)
         ___ftneg (ARG)
         ___ftpack (ARG)
       ___ftge
         ___wmul (ARG)
       ___ftneg
       ___wmul (ARG)
   _fuzzy_system_single2
     _defuzzy
       ___ftadd
         ___awtoft (ARG)
           ___ftpack
         ___ftmul (ARG)
           ___awtoft (ARG)
             ___ftpack
           ___ftpack (ARG)
           ___lbtoft (ARG)
             ___ftpack
           ___wmul (ARG)
         ___ftneg (ARG)
         ___ftpack (ARG)
         ___wmul (ARG)
       ___ftdiv
         ___awtoft (ARG)
           ___ftpack
         ___ftadd (ARG)
           ___awtoft (ARG)
             ___ftpack
           ___ftmul (ARG)
             ___awtoft (ARG)
               ___ftpack
             ___ftpack (ARG)
             ___lbtoft (ARG)
               ___ftpack
             ___wmul (ARG)
           ___ftneg (ARG)
           ___ftpack (ARG)
           ___wmul (ARG)
         ___ftmul (ARG)
           ___awtoft (ARG)
             ___ftpack
           ___ftpack (ARG)
           ___lbtoft (ARG)
             ___ftpack
           ___wmul (ARG)
         ___ftneg (ARG)
         ___ftpack (ARG)
       ___ftmul
         ___awtoft (ARG)
           ___ftpack
         ___ftpack (ARG)
         ___lbtoft (ARG)
           ___ftpack
         ___wmul (ARG)
       ___wmul
     _linspace
       ___awtoft
         ___ftpack
       ___ftadd
         ___awtoft (ARG)
           ___ftpack
         ___ftmul (ARG)
           ___awtoft (ARG)
             ___ftpack
           ___ftpack (ARG)
           ___lbtoft (ARG)
             ___ftpack
           ___wmul (ARG)
         ___ftneg (ARG)
         ___ftpack (ARG)
         ___wmul (ARG)
       ___ftdiv
         ___awtoft (ARG)
           ___ftpack
         ___ftadd (ARG)
           ___awtoft (ARG)
             ___ftpack
           ___ftmul (ARG)
             ___awtoft (ARG)
               ___ftpack
             ___ftpack (ARG)
             ___lbtoft (ARG)
               ___ftpack
             ___wmul (ARG)
           ___ftneg (ARG)
           ___ftpack (ARG)
           ___wmul (ARG)
         ___ftmul (ARG)
           ___awtoft (ARG)
             ___ftpack
           ___ftpack (ARG)
           ___lbtoft (ARG)
             ___ftpack
           ___wmul (ARG)
         ___ftneg (ARG)
         ___ftpack (ARG)
       ___ftmul
         ___awtoft (ARG)
           ___ftpack
         ___ftpack (ARG)
         ___lbtoft (ARG)
           ___ftpack
         ___wmul (ARG)
       ___wmul
     _out_mf
       ___ftge
         ___wmul (ARG)
       ___wmul
     _qualified
       ___ftge
         ___wmul (ARG)
       ___wmul
     _tri_mf
       ___wmul
       _triangular
         ___ftadd
           ___awtoft (ARG)
             ___ftpack
           ___ftmul (ARG)
             ___awtoft (ARG)
               ___ftpack
             ___ftpack (ARG)
             ___lbtoft (ARG)
               ___ftpack
             ___wmul (ARG)
           ___ftneg (ARG)
           ___ftpack (ARG)
           ___wmul (ARG)
         ___ftdiv
           ___awtoft (ARG)
             ___ftpack
           ___ftadd (ARG)
             ___awtoft (ARG)
               ___ftpack
             ___ftmul (ARG)
               ___awtoft (ARG)
                 ___ftpack
               ___ftpack (ARG)
               ___lbtoft (ARG)
                 ___ftpack
               ___wmul (ARG)
             ___ftneg (ARG)
             ___ftpack (ARG)
             ___wmul (ARG)
           ___ftmul (ARG)
             ___awtoft (ARG)
               ___ftpack
             ___ftpack (ARG)
             ___lbtoft (ARG)
               ___ftpack
             ___wmul (ARG)
           ___ftneg (ARG)
           ___ftpack (ARG)
         ___ftge
           ___wmul (ARG)
         ___ftneg
         ___wmul (ARG)
     _triangular
       ___ftadd
         ___awtoft (ARG)
           ___ftpack
         ___ftmul (ARG)
           ___awtoft (ARG)
             ___ftpack
           ___ftpack (ARG)
           ___lbtoft (ARG)
             ___ftpack
           ___wmul (ARG)
         ___ftneg (ARG)
         ___ftpack (ARG)
         ___wmul (ARG)
       ___ftdiv
         ___awtoft (ARG)
           ___ftpack
         ___ftadd (ARG)
           ___awtoft (ARG)
             ___ftpack
           ___ftmul (ARG)
             ___awtoft (ARG)
               ___ftpack
             ___ftpack (ARG)
             ___lbtoft (ARG)
               ___ftpack
             ___wmul (ARG)
           ___ftneg (ARG)
           ___ftpack (ARG)
           ___wmul (ARG)
         ___ftmul (ARG)
           ___awtoft (ARG)
             ___ftpack
           ___ftpack (ARG)
           ___lbtoft (ARG)
             ___ftpack
           ___wmul (ARG)
         ___ftneg (ARG)
         ___ftpack (ARG)
       ___ftge
         ___wmul (ARG)
       ___ftneg
       ___wmul (ARG)
   _getCNY70Value
   _go_back
     _PWM_DutyCycle1
       _SetDCPWM1
       ___ftmul
         ___awtoft (ARG)
           ___ftpack
         ___ftpack (ARG)
         ___lbtoft (ARG)
           ___ftpack
         ___wmul (ARG)
       ___fttol
         ___ftmul (ARG)
           ___awtoft (ARG)
             ___ftpack
           ___ftpack (ARG)
           ___lbtoft (ARG)
             ___ftpack
           ___wmul (ARG)
         ___lbtoft (ARG)
           ___ftpack
       ___lbtoft
         ___ftpack
     _PWM_DutyCycle2
       _SetDCPWM2
       ___ftmul
         ___awtoft (ARG)
           ___ftpack
         ___ftpack (ARG)
         ___lbtoft (ARG)
           ___ftpack
         ___wmul (ARG)
       ___fttol
         ___ftmul (ARG)
           ___awtoft (ARG)
             ___ftpack
           ___ftpack (ARG)
           ___lbtoft (ARG)
             ___ftpack
           ___wmul (ARG)
         ___lbtoft (ARG)
           ___ftpack
       ___lbtoft
         ___ftpack
     _motor_Backforward
   _mcu_init
     _PWM_DutyCycle1
       _SetDCPWM1
       ___ftmul
         ___awtoft (ARG)
           ___ftpack
         ___ftpack (ARG)
         ___lbtoft (ARG)
           ___ftpack
         ___wmul (ARG)
       ___fttol
         ___ftmul (ARG)
           ___awtoft (ARG)
             ___ftpack
           ___ftpack (ARG)
           ___lbtoft (ARG)
             ___ftpack
           ___wmul (ARG)
         ___lbtoft (ARG)
           ___ftpack
       ___lbtoft
         ___ftpack
     _PWM_DutyCycle2
       _SetDCPWM2
       ___ftmul
         ___awtoft (ARG)
           ___ftpack
         ___ftpack (ARG)
         ___lbtoft (ARG)
           ___ftpack
         ___wmul (ARG)
       ___fttol
         ___ftmul (ARG)
           ___awtoft (ARG)
             ___ftpack
           ___ftpack (ARG)
           ___lbtoft (ARG)
             ___ftpack
           ___wmul (ARG)
         ___lbtoft (ARG)
           ___ftpack
       ___lbtoft
         ___ftpack
     _PWM_init1
       _OpenPWM1
     _PWM_init2
       _OpenPWM2
   _motor_forward

 Address spaces:
Name               Size   Autos  Total    Cost      Usage
BIGRAM             7FF      0       0      21        0.0%
EEDATA             100      0       0       0        0.0%
BITBANK7           100      0       0      18        0.0%
BANK7              100      0       0      19        0.0%
BITBANK6           100      0       0      16        0.0%
BANK6              100     F0      F0      17       93.8%
BITBANK5           100      0       0      14        0.0%
BANK5              100     F0      F0      15       93.8%
BITBANK4           100      0       0      12        0.0%
BANK4              100     F0      F0      13       93.8%
BITBANK3           100      0       0      10        0.0%
BANK3              100     F0      F0      11       93.8%
BITBANK2           100      0       0       8        0.0%
BANK2              100     F0      F0       9       93.8%
BITBANK1           100      0       0       6        0.0%
BANK1              100     F0      F0       7       93.8%
BITBANK0            A0      0       0       4        0.0%
BANK0               A0     8F      95       5       93.1%
BITCOMRAM           5F      0       0       0        0.0%
COMRAM              5F     5E      5F       1      100.0%
BITSFR               0      0       0      40        0.0%
SFR                  0      0       0      40        0.0%
STACK                0      0       0       2        0.0%
NULL                 0      0       0       0        0.0%
ABS                  0      0     694      20        0.0%
DATA                 0      0     694       3        0.0%
CODE                 0      0       0       0        0.0%


Microchip Technology PIC18 Macro Assembler V1.33 build 59893 
Symbol Table                                                                                   Thu Oct 26 18:40:57 2017

                       ??_motor_forward 0001                                       _i 00F1  
               __size_of_PWM_DutyCycle1 006A                 __size_of_PWM_DutyCycle2 006A  
                   ___wmul@multiplicand 0003                             __CFG_BORV$3 000000  
                          __CFG_CP0$OFF 000000                            __CFG_CP1$OFF 000000  
                          __CFG_CP2$OFF 000000                            __CFG_CP3$OFF 000000  
                          ___ftadd@exp1 0027                            ___ftadd@exp2 0026  
                          ___ftadd@sign 0025                                     l101 71AC  
                                   l123 6E94                                     l132 78FA  
                                   l212 6A78                                     l221 6AC0  
                                   l213 6B1E                                     l223 6AD8  
                                   l215 6A88                                     l225 6AE8  
                                   l217 6AA0                                     l227 6AFE  
                                   l219 6AB0                                     l700 6DAC  
                                   l710 6690                                     l616 6A66  
                                   l720 6BF2                                     l297 6760  
                                   l298 676A                                     l299 676C  
                                   l653 7356                                     l654 74BA  
                                   l657 7382                                     l668 742E  
                                   l677 744A                                     l685 6CC8  
                                   l694 6920                                     l688 6C98  
                          __CFG_CPB$OFF 000000                                     _PR2 000FCB  
                          __CFG_CPD$OFF 000000                            __CFG_BOR$OFF 000000  
                                   wreg 000FE8                            __CFG_LVP$OFF 000000  
                          ___ftdiv@cntr 0031                            ___ftdiv@sign 0036  
                          qualified@min 0017                            __CFG_WDT$OFF 000000  
                                  l2101 6CE4                                    l2021 68F2  
                                  l2121 6D3C                                    l2017 68C2  
                                  l2041 74F4                                    l2131 6D64  
                                  l2107 6D0A                                    l2027 691E  
                                  l2051 75D4                                    l2125 6D4C  
                                  l2135 6D74                                    l2151 679A  
                                  l2047 75B4                                    l2057 7694  
                                  l2161 6B3A                                    l2081 675C  
                                  l2325 6E62                                    l2255 6F94  
                                  l2343 77B0                                    l2327 6E8E  
                                  l2191 6BC8                                    l2183 6BA4  
                                  l2273 7104                                    l2193 6BCC  
                                  l2259 7076                                    l2179 6B94  
                                  l2349 78A6                                    l2197 6BE2  
                                  l2189 6BBC                                    l1911 7390  
                                  l2367 7274                                    l1905 7364  
                                  l2379 72DA                                    l1933 73E2  
                                  l2549 6B16                                    l2661 6EA4  
                                  l1871 69DE                                    l1935 73EC  
                                  l1927 73C0                                    l1881 6A3A  
                                  l1873 69E8                                    l1953 7466  
                                  l1945 741E                                    l1937 73F4  
                                  l1883 6A44                                    l1875 6A06  
                                  l1867 69D0                                    l1963 7496  
                                  l1947 7428                                    l1939 73FC  
                                  l2683 6F34                                    l1973 6C0E  
                                  l1879 6A1C                                    l1979 6C34  
                                  l1999 6C72                                    u2001 6CF4  
                                  u2010 6CFC                                    u2100 6BAA  
                                  u2051 6B30                                    u2070 6B58  
                                  u3017 6958                                    u2075 6B50  
                                  u1811 6C1E                                    u1820 6C26  
                                  u1581 7320                                    u1591 7334  
                                  u1915 75C4                                    u2830 6B0E  
                                  u1791 6C04                                    u2680 6AD0  
                                  u1945 66D2                                    u2780 6AF8  
                                  u1981 6CDA                                    u1975 670C  
                                  _TMR2 000FCC                                    _main 6E96  
                          ___ftpack@arg 0001                            ___ftpack@exp 0004  
                                  fsr1l 000FE1                                    fsr2l 000FD9  
                                  prodh 000FF4                                    prodl 000FF3  
                                  start 0000                           __CFG_IESO$OFF 000000  
                         __CFG_MCLRE$ON 000000                            ___ftmul@cntr 001A  
                          ___ftmul@sign 001B                            ___fttol@exp1 002A  
                          ___fttol@lval 0026                           __CFG_PLLDIV$1 000000  
                        __CFG_CCP2MX$ON 000000                                   ?_main 0001  
                       __end_of___ftadd 74BC                         __end_of___ftdiv 6CCA  
                       __end_of___ftneg 669E                         __end_of___ftmul 6DAE  
                       __end_of___fttol 6BF4                                   _T2CON 000FCA  
                        __CFG_DEBUG$OFF 000000                                   _PORTA 000F80  
                                 _PORTB 000F81                                   _PORTC 000F82  
                                 _PORTD 000F83                                   _PORTE 000F84  
                         __CFG_USBDIV$2 000000                                   _TRISA 000F92  
                                 _TRISB 000F93                                   _TRISC 000F94  
                                 _TRISD 000F95                                   _TRISE 000F96  
                         __CFG_PWRT$OFF 000000                           __CFG_WRT0$OFF 000000  
                         __CFG_WRT1$OFF 000000                           __CFG_WRT2$OFF 000000  
               PWM_DutyCycle1@DutyCycle 002F                           __CFG_WRT3$OFF 000000  
                       __end_of_defuzzy 7310                          __CFG_EBTR0$OFF 000000  
                        __CFG_FCMEN$OFF 000000                          __CFG_EBTR1$OFF 000000  
                        __CFG_EBTR2$OFF 000000                          __CFG_EBTR3$OFF 000000  
                       __end_of_go_back 65F2                           __CFG_WRTB$OFF 000000  
                         __CFG_WRTC$OFF 000000                           __CFG_WRTD$OFF 000000  
                        __CFG_EBTRB$OFF 000000                           ___awtoft@sign 000C  
                ??_fuzzy_system_single1 0056                  ??_fuzzy_system_single2 0056  
                          out_mf@result 0010                           ___ftpack@sign 0005  
                                 main@a 00E1                                   main@b 00E4  
                                 tablat 000FF5                 PWM_DutyCycle2@DutyCycle 002F  
                                 status 000FD8                          __CFG_ICPRT$OFF 000000  
                    __size_of_PWM_init1 001E                      __size_of_PWM_init2 001E  
                       __initialization 669E                            __end_of_main 6F8A  
                      __end_of_OpenPWM1 65DE                        __end_of_OpenPWM2 6776  
                                ??_main 00DD                           ___fttol@sign1 0025  
                         __activetblptr 000003                           linspace@start 0039  
                                _CCPR1L 000FBE                                  _CCPR2L 000FBB  
                      __end_of___awtoft 67BE                        __end_of___ftpack 6A68  
                      __end_of___lbtoft 6652  fuzzy_system_single2@qualified_cons_mf1 0378  
fuzzy_system_single2@qualified_cons_mf2 0478  fuzzy_system_single2@qualified_cons_mf3 0400  
    fuzzy_system_single2@overall_out_mf 0578                      __size_of_SetDCPWM1 003A  
                    __size_of_SetDCPWM2 003A                          __CFG_XINST$OFF 000000  
                                ___ftge 6892                                  ___wmul 6652  
                             ??___ftadd 0022                          _PWM_DutyCycle1 67BE  
                        _PWM_DutyCycle2 6828                          __CFG_STVREN$ON 000000  
                             ??___ftdiv 002E                               ??___ftneg 0004  
                             ??___ftmul 0013                               ??___fttol 0020  
                      __end_of_mcu_init 69C0                               ??_defuzzy 003B  
                      __end_of_linspace 708C                                  _out_mf 76A2  
                                _tri_mf 708C                               ??_go_back 0035  
                 ___ftmul@f3_as_product 0017              fuzzy_system_single1@output 00DA  
            fuzzy_system_single2@output 00DA                            triangular@ux 0043  
                                tblptrh 000FF7                                  tblptrl 000FF6  
                                tblptru 000FF8                       __end_of_PWM_init1 6610  
                     __end_of_PWM_init2 662E                       _motor_Backforward 65B8  
                            __accesstop 0060                 __end_of__initialization 66C2  
                       __CFG_PBADEN$OFF 000000                              ___ftadd@f1 001C  
                            ___ftadd@f2 001F                      ?_motor_Backforward 0001  
                            ___ftge@ff1 0007                              ___ftge@ff2 000A  
          PWM_DutyCycle2@percentageDuty 0031                              ___ftdiv@f1 0028  
                            ___ftdiv@f2 002B                              ___ftdiv@f3 0032  
                            ___ftneg@f1 0001                              ___awtoft@c 0009  
                            ___lbtoft@c 000C                  __end_of_PWM_DutyCycle1 6828  
                __end_of_PWM_DutyCycle2 6892                              ___ftmul@f1 000D  
                            ___ftmul@f2 0010                              ___fttol@f1 001C  
                        __pcstackCOMRAM 0001                     ??_motor_Backforward 0001  
                          __pidataBANK0 65B6                       __end_of_SetDCPWM1 6702  
                     __end_of_SetDCPWM2 673C                             linspace@end 003C  
             __end_of_motor_Backforward 65C2                           tri_mf@t_value 0046  
                            __pbssBANK0 00EF               fuzzy_system_single1@input 0053  
             fuzzy_system_single2@input 0053                               ?_OpenPWM1 0001  
                             ?_OpenPWM2 0001                         ?_PWM_DutyCycle1 0001  
                       ?_PWM_DutyCycle2 0001                                 ?___ftge 0007  
                               ?___wmul 0001                  __size_of_getCNY70Value 00B8  
                               _CCP1CON 000FBD                                 _CCP2CON 000FBA  
                 __end_of_motor_forward 65CC                               ?___awtoft 0009  
                             ?___ftpack 0001                               ?___lbtoft 0009  
                               ?_out_mf 0010                                 ?_tri_mf 0046  
                    __size_of_qualified 00E8                         __CFG_VREGEN$OFF 000000  
                             ?_mcu_init 0001                              ??_OpenPWM1 0001  
                            ??_OpenPWM2 0001                               ?_linspace 0037  
                               __Hparam 0000                                 __Lparam 0000  
                       __size_of___ftge 0090                                 ___ftadd 7310  
                               ___ftdiv 6BF4                                 ___ftneg 6678  
                       __size_of___wmul 0026                                 ___ftmul 6CCA  
                               ___fttol 6B20                                 __pcinit 669E  
                            ??___awtoft 000C                              ??___ftpack 0006  
                            ??___lbtoft 000C                                 __ramtop 0800  
                               _defuzzy 71AE                                 __ptext0 6E96  
                               __ptext1 65C2                                 __ptext2 6922  
                               __ptext3 6610                                 __ptext4 673C  
                               __ptext5 65F2                                 __ptext6 65CC  
                               __ptext7 65DE                                 __ptext8 65B8  
                               __ptext9 6828                                 _go_back 65DE  
                       __size_of_out_mf 025A                         __size_of_tri_mf 0122  
                               _countup 00F3                               _T2CONbits 000FCA  
            __size_of_motor_Backforward 000A                           _getCNY70Value 6A68  
                  end_of_initialization 66C2            fuzzy_system_single1@ante_mf1 0100  
          fuzzy_system_single1@ante_mf2 0178            fuzzy_system_single1@ante_mf3 0278  
         __size_of_fuzzy_system_single1 0382           __size_of_fuzzy_system_single2 0382  
          fuzzy_system_single1@cons_mf1 0300            fuzzy_system_single1@cons_mf2 0200  
          fuzzy_system_single1@cons_mf3 0500                              ??_mcu_init 0034  
          fuzzy_system_single2@ante_mf1 0100            fuzzy_system_single2@ante_mf2 0178  
          fuzzy_system_single2@ante_mf3 0278                              ??_linspace 0041  
          fuzzy_system_single2@cons_mf1 0300            fuzzy_system_single2@cons_mf2 0200  
          fuzzy_system_single2@cons_mf3 0500                       __end_of_qualified 6E96  
                               postdec1 000FE5                                 postdec2 000FDD  
                               out_mf@i 0018                                 out_mf@x 0012  
                               out_mf@y 0014                                 out_mf@z 0016  
                               postinc1 000FE6                                 postinc2 000FDE  
                               tri_mf@a 004A                                 tri_mf@b 004D  
                               tri_mf@c 0050                                 tri_mf@i 00D8  
                               tri_mf@x 0048                              defuzzy@out 003B  
                             _PORTAbits 000F80                               _PORTBbits 000F81  
                             _PORTDbits 000F83                               _TRISBbits 000F93  
                             _TRISCbits 000F94                          ?_getCNY70Value 0001  
                            _triangular 74BC                               _PWM_init1 65F2  
                             _PWM_init2 6610  fuzzy_system_single1@qualified_cons_mf1 0378  
fuzzy_system_single1@qualified_cons_mf2 0478  fuzzy_system_single1@qualified_cons_mf3 0400  
                           ___ftdiv@exp 0035                              main@sensed 00ED  
                           ___ftmul@exp 0016                          __end_of___ftge 6922  
                        __end_of___wmul 6678                          __end_of_out_mf 78FC  
                        __end_of_tri_mf 71AE                     start_initialization 669E  
                             _SetDCPWM1 66C8                               _SetDCPWM2 6702  
                       SetDCPWM1@DCycle 0005                         SetDCPWM2@DCycle 0005  
                             _DutyCycle 00EF                              ?_PWM_init1 0001  
                            ?_PWM_init2 0001                        ??_PWM_DutyCycle1 002B  
                      ??_PWM_DutyCycle2 002B                            linspace@size 003F  
                fuzzy_system_single1@w1 0056                  fuzzy_system_single1@w2 0059  
                fuzzy_system_single1@w3 005C                  fuzzy_system_single2@w1 0056  
                fuzzy_system_single2@w2 0059                  fuzzy_system_single2@w3 005C  
                     __size_of_OpenPWM1 0012                       __size_of_OpenPWM2 003A  
                              ??___ftge 000D                                ??___wmul 0005  
                           __pdataBANK0 00F3                        __CFG_LPT1OSC$OFF 000000  
                           triangular@a 0037                             triangular@b 003A  
                           triangular@c 003D                             triangular@x 0040  
                              ??_out_mf 0018                                ??_tri_mf 0053  
                     __size_of___awtoft 0048                       __size_of___ftpack 00A8  
                     __size_of___lbtoft 0024                             __pbssCOMRAM 005F  
                       ??_getCNY70Value 0003                           __pcstackBANK0 0060  
                         __pcstackBANK1 0100                           __pcstackBANK2 0200  
                         __pcstackBANK3 0300                           __pcstackBANK4 0400  
                         __pcstackBANK5 0500                           __pcstackBANK6 0600  
                            ?_SetDCPWM1 0001                              ?_SetDCPWM2 0001  
    fuzzy_system_single1@overall_out_mf 0578                             ?_triangular 0037  
                     __size_of_mcu_init 009E                               _main$1523 00E7  
                             _main$1524 00EA                       __size_of_linspace 0102  
                              ?___ftadd 001C                                ?___ftdiv 0028  
                              ?___ftneg 0001                                ?___ftmul 000D  
                              ?___fttol 001C                                ?_defuzzy 0037  
                              ?_go_back 0034                             ??_PWM_init1 0002  
                           ??_PWM_init2 0004            PWM_DutyCycle1@percentageDuty 0031  
                __size_of_motor_forward 000A                          ___wmul@product 0005  
                              _PIE1bits 000F9D                                _PIR1bits 000F9E  
                      __CFG_WDTPS$32768 000000                               defuzzy@mf 0039  
          __end_of_fuzzy_system_single1 7C7E            __end_of_fuzzy_system_single2 8000  
                             _qualified 6DAE                     __size_of_triangular 01E6  
                            _ADCON1bits 000FC1                       ___wmul@multiplier 0001  
                            qualified@i 001A                              qualified@w 0014  
                            qualified@x 0012                              qualified@y 0010  
                           ??_SetDCPWM1 0003                             ??_SetDCPWM2 0003  
                    SetDCPWM1@dutycycle 0001                              tri_mf@temp 0060  
                          _Timer2Config 005F                                _OpenPWM1 65CC  
                              _OpenPWM2 673C                   fuzzy_system_single1@x 0600  
                 fuzzy_system_single1@y 0678                   fuzzy_system_single2@x 0600  
                 fuzzy_system_single2@y 0678                                __Hrparam 0000  
                              __Lrparam 0000                      SetDCPWM2@dutycycle 0001  
                             mcu_init@i 0035                              ?_qualified 0010  
                      __size_of___ftadd 01AC                        PWM_DutyCycle1@DC 0032  
                      PWM_DutyCycle2@DC 0032                        __size_of___ftdiv 00D6  
                      __size_of___ftneg 0026                        __size_of___ftmul 00E4  
                      __size_of___fttol 00D4                           _motor_forward 65C2  
                              ___awtoft 6776                                ___ftpack 69C0  
                              ___lbtoft 662E                          OpenPWM2@ccp2mx 0003  
                 __CFG_FOSC$INTOSCIO_EC 000000                               linspace@i 0043  
                      __size_of_defuzzy 0162                               linspace@x 0037  
                      __size_of_go_back 0014                          OpenPWM1@period 0001  
                        OpenPWM2@period 0002                                __ptext10 6702  
                              __ptext11 67BE                                __ptext20 6678  
                              __ptext12 662E                                __ptext21 6DAE  
                              __ptext13 6B20                                __ptext30 7310  
                              __ptext22 76A2                                __ptext14 66C8  
                              __ptext31 69C0                                __ptext23 6892  
                              __ptext15 6A68                                __ptext24 6F8A  
                              __ptext16 7C7E                                __ptext25 6776  
                              __ptext17 78FC                                __ptext26 71AE  
                              __ptext18 708C                                __ptext27 6652  
                              __ptext19 74BC                                __ptext28 6CCA  
                              __ptext29 6BF4                         PWM_init1@period 0002  
                       PWM_init2@period 0004                                _mcu_init 6922  
                         __size_of_main 00F4                                _linspace 6F8A  
                              defuzzy@i 0044                                defuzzy@x 0037  
                        ?_motor_forward 0001                   __CFG_CPUDIV$OSC1_PLL2 000000  
                          ??_triangular 0043                    _fuzzy_system_single1 78FC  
                  _fuzzy_system_single2 7C7E                              _OSCCONbits 000FD3  
                           ??_qualified 0017                             defuzzy@sum1 003E  
                           defuzzy@sum2 0041                      __end_of_triangular 76A2  
                        go_back@m_right 0035                   __end_of_getCNY70Value 6B20  
                 ?_fuzzy_system_single1 0053                   ?_fuzzy_system_single2 0053  
                         go_back@m_left 0034  
